
user.elf:     file format elf64-littleriscv


Disassembly of section .text:

0000000080800000 <_trampoline>:
    80800000:	00010117          	auipc	sp,0x10
    80800004:	00010113          	mv	sp,sp
    80800008:	0ea210ef          	jal	ra,808210f2 <main>

000000008080000c <_fallthrough>:
    8080000c:	a001                	j	8080000c <_fallthrough>
    8080000e:	00000013          	nop
    80800012:	00000013          	nop
    80800016:	00000013          	nop
    8080001a:	00000013          	nop
    8080001e:	00000013          	nop
    80800022:	00000013          	nop
    80800026:	00000013          	nop
    8080002a:	00000013          	nop
    8080002e:	00000013          	nop
    80800032:	00000013          	nop
    80800036:	00000013          	nop
    8080003a:	00000013          	nop
    8080003e:	00000013          	nop
    80800042:	00000013          	nop
    80800046:	00000013          	nop
    8080004a:	00000013          	nop
    8080004e:	00000013          	nop
    80800052:	00000013          	nop
    80800056:	00000013          	nop
    8080005a:	00000013          	nop
    8080005e:	00000013          	nop
    80800062:	00000013          	nop
    80800066:	00000013          	nop
    8080006a:	00000013          	nop
    8080006e:	00000013          	nop
    80800072:	00000013          	nop
    80800076:	00000013          	nop
    8080007a:	00000013          	nop
    8080007e:	00000013          	nop
    80800082:	00000013          	nop
    80800086:	00000013          	nop
    8080008a:	00000013          	nop
    8080008e:	00000013          	nop
    80800092:	00000013          	nop
    80800096:	00000013          	nop
    8080009a:	00000013          	nop
    8080009e:	00000013          	nop
    808000a2:	00000013          	nop
    808000a6:	00000013          	nop
    808000aa:	00000013          	nop
    808000ae:	00000013          	nop
    808000b2:	00000013          	nop
    808000b6:	00000013          	nop
    808000ba:	00000013          	nop
    808000be:	00000013          	nop
    808000c2:	00000013          	nop
    808000c6:	00000013          	nop
    808000ca:	00000013          	nop
    808000ce:	00000013          	nop
    808000d2:	00000013          	nop
    808000d6:	00000013          	nop
    808000da:	00000013          	nop
    808000de:	00000013          	nop
    808000e2:	00000013          	nop
    808000e6:	00000013          	nop
    808000ea:	00000013          	nop
    808000ee:	00000013          	nop
    808000f2:	00000013          	nop
    808000f6:	00000013          	nop
    808000fa:	00000013          	nop
    808000fe:	00000013          	nop
    80800102:	00000013          	nop
    80800106:	00000013          	nop
    8080010a:	00000013          	nop
    8080010e:	00000013          	nop
    80800112:	00000013          	nop
    80800116:	00000013          	nop
    8080011a:	00000013          	nop
    8080011e:	00000013          	nop
    80800122:	00000013          	nop
    80800126:	00000013          	nop
    8080012a:	00000013          	nop
    8080012e:	00000013          	nop
    80800132:	00000013          	nop
    80800136:	00000013          	nop
    8080013a:	00000013          	nop
    8080013e:	00000013          	nop
    80800142:	00000013          	nop
    80800146:	00000013          	nop
    8080014a:	00000013          	nop
    8080014e:	00000013          	nop
    80800152:	00000013          	nop
    80800156:	00000013          	nop
    8080015a:	00000013          	nop
    8080015e:	00000013          	nop
    80800162:	00000013          	nop
    80800166:	00000013          	nop
    8080016a:	00000013          	nop
    8080016e:	00000013          	nop
    80800172:	00000013          	nop
    80800176:	00000013          	nop
    8080017a:	00000013          	nop
    8080017e:	00000013          	nop
    80800182:	00000013          	nop
    80800186:	00000013          	nop
    8080018a:	00000013          	nop
    8080018e:	00000013          	nop
    80800192:	00000013          	nop
    80800196:	00000013          	nop
    8080019a:	00000013          	nop
    8080019e:	00000013          	nop
    808001a2:	00000013          	nop
    808001a6:	00000013          	nop
    808001aa:	00000013          	nop
    808001ae:	00000013          	nop
    808001b2:	00000013          	nop
    808001b6:	00000013          	nop
    808001ba:	00000013          	nop
    808001be:	00000013          	nop
    808001c2:	00000013          	nop
    808001c6:	00000013          	nop
    808001ca:	00000013          	nop
    808001ce:	00000013          	nop
    808001d2:	00000013          	nop
    808001d6:	00000013          	nop
    808001da:	00000013          	nop
    808001de:	00000013          	nop
    808001e2:	00000013          	nop
    808001e6:	00000013          	nop
    808001ea:	00000013          	nop
    808001ee:	00000013          	nop
    808001f2:	00000013          	nop
    808001f6:	00000013          	nop
    808001fa:	00000013          	nop
    808001fe:	00000013          	nop
    80800202:	00000013          	nop
    80800206:	00000013          	nop
    8080020a:	00000013          	nop
    8080020e:	00000013          	nop
    80800212:	00000013          	nop
    80800216:	00000013          	nop
    8080021a:	00000013          	nop
    8080021e:	00000013          	nop
    80800222:	00000013          	nop
    80800226:	00000013          	nop
    8080022a:	00000013          	nop
    8080022e:	00000013          	nop
    80800232:	00000013          	nop
    80800236:	00000013          	nop
    8080023a:	00000013          	nop
    8080023e:	00000013          	nop
    80800242:	00000013          	nop
    80800246:	00000013          	nop
    8080024a:	00000013          	nop
    8080024e:	00000013          	nop
    80800252:	00000013          	nop
    80800256:	00000013          	nop
    8080025a:	00000013          	nop
    8080025e:	00000013          	nop
    80800262:	00000013          	nop
    80800266:	00000013          	nop
    8080026a:	00000013          	nop
    8080026e:	00000013          	nop
    80800272:	00000013          	nop
    80800276:	00000013          	nop
    8080027a:	00000013          	nop
    8080027e:	00000013          	nop
    80800282:	00000013          	nop
    80800286:	00000013          	nop
    8080028a:	00000013          	nop
    8080028e:	00000013          	nop
    80800292:	00000013          	nop
    80800296:	00000013          	nop
    8080029a:	00000013          	nop
    8080029e:	00000013          	nop
    808002a2:	00000013          	nop
    808002a6:	00000013          	nop
    808002aa:	00000013          	nop
    808002ae:	00000013          	nop
    808002b2:	00000013          	nop
    808002b6:	00000013          	nop
    808002ba:	00000013          	nop
    808002be:	00000013          	nop
    808002c2:	00000013          	nop
    808002c6:	00000013          	nop
    808002ca:	00000013          	nop
    808002ce:	00000013          	nop
    808002d2:	00000013          	nop
    808002d6:	00000013          	nop
    808002da:	00000013          	nop
    808002de:	00000013          	nop
    808002e2:	00000013          	nop
    808002e6:	00000013          	nop
    808002ea:	00000013          	nop
    808002ee:	00000013          	nop
    808002f2:	00000013          	nop
    808002f6:	00000013          	nop
    808002fa:	00000013          	nop
    808002fe:	00000013          	nop
    80800302:	00000013          	nop
    80800306:	00000013          	nop
    8080030a:	00000013          	nop
    8080030e:	00000013          	nop
    80800312:	00000013          	nop
    80800316:	00000013          	nop
    8080031a:	00000013          	nop
    8080031e:	00000013          	nop
    80800322:	00000013          	nop
    80800326:	00000013          	nop
    8080032a:	00000013          	nop
    8080032e:	00000013          	nop
    80800332:	00000013          	nop
    80800336:	00000013          	nop
    8080033a:	00000013          	nop
    8080033e:	00000013          	nop
    80800342:	00000013          	nop
    80800346:	00000013          	nop
    8080034a:	00000013          	nop
    8080034e:	00000013          	nop
    80800352:	00000013          	nop
    80800356:	00000013          	nop
    8080035a:	00000013          	nop
    8080035e:	00000013          	nop
    80800362:	00000013          	nop
    80800366:	00000013          	nop
    8080036a:	00000013          	nop
    8080036e:	00000013          	nop
    80800372:	00000013          	nop
    80800376:	00000013          	nop
    8080037a:	00000013          	nop
    8080037e:	00000013          	nop
    80800382:	00000013          	nop
    80800386:	00000013          	nop
    8080038a:	00000013          	nop
    8080038e:	00000013          	nop
    80800392:	00000013          	nop
    80800396:	00000013          	nop
    8080039a:	00000013          	nop
    8080039e:	00000013          	nop
    808003a2:	00000013          	nop
    808003a6:	00000013          	nop
    808003aa:	00000013          	nop
    808003ae:	00000013          	nop
    808003b2:	00000013          	nop
    808003b6:	00000013          	nop
    808003ba:	00000013          	nop
    808003be:	00000013          	nop
    808003c2:	00000013          	nop
    808003c6:	00000013          	nop
    808003ca:	00000013          	nop
    808003ce:	00000013          	nop
    808003d2:	00000013          	nop
    808003d6:	00000013          	nop
    808003da:	00000013          	nop
    808003de:	00000013          	nop
    808003e2:	00000013          	nop
    808003e6:	00000013          	nop
    808003ea:	00000013          	nop
    808003ee:	00000013          	nop
    808003f2:	00000013          	nop
    808003f6:	00000013          	nop
    808003fa:	00000013          	nop
    808003fe:	00000013          	nop
    80800402:	00000013          	nop
    80800406:	00000013          	nop
    8080040a:	00000013          	nop
    8080040e:	00000013          	nop
    80800412:	00000013          	nop
    80800416:	00000013          	nop
    8080041a:	00000013          	nop
    8080041e:	00000013          	nop
    80800422:	00000013          	nop
    80800426:	00000013          	nop
    8080042a:	00000013          	nop
    8080042e:	00000013          	nop
    80800432:	00000013          	nop
    80800436:	00000013          	nop
    8080043a:	00000013          	nop
    8080043e:	00000013          	nop
    80800442:	00000013          	nop
    80800446:	00000013          	nop
    8080044a:	00000013          	nop
    8080044e:	00000013          	nop
    80800452:	00000013          	nop
    80800456:	00000013          	nop
    8080045a:	00000013          	nop
    8080045e:	00000013          	nop
    80800462:	00000013          	nop
    80800466:	00000013          	nop
    8080046a:	00000013          	nop
    8080046e:	00000013          	nop
    80800472:	00000013          	nop
    80800476:	00000013          	nop
    8080047a:	00000013          	nop
    8080047e:	00000013          	nop
    80800482:	00000013          	nop
    80800486:	00000013          	nop
    8080048a:	00000013          	nop
    8080048e:	00000013          	nop
    80800492:	00000013          	nop
    80800496:	00000013          	nop
    8080049a:	00000013          	nop
    8080049e:	00000013          	nop
    808004a2:	00000013          	nop
    808004a6:	00000013          	nop
    808004aa:	00000013          	nop
    808004ae:	00000013          	nop
    808004b2:	00000013          	nop
    808004b6:	00000013          	nop
    808004ba:	00000013          	nop
    808004be:	00000013          	nop
    808004c2:	00000013          	nop
    808004c6:	00000013          	nop
    808004ca:	00000013          	nop
    808004ce:	00000013          	nop
    808004d2:	00000013          	nop
    808004d6:	00000013          	nop
    808004da:	00000013          	nop
    808004de:	00000013          	nop
    808004e2:	00000013          	nop
    808004e6:	00000013          	nop
    808004ea:	00000013          	nop
    808004ee:	00000013          	nop
    808004f2:	00000013          	nop
    808004f6:	00000013          	nop
    808004fa:	00000013          	nop
    808004fe:	00000013          	nop
    80800502:	00000013          	nop
    80800506:	00000013          	nop
    8080050a:	00000013          	nop
    8080050e:	00000013          	nop
    80800512:	00000013          	nop
    80800516:	00000013          	nop
    8080051a:	00000013          	nop
    8080051e:	00000013          	nop
    80800522:	00000013          	nop
    80800526:	00000013          	nop
    8080052a:	00000013          	nop
    8080052e:	00000013          	nop
    80800532:	00000013          	nop
    80800536:	00000013          	nop
    8080053a:	00000013          	nop
    8080053e:	00000013          	nop
    80800542:	00000013          	nop
    80800546:	00000013          	nop
    8080054a:	00000013          	nop
    8080054e:	00000013          	nop
    80800552:	00000013          	nop
    80800556:	00000013          	nop
    8080055a:	00000013          	nop
    8080055e:	00000013          	nop
    80800562:	00000013          	nop
    80800566:	00000013          	nop
    8080056a:	00000013          	nop
    8080056e:	00000013          	nop
    80800572:	00000013          	nop
    80800576:	00000013          	nop
    8080057a:	00000013          	nop
    8080057e:	00000013          	nop
    80800582:	00000013          	nop
    80800586:	00000013          	nop
    8080058a:	00000013          	nop
    8080058e:	00000013          	nop
    80800592:	00000013          	nop
    80800596:	00000013          	nop
    8080059a:	00000013          	nop
    8080059e:	00000013          	nop
    808005a2:	00000013          	nop
    808005a6:	00000013          	nop
    808005aa:	00000013          	nop
    808005ae:	00000013          	nop
    808005b2:	00000013          	nop
    808005b6:	00000013          	nop
    808005ba:	00000013          	nop
    808005be:	00000013          	nop
    808005c2:	00000013          	nop
    808005c6:	00000013          	nop
    808005ca:	00000013          	nop
    808005ce:	00000013          	nop
    808005d2:	00000013          	nop
    808005d6:	00000013          	nop
    808005da:	00000013          	nop
    808005de:	00000013          	nop
    808005e2:	00000013          	nop
    808005e6:	00000013          	nop
    808005ea:	00000013          	nop
    808005ee:	00000013          	nop
    808005f2:	00000013          	nop
    808005f6:	00000013          	nop
    808005fa:	00000013          	nop
    808005fe:	00000013          	nop
    80800602:	00000013          	nop
    80800606:	00000013          	nop
    8080060a:	00000013          	nop
    8080060e:	00000013          	nop
    80800612:	00000013          	nop
    80800616:	00000013          	nop
    8080061a:	00000013          	nop
    8080061e:	00000013          	nop
    80800622:	00000013          	nop
    80800626:	00000013          	nop
    8080062a:	00000013          	nop
    8080062e:	00000013          	nop
    80800632:	00000013          	nop
    80800636:	00000013          	nop
    8080063a:	00000013          	nop
    8080063e:	00000013          	nop
    80800642:	00000013          	nop
    80800646:	00000013          	nop
    8080064a:	00000013          	nop
    8080064e:	00000013          	nop
    80800652:	00000013          	nop
    80800656:	00000013          	nop
    8080065a:	00000013          	nop
    8080065e:	00000013          	nop
    80800662:	00000013          	nop
    80800666:	00000013          	nop
    8080066a:	00000013          	nop
    8080066e:	00000013          	nop
    80800672:	00000013          	nop
    80800676:	00000013          	nop
    8080067a:	00000013          	nop
    8080067e:	00000013          	nop
    80800682:	00000013          	nop
    80800686:	00000013          	nop
    8080068a:	00000013          	nop
    8080068e:	00000013          	nop
    80800692:	00000013          	nop
    80800696:	00000013          	nop
    8080069a:	00000013          	nop
    8080069e:	00000013          	nop
    808006a2:	00000013          	nop
    808006a6:	00000013          	nop
    808006aa:	00000013          	nop
    808006ae:	00000013          	nop
    808006b2:	00000013          	nop
    808006b6:	00000013          	nop
    808006ba:	00000013          	nop
    808006be:	00000013          	nop
    808006c2:	00000013          	nop
    808006c6:	00000013          	nop
    808006ca:	00000013          	nop
    808006ce:	00000013          	nop
    808006d2:	00000013          	nop
    808006d6:	00000013          	nop
    808006da:	00000013          	nop
    808006de:	00000013          	nop
    808006e2:	00000013          	nop
    808006e6:	00000013          	nop
    808006ea:	00000013          	nop
    808006ee:	00000013          	nop
    808006f2:	00000013          	nop
    808006f6:	00000013          	nop
    808006fa:	00000013          	nop
    808006fe:	00000013          	nop
    80800702:	00000013          	nop
    80800706:	00000013          	nop
    8080070a:	00000013          	nop
    8080070e:	00000013          	nop
    80800712:	00000013          	nop
    80800716:	00000013          	nop
    8080071a:	00000013          	nop
    8080071e:	00000013          	nop
    80800722:	00000013          	nop
    80800726:	00000013          	nop
    8080072a:	00000013          	nop
    8080072e:	00000013          	nop
    80800732:	00000013          	nop
    80800736:	00000013          	nop
    8080073a:	00000013          	nop
    8080073e:	00000013          	nop
    80800742:	00000013          	nop
    80800746:	00000013          	nop
    8080074a:	00000013          	nop
    8080074e:	00000013          	nop
    80800752:	00000013          	nop
    80800756:	00000013          	nop
    8080075a:	00000013          	nop
    8080075e:	00000013          	nop
    80800762:	00000013          	nop
    80800766:	00000013          	nop
    8080076a:	00000013          	nop
    8080076e:	00000013          	nop
    80800772:	00000013          	nop
    80800776:	00000013          	nop
    8080077a:	00000013          	nop
    8080077e:	00000013          	nop
    80800782:	00000013          	nop
    80800786:	00000013          	nop
    8080078a:	00000013          	nop
    8080078e:	00000013          	nop
    80800792:	00000013          	nop
    80800796:	00000013          	nop
    8080079a:	00000013          	nop
    8080079e:	00000013          	nop
    808007a2:	00000013          	nop
    808007a6:	00000013          	nop
    808007aa:	00000013          	nop
    808007ae:	00000013          	nop
    808007b2:	00000013          	nop
    808007b6:	00000013          	nop
    808007ba:	00000013          	nop
    808007be:	00000013          	nop
    808007c2:	00000013          	nop
    808007c6:	00000013          	nop
    808007ca:	00000013          	nop
    808007ce:	00000013          	nop
    808007d2:	00000013          	nop
    808007d6:	00000013          	nop
    808007da:	00000013          	nop
    808007de:	00000013          	nop
    808007e2:	00000013          	nop
    808007e6:	00000013          	nop
    808007ea:	00000013          	nop
    808007ee:	00000013          	nop
    808007f2:	00000013          	nop
    808007f6:	00000013          	nop
    808007fa:	00000013          	nop
    808007fe:	00000013          	nop
    80800802:	00000013          	nop
    80800806:	00000013          	nop
    8080080a:	00000013          	nop
    8080080e:	00000013          	nop
    80800812:	00000013          	nop
    80800816:	00000013          	nop
    8080081a:	00000013          	nop
    8080081e:	00000013          	nop
    80800822:	00000013          	nop
    80800826:	00000013          	nop
    8080082a:	00000013          	nop
    8080082e:	00000013          	nop
    80800832:	00000013          	nop
    80800836:	00000013          	nop
    8080083a:	00000013          	nop
    8080083e:	00000013          	nop
    80800842:	00000013          	nop
    80800846:	00000013          	nop
    8080084a:	00000013          	nop
    8080084e:	00000013          	nop
    80800852:	00000013          	nop
    80800856:	00000013          	nop
    8080085a:	00000013          	nop
    8080085e:	00000013          	nop
    80800862:	00000013          	nop
    80800866:	00000013          	nop
    8080086a:	00000013          	nop
    8080086e:	00000013          	nop
    80800872:	00000013          	nop
    80800876:	00000013          	nop
    8080087a:	00000013          	nop
    8080087e:	00000013          	nop
    80800882:	00000013          	nop
    80800886:	00000013          	nop
    8080088a:	00000013          	nop
    8080088e:	00000013          	nop
    80800892:	00000013          	nop
    80800896:	00000013          	nop
    8080089a:	00000013          	nop
    8080089e:	00000013          	nop
    808008a2:	00000013          	nop
    808008a6:	00000013          	nop
    808008aa:	00000013          	nop
    808008ae:	00000013          	nop
    808008b2:	00000013          	nop
    808008b6:	00000013          	nop
    808008ba:	00000013          	nop
    808008be:	00000013          	nop
    808008c2:	00000013          	nop
    808008c6:	00000013          	nop
    808008ca:	00000013          	nop
    808008ce:	00000013          	nop
    808008d2:	00000013          	nop
    808008d6:	00000013          	nop
    808008da:	00000013          	nop
    808008de:	00000013          	nop
    808008e2:	00000013          	nop
    808008e6:	00000013          	nop
    808008ea:	00000013          	nop
    808008ee:	00000013          	nop
    808008f2:	00000013          	nop
    808008f6:	00000013          	nop
    808008fa:	00000013          	nop
    808008fe:	00000013          	nop
    80800902:	00000013          	nop
    80800906:	00000013          	nop
    8080090a:	00000013          	nop
    8080090e:	00000013          	nop
    80800912:	00000013          	nop
    80800916:	00000013          	nop
    8080091a:	00000013          	nop
    8080091e:	00000013          	nop
    80800922:	00000013          	nop
    80800926:	00000013          	nop
    8080092a:	00000013          	nop
    8080092e:	00000013          	nop
    80800932:	00000013          	nop
    80800936:	00000013          	nop
    8080093a:	00000013          	nop
    8080093e:	00000013          	nop
    80800942:	00000013          	nop
    80800946:	00000013          	nop
    8080094a:	00000013          	nop
    8080094e:	00000013          	nop
    80800952:	00000013          	nop
    80800956:	00000013          	nop
    8080095a:	00000013          	nop
    8080095e:	00000013          	nop
    80800962:	00000013          	nop
    80800966:	00000013          	nop
    8080096a:	00000013          	nop
    8080096e:	00000013          	nop
    80800972:	00000013          	nop
    80800976:	00000013          	nop
    8080097a:	00000013          	nop
    8080097e:	00000013          	nop
    80800982:	00000013          	nop
    80800986:	00000013          	nop
    8080098a:	00000013          	nop
    8080098e:	00000013          	nop
    80800992:	00000013          	nop
    80800996:	00000013          	nop
    8080099a:	00000013          	nop
    8080099e:	00000013          	nop
    808009a2:	00000013          	nop
    808009a6:	00000013          	nop
    808009aa:	00000013          	nop
    808009ae:	00000013          	nop
    808009b2:	00000013          	nop
    808009b6:	00000013          	nop
    808009ba:	00000013          	nop
    808009be:	00000013          	nop
    808009c2:	00000013          	nop
    808009c6:	00000013          	nop
    808009ca:	00000013          	nop
    808009ce:	00000013          	nop
    808009d2:	00000013          	nop
    808009d6:	00000013          	nop
    808009da:	00000013          	nop
    808009de:	00000013          	nop
    808009e2:	00000013          	nop
    808009e6:	00000013          	nop
    808009ea:	00000013          	nop
    808009ee:	00000013          	nop
    808009f2:	00000013          	nop
    808009f6:	00000013          	nop
    808009fa:	00000013          	nop
    808009fe:	00000013          	nop
    80800a02:	00000013          	nop
    80800a06:	00000013          	nop
    80800a0a:	00000013          	nop
    80800a0e:	00000013          	nop
    80800a12:	00000013          	nop
    80800a16:	00000013          	nop
    80800a1a:	00000013          	nop
    80800a1e:	00000013          	nop
    80800a22:	00000013          	nop
    80800a26:	00000013          	nop
    80800a2a:	00000013          	nop
    80800a2e:	00000013          	nop
    80800a32:	00000013          	nop
    80800a36:	00000013          	nop
    80800a3a:	00000013          	nop
    80800a3e:	00000013          	nop
    80800a42:	00000013          	nop
    80800a46:	00000013          	nop
    80800a4a:	00000013          	nop
    80800a4e:	00000013          	nop
    80800a52:	00000013          	nop
    80800a56:	00000013          	nop
    80800a5a:	00000013          	nop
    80800a5e:	00000013          	nop
    80800a62:	00000013          	nop
    80800a66:	00000013          	nop
    80800a6a:	00000013          	nop
    80800a6e:	00000013          	nop
    80800a72:	00000013          	nop
    80800a76:	00000013          	nop
    80800a7a:	00000013          	nop
    80800a7e:	00000013          	nop
    80800a82:	00000013          	nop
    80800a86:	00000013          	nop
    80800a8a:	00000013          	nop
    80800a8e:	00000013          	nop
    80800a92:	00000013          	nop
    80800a96:	00000013          	nop
    80800a9a:	00000013          	nop
    80800a9e:	00000013          	nop
    80800aa2:	00000013          	nop
    80800aa6:	00000013          	nop
    80800aaa:	00000013          	nop
    80800aae:	00000013          	nop
    80800ab2:	00000013          	nop
    80800ab6:	00000013          	nop
    80800aba:	00000013          	nop
    80800abe:	00000013          	nop
    80800ac2:	00000013          	nop
    80800ac6:	00000013          	nop
    80800aca:	00000013          	nop
    80800ace:	00000013          	nop
    80800ad2:	00000013          	nop
    80800ad6:	00000013          	nop
    80800ada:	00000013          	nop
    80800ade:	00000013          	nop
    80800ae2:	00000013          	nop
    80800ae6:	00000013          	nop
    80800aea:	00000013          	nop
    80800aee:	00000013          	nop
    80800af2:	00000013          	nop
    80800af6:	00000013          	nop
    80800afa:	00000013          	nop
    80800afe:	00000013          	nop
    80800b02:	00000013          	nop
    80800b06:	00000013          	nop
    80800b0a:	00000013          	nop
    80800b0e:	00000013          	nop
    80800b12:	00000013          	nop
    80800b16:	00000013          	nop
    80800b1a:	00000013          	nop
    80800b1e:	00000013          	nop
    80800b22:	00000013          	nop
    80800b26:	00000013          	nop
    80800b2a:	00000013          	nop
    80800b2e:	00000013          	nop
    80800b32:	00000013          	nop
    80800b36:	00000013          	nop
    80800b3a:	00000013          	nop
    80800b3e:	00000013          	nop
    80800b42:	00000013          	nop
    80800b46:	00000013          	nop
    80800b4a:	00000013          	nop
    80800b4e:	00000013          	nop
    80800b52:	00000013          	nop
    80800b56:	00000013          	nop
    80800b5a:	00000013          	nop
    80800b5e:	00000013          	nop
    80800b62:	00000013          	nop
    80800b66:	00000013          	nop
    80800b6a:	00000013          	nop
    80800b6e:	00000013          	nop
    80800b72:	00000013          	nop
    80800b76:	00000013          	nop
    80800b7a:	00000013          	nop
    80800b7e:	00000013          	nop
    80800b82:	00000013          	nop
    80800b86:	00000013          	nop
    80800b8a:	00000013          	nop
    80800b8e:	00000013          	nop
    80800b92:	00000013          	nop
    80800b96:	00000013          	nop
    80800b9a:	00000013          	nop
    80800b9e:	00000013          	nop
    80800ba2:	00000013          	nop
    80800ba6:	00000013          	nop
    80800baa:	00000013          	nop
    80800bae:	00000013          	nop
    80800bb2:	00000013          	nop
    80800bb6:	00000013          	nop
    80800bba:	00000013          	nop
    80800bbe:	00000013          	nop
    80800bc2:	00000013          	nop
    80800bc6:	00000013          	nop
    80800bca:	00000013          	nop
    80800bce:	00000013          	nop
    80800bd2:	00000013          	nop
    80800bd6:	00000013          	nop
    80800bda:	00000013          	nop
    80800bde:	00000013          	nop
    80800be2:	00000013          	nop
    80800be6:	00000013          	nop
    80800bea:	00000013          	nop
    80800bee:	00000013          	nop
    80800bf2:	00000013          	nop
    80800bf6:	00000013          	nop
    80800bfa:	00000013          	nop
    80800bfe:	00000013          	nop
    80800c02:	00000013          	nop
    80800c06:	00000013          	nop
    80800c0a:	00000013          	nop
    80800c0e:	00000013          	nop
    80800c12:	00000013          	nop
    80800c16:	00000013          	nop
    80800c1a:	00000013          	nop
    80800c1e:	00000013          	nop
    80800c22:	00000013          	nop
    80800c26:	00000013          	nop
    80800c2a:	00000013          	nop
    80800c2e:	00000013          	nop
    80800c32:	00000013          	nop
    80800c36:	00000013          	nop
    80800c3a:	00000013          	nop
    80800c3e:	00000013          	nop
    80800c42:	00000013          	nop
    80800c46:	00000013          	nop
    80800c4a:	00000013          	nop
    80800c4e:	00000013          	nop
    80800c52:	00000013          	nop
    80800c56:	00000013          	nop
    80800c5a:	00000013          	nop
    80800c5e:	00000013          	nop
    80800c62:	00000013          	nop
    80800c66:	00000013          	nop
    80800c6a:	00000013          	nop
    80800c6e:	00000013          	nop
    80800c72:	00000013          	nop
    80800c76:	00000013          	nop
    80800c7a:	00000013          	nop
    80800c7e:	00000013          	nop
    80800c82:	00000013          	nop
    80800c86:	00000013          	nop
    80800c8a:	00000013          	nop
    80800c8e:	00000013          	nop
    80800c92:	00000013          	nop
    80800c96:	00000013          	nop
    80800c9a:	00000013          	nop
    80800c9e:	00000013          	nop
    80800ca2:	00000013          	nop
    80800ca6:	00000013          	nop
    80800caa:	00000013          	nop
    80800cae:	00000013          	nop
    80800cb2:	00000013          	nop
    80800cb6:	00000013          	nop
    80800cba:	00000013          	nop
    80800cbe:	00000013          	nop
    80800cc2:	00000013          	nop
    80800cc6:	00000013          	nop
    80800cca:	00000013          	nop
    80800cce:	00000013          	nop
    80800cd2:	00000013          	nop
    80800cd6:	00000013          	nop
    80800cda:	00000013          	nop
    80800cde:	00000013          	nop
    80800ce2:	00000013          	nop
    80800ce6:	00000013          	nop
    80800cea:	00000013          	nop
    80800cee:	00000013          	nop
    80800cf2:	00000013          	nop
    80800cf6:	00000013          	nop
    80800cfa:	00000013          	nop
    80800cfe:	00000013          	nop
    80800d02:	00000013          	nop
    80800d06:	00000013          	nop
    80800d0a:	00000013          	nop
    80800d0e:	00000013          	nop
    80800d12:	00000013          	nop
    80800d16:	00000013          	nop
    80800d1a:	00000013          	nop
    80800d1e:	00000013          	nop
    80800d22:	00000013          	nop
    80800d26:	00000013          	nop
    80800d2a:	00000013          	nop
    80800d2e:	00000013          	nop
    80800d32:	00000013          	nop
    80800d36:	00000013          	nop
    80800d3a:	00000013          	nop
    80800d3e:	00000013          	nop
    80800d42:	00000013          	nop
    80800d46:	00000013          	nop
    80800d4a:	00000013          	nop
    80800d4e:	00000013          	nop
    80800d52:	00000013          	nop
    80800d56:	00000013          	nop
    80800d5a:	00000013          	nop
    80800d5e:	00000013          	nop
    80800d62:	00000013          	nop
    80800d66:	00000013          	nop
    80800d6a:	00000013          	nop
    80800d6e:	00000013          	nop
    80800d72:	00000013          	nop
    80800d76:	00000013          	nop
    80800d7a:	00000013          	nop
    80800d7e:	00000013          	nop
    80800d82:	00000013          	nop
    80800d86:	00000013          	nop
    80800d8a:	00000013          	nop
    80800d8e:	00000013          	nop
    80800d92:	00000013          	nop
    80800d96:	00000013          	nop
    80800d9a:	00000013          	nop
    80800d9e:	00000013          	nop
    80800da2:	00000013          	nop
    80800da6:	00000013          	nop
    80800daa:	00000013          	nop
    80800dae:	00000013          	nop
    80800db2:	00000013          	nop
    80800db6:	00000013          	nop
    80800dba:	00000013          	nop
    80800dbe:	00000013          	nop
    80800dc2:	00000013          	nop
    80800dc6:	00000013          	nop
    80800dca:	00000013          	nop
    80800dce:	00000013          	nop
    80800dd2:	00000013          	nop
    80800dd6:	00000013          	nop
    80800dda:	00000013          	nop
    80800dde:	00000013          	nop
    80800de2:	00000013          	nop
    80800de6:	00000013          	nop
    80800dea:	00000013          	nop
    80800dee:	00000013          	nop
    80800df2:	00000013          	nop
    80800df6:	00000013          	nop
    80800dfa:	00000013          	nop
    80800dfe:	00000013          	nop
    80800e02:	00000013          	nop
    80800e06:	00000013          	nop
    80800e0a:	00000013          	nop
    80800e0e:	00000013          	nop
    80800e12:	00000013          	nop
    80800e16:	00000013          	nop
    80800e1a:	00000013          	nop
    80800e1e:	00000013          	nop
    80800e22:	00000013          	nop
    80800e26:	00000013          	nop
    80800e2a:	00000013          	nop
    80800e2e:	00000013          	nop
    80800e32:	00000013          	nop
    80800e36:	00000013          	nop
    80800e3a:	00000013          	nop
    80800e3e:	00000013          	nop
    80800e42:	00000013          	nop
    80800e46:	00000013          	nop
    80800e4a:	00000013          	nop
    80800e4e:	00000013          	nop
    80800e52:	00000013          	nop
    80800e56:	00000013          	nop
    80800e5a:	00000013          	nop
    80800e5e:	00000013          	nop
    80800e62:	00000013          	nop
    80800e66:	00000013          	nop
    80800e6a:	00000013          	nop
    80800e6e:	00000013          	nop
    80800e72:	00000013          	nop
    80800e76:	00000013          	nop
    80800e7a:	00000013          	nop
    80800e7e:	00000013          	nop
    80800e82:	00000013          	nop
    80800e86:	00000013          	nop
    80800e8a:	00000013          	nop
    80800e8e:	00000013          	nop
    80800e92:	00000013          	nop
    80800e96:	00000013          	nop
    80800e9a:	00000013          	nop
    80800e9e:	00000013          	nop
    80800ea2:	00000013          	nop
    80800ea6:	00000013          	nop
    80800eaa:	00000013          	nop
    80800eae:	00000013          	nop
    80800eb2:	00000013          	nop
    80800eb6:	00000013          	nop
    80800eba:	00000013          	nop
    80800ebe:	00000013          	nop
    80800ec2:	00000013          	nop
    80800ec6:	00000013          	nop
    80800eca:	00000013          	nop
    80800ece:	00000013          	nop
    80800ed2:	00000013          	nop
    80800ed6:	00000013          	nop
    80800eda:	00000013          	nop
    80800ede:	00000013          	nop
    80800ee2:	00000013          	nop
    80800ee6:	00000013          	nop
    80800eea:	00000013          	nop
    80800eee:	00000013          	nop
    80800ef2:	00000013          	nop
    80800ef6:	00000013          	nop
    80800efa:	00000013          	nop
    80800efe:	00000013          	nop
    80800f02:	00000013          	nop
    80800f06:	00000013          	nop
    80800f0a:	00000013          	nop
    80800f0e:	00000013          	nop
    80800f12:	00000013          	nop
    80800f16:	00000013          	nop
    80800f1a:	00000013          	nop
    80800f1e:	00000013          	nop
    80800f22:	00000013          	nop
    80800f26:	00000013          	nop
    80800f2a:	00000013          	nop
    80800f2e:	00000013          	nop
    80800f32:	00000013          	nop
    80800f36:	00000013          	nop
    80800f3a:	00000013          	nop
    80800f3e:	00000013          	nop
    80800f42:	00000013          	nop
    80800f46:	00000013          	nop
    80800f4a:	00000013          	nop
    80800f4e:	00000013          	nop
    80800f52:	00000013          	nop
    80800f56:	00000013          	nop
    80800f5a:	00000013          	nop
    80800f5e:	00000013          	nop
    80800f62:	00000013          	nop
    80800f66:	00000013          	nop
    80800f6a:	00000013          	nop
    80800f6e:	00000013          	nop
    80800f72:	00000013          	nop
    80800f76:	00000013          	nop
    80800f7a:	00000013          	nop
    80800f7e:	00000013          	nop
    80800f82:	00000013          	nop
    80800f86:	00000013          	nop
    80800f8a:	00000013          	nop
    80800f8e:	00000013          	nop
    80800f92:	00000013          	nop
    80800f96:	00000013          	nop
    80800f9a:	00000013          	nop
    80800f9e:	00000013          	nop
    80800fa2:	00000013          	nop
    80800fa6:	00000013          	nop
    80800faa:	00000013          	nop
    80800fae:	00000013          	nop
    80800fb2:	00000013          	nop
    80800fb6:	00000013          	nop
    80800fba:	00000013          	nop
    80800fbe:	00000013          	nop
    80800fc2:	00000013          	nop
    80800fc6:	00000013          	nop
    80800fca:	00000013          	nop
    80800fce:	00000013          	nop
    80800fd2:	00000013          	nop
    80800fd6:	00000013          	nop
    80800fda:	00000013          	nop
    80800fde:	00000013          	nop
    80800fe2:	00000013          	nop
    80800fe6:	00000013          	nop
    80800fea:	00000013          	nop
    80800fee:	00000013          	nop
    80800ff2:	00000013          	nop
    80800ff6:	00000013          	nop
    80800ffa:	00000013          	nop
    80800ffe:	00000013          	nop
    80801002:	00000013          	nop
    80801006:	00000013          	nop
    8080100a:	00000013          	nop
    8080100e:	00000013          	nop
    80801012:	00000013          	nop
    80801016:	00000013          	nop
    8080101a:	00000013          	nop
    8080101e:	00000013          	nop
    80801022:	00000013          	nop
    80801026:	00000013          	nop
    8080102a:	00000013          	nop
    8080102e:	00000013          	nop
    80801032:	00000013          	nop
    80801036:	00000013          	nop
    8080103a:	00000013          	nop
    8080103e:	00000013          	nop
    80801042:	00000013          	nop
    80801046:	00000013          	nop
    8080104a:	00000013          	nop
    8080104e:	00000013          	nop
    80801052:	00000013          	nop
    80801056:	00000013          	nop
    8080105a:	00000013          	nop
    8080105e:	00000013          	nop
    80801062:	00000013          	nop
    80801066:	00000013          	nop
    8080106a:	00000013          	nop
    8080106e:	00000013          	nop
    80801072:	00000013          	nop
    80801076:	00000013          	nop
    8080107a:	00000013          	nop
    8080107e:	00000013          	nop
    80801082:	00000013          	nop
    80801086:	00000013          	nop
    8080108a:	00000013          	nop
    8080108e:	00000013          	nop
    80801092:	00000013          	nop
    80801096:	00000013          	nop
    8080109a:	00000013          	nop
    8080109e:	00000013          	nop
    808010a2:	00000013          	nop
    808010a6:	00000013          	nop
    808010aa:	00000013          	nop
    808010ae:	00000013          	nop
    808010b2:	00000013          	nop
    808010b6:	00000013          	nop
    808010ba:	00000013          	nop
    808010be:	00000013          	nop
    808010c2:	00000013          	nop
    808010c6:	00000013          	nop
    808010ca:	00000013          	nop
    808010ce:	00000013          	nop
    808010d2:	00000013          	nop
    808010d6:	00000013          	nop
    808010da:	00000013          	nop
    808010de:	00000013          	nop
    808010e2:	00000013          	nop
    808010e6:	00000013          	nop
    808010ea:	00000013          	nop
    808010ee:	00000013          	nop
    808010f2:	00000013          	nop
    808010f6:	00000013          	nop
    808010fa:	00000013          	nop
    808010fe:	00000013          	nop
    80801102:	00000013          	nop
    80801106:	00000013          	nop
    8080110a:	00000013          	nop
    8080110e:	00000013          	nop
    80801112:	00000013          	nop
    80801116:	00000013          	nop
    8080111a:	00000013          	nop
    8080111e:	00000013          	nop
    80801122:	00000013          	nop
    80801126:	00000013          	nop
    8080112a:	00000013          	nop
    8080112e:	00000013          	nop
    80801132:	00000013          	nop
    80801136:	00000013          	nop
    8080113a:	00000013          	nop
    8080113e:	00000013          	nop
    80801142:	00000013          	nop
    80801146:	00000013          	nop
    8080114a:	00000013          	nop
    8080114e:	00000013          	nop
    80801152:	00000013          	nop
    80801156:	00000013          	nop
    8080115a:	00000013          	nop
    8080115e:	00000013          	nop
    80801162:	00000013          	nop
    80801166:	00000013          	nop
    8080116a:	00000013          	nop
    8080116e:	00000013          	nop
    80801172:	00000013          	nop
    80801176:	00000013          	nop
    8080117a:	00000013          	nop
    8080117e:	00000013          	nop
    80801182:	00000013          	nop
    80801186:	00000013          	nop
    8080118a:	00000013          	nop
    8080118e:	00000013          	nop
    80801192:	00000013          	nop
    80801196:	00000013          	nop
    8080119a:	00000013          	nop
    8080119e:	00000013          	nop
    808011a2:	00000013          	nop
    808011a6:	00000013          	nop
    808011aa:	00000013          	nop
    808011ae:	00000013          	nop
    808011b2:	00000013          	nop
    808011b6:	00000013          	nop
    808011ba:	00000013          	nop
    808011be:	00000013          	nop
    808011c2:	00000013          	nop
    808011c6:	00000013          	nop
    808011ca:	00000013          	nop
    808011ce:	00000013          	nop
    808011d2:	00000013          	nop
    808011d6:	00000013          	nop
    808011da:	00000013          	nop
    808011de:	00000013          	nop
    808011e2:	00000013          	nop
    808011e6:	00000013          	nop
    808011ea:	00000013          	nop
    808011ee:	00000013          	nop
    808011f2:	00000013          	nop
    808011f6:	00000013          	nop
    808011fa:	00000013          	nop
    808011fe:	00000013          	nop
    80801202:	00000013          	nop
    80801206:	00000013          	nop
    8080120a:	00000013          	nop
    8080120e:	00000013          	nop
    80801212:	00000013          	nop
    80801216:	00000013          	nop
    8080121a:	00000013          	nop
    8080121e:	00000013          	nop
    80801222:	00000013          	nop
    80801226:	00000013          	nop
    8080122a:	00000013          	nop
    8080122e:	00000013          	nop
    80801232:	00000013          	nop
    80801236:	00000013          	nop
    8080123a:	00000013          	nop
    8080123e:	00000013          	nop
    80801242:	00000013          	nop
    80801246:	00000013          	nop
    8080124a:	00000013          	nop
    8080124e:	00000013          	nop
    80801252:	00000013          	nop
    80801256:	00000013          	nop
    8080125a:	00000013          	nop
    8080125e:	00000013          	nop
    80801262:	00000013          	nop
    80801266:	00000013          	nop
    8080126a:	00000013          	nop
    8080126e:	00000013          	nop
    80801272:	00000013          	nop
    80801276:	00000013          	nop
    8080127a:	00000013          	nop
    8080127e:	00000013          	nop
    80801282:	00000013          	nop
    80801286:	00000013          	nop
    8080128a:	00000013          	nop
    8080128e:	00000013          	nop
    80801292:	00000013          	nop
    80801296:	00000013          	nop
    8080129a:	00000013          	nop
    8080129e:	00000013          	nop
    808012a2:	00000013          	nop
    808012a6:	00000013          	nop
    808012aa:	00000013          	nop
    808012ae:	00000013          	nop
    808012b2:	00000013          	nop
    808012b6:	00000013          	nop
    808012ba:	00000013          	nop
    808012be:	00000013          	nop
    808012c2:	00000013          	nop
    808012c6:	00000013          	nop
    808012ca:	00000013          	nop
    808012ce:	00000013          	nop
    808012d2:	00000013          	nop
    808012d6:	00000013          	nop
    808012da:	00000013          	nop
    808012de:	00000013          	nop
    808012e2:	00000013          	nop
    808012e6:	00000013          	nop
    808012ea:	00000013          	nop
    808012ee:	00000013          	nop
    808012f2:	00000013          	nop
    808012f6:	00000013          	nop
    808012fa:	00000013          	nop
    808012fe:	00000013          	nop
    80801302:	00000013          	nop
    80801306:	00000013          	nop
    8080130a:	00000013          	nop
    8080130e:	00000013          	nop
    80801312:	00000013          	nop
    80801316:	00000013          	nop
    8080131a:	00000013          	nop
    8080131e:	00000013          	nop
    80801322:	00000013          	nop
    80801326:	00000013          	nop
    8080132a:	00000013          	nop
    8080132e:	00000013          	nop
    80801332:	00000013          	nop
    80801336:	00000013          	nop
    8080133a:	00000013          	nop
    8080133e:	00000013          	nop
    80801342:	00000013          	nop
    80801346:	00000013          	nop
    8080134a:	00000013          	nop
    8080134e:	00000013          	nop
    80801352:	00000013          	nop
    80801356:	00000013          	nop
    8080135a:	00000013          	nop
    8080135e:	00000013          	nop
    80801362:	00000013          	nop
    80801366:	00000013          	nop
    8080136a:	00000013          	nop
    8080136e:	00000013          	nop
    80801372:	00000013          	nop
    80801376:	00000013          	nop
    8080137a:	00000013          	nop
    8080137e:	00000013          	nop
    80801382:	00000013          	nop
    80801386:	00000013          	nop
    8080138a:	00000013          	nop
    8080138e:	00000013          	nop
    80801392:	00000013          	nop
    80801396:	00000013          	nop
    8080139a:	00000013          	nop
    8080139e:	00000013          	nop
    808013a2:	00000013          	nop
    808013a6:	00000013          	nop
    808013aa:	00000013          	nop
    808013ae:	00000013          	nop
    808013b2:	00000013          	nop
    808013b6:	00000013          	nop
    808013ba:	00000013          	nop
    808013be:	00000013          	nop
    808013c2:	00000013          	nop
    808013c6:	00000013          	nop
    808013ca:	00000013          	nop
    808013ce:	00000013          	nop
    808013d2:	00000013          	nop
    808013d6:	00000013          	nop
    808013da:	00000013          	nop
    808013de:	00000013          	nop
    808013e2:	00000013          	nop
    808013e6:	00000013          	nop
    808013ea:	00000013          	nop
    808013ee:	00000013          	nop
    808013f2:	00000013          	nop
    808013f6:	00000013          	nop
    808013fa:	00000013          	nop
    808013fe:	00000013          	nop
    80801402:	00000013          	nop
    80801406:	00000013          	nop
    8080140a:	00000013          	nop
    8080140e:	00000013          	nop
    80801412:	00000013          	nop
    80801416:	00000013          	nop
    8080141a:	00000013          	nop
    8080141e:	00000013          	nop
    80801422:	00000013          	nop
    80801426:	00000013          	nop
    8080142a:	00000013          	nop
    8080142e:	00000013          	nop
    80801432:	00000013          	nop
    80801436:	00000013          	nop
    8080143a:	00000013          	nop
    8080143e:	00000013          	nop
    80801442:	00000013          	nop
    80801446:	00000013          	nop
    8080144a:	00000013          	nop
    8080144e:	00000013          	nop
    80801452:	00000013          	nop
    80801456:	00000013          	nop
    8080145a:	00000013          	nop
    8080145e:	00000013          	nop
    80801462:	00000013          	nop
    80801466:	00000013          	nop
    8080146a:	00000013          	nop
    8080146e:	00000013          	nop
    80801472:	00000013          	nop
    80801476:	00000013          	nop
    8080147a:	00000013          	nop
    8080147e:	00000013          	nop
    80801482:	00000013          	nop
    80801486:	00000013          	nop
    8080148a:	00000013          	nop
    8080148e:	00000013          	nop
    80801492:	00000013          	nop
    80801496:	00000013          	nop
    8080149a:	00000013          	nop
    8080149e:	00000013          	nop
    808014a2:	00000013          	nop
    808014a6:	00000013          	nop
    808014aa:	00000013          	nop
    808014ae:	00000013          	nop
    808014b2:	00000013          	nop
    808014b6:	00000013          	nop
    808014ba:	00000013          	nop
    808014be:	00000013          	nop
    808014c2:	00000013          	nop
    808014c6:	00000013          	nop
    808014ca:	00000013          	nop
    808014ce:	00000013          	nop
    808014d2:	00000013          	nop
    808014d6:	00000013          	nop
    808014da:	00000013          	nop
    808014de:	00000013          	nop
    808014e2:	00000013          	nop
    808014e6:	00000013          	nop
    808014ea:	00000013          	nop
    808014ee:	00000013          	nop
    808014f2:	00000013          	nop
    808014f6:	00000013          	nop
    808014fa:	00000013          	nop
    808014fe:	00000013          	nop
    80801502:	00000013          	nop
    80801506:	00000013          	nop
    8080150a:	00000013          	nop
    8080150e:	00000013          	nop
    80801512:	00000013          	nop
    80801516:	00000013          	nop
    8080151a:	00000013          	nop
    8080151e:	00000013          	nop
    80801522:	00000013          	nop
    80801526:	00000013          	nop
    8080152a:	00000013          	nop
    8080152e:	00000013          	nop
    80801532:	00000013          	nop
    80801536:	00000013          	nop
    8080153a:	00000013          	nop
    8080153e:	00000013          	nop
    80801542:	00000013          	nop
    80801546:	00000013          	nop
    8080154a:	00000013          	nop
    8080154e:	00000013          	nop
    80801552:	00000013          	nop
    80801556:	00000013          	nop
    8080155a:	00000013          	nop
    8080155e:	00000013          	nop
    80801562:	00000013          	nop
    80801566:	00000013          	nop
    8080156a:	00000013          	nop
    8080156e:	00000013          	nop
    80801572:	00000013          	nop
    80801576:	00000013          	nop
    8080157a:	00000013          	nop
    8080157e:	00000013          	nop
    80801582:	00000013          	nop
    80801586:	00000013          	nop
    8080158a:	00000013          	nop
    8080158e:	00000013          	nop
    80801592:	00000013          	nop
    80801596:	00000013          	nop
    8080159a:	00000013          	nop
    8080159e:	00000013          	nop
    808015a2:	00000013          	nop
    808015a6:	00000013          	nop
    808015aa:	00000013          	nop
    808015ae:	00000013          	nop
    808015b2:	00000013          	nop
    808015b6:	00000013          	nop
    808015ba:	00000013          	nop
    808015be:	00000013          	nop
    808015c2:	00000013          	nop
    808015c6:	00000013          	nop
    808015ca:	00000013          	nop
    808015ce:	00000013          	nop
    808015d2:	00000013          	nop
    808015d6:	00000013          	nop
    808015da:	00000013          	nop
    808015de:	00000013          	nop
    808015e2:	00000013          	nop
    808015e6:	00000013          	nop
    808015ea:	00000013          	nop
    808015ee:	00000013          	nop
    808015f2:	00000013          	nop
    808015f6:	00000013          	nop
    808015fa:	00000013          	nop
    808015fe:	00000013          	nop
    80801602:	00000013          	nop
    80801606:	00000013          	nop
    8080160a:	00000013          	nop
    8080160e:	00000013          	nop
    80801612:	00000013          	nop
    80801616:	00000013          	nop
    8080161a:	00000013          	nop
    8080161e:	00000013          	nop
    80801622:	00000013          	nop
    80801626:	00000013          	nop
    8080162a:	00000013          	nop
    8080162e:	00000013          	nop
    80801632:	00000013          	nop
    80801636:	00000013          	nop
    8080163a:	00000013          	nop
    8080163e:	00000013          	nop
    80801642:	00000013          	nop
    80801646:	00000013          	nop
    8080164a:	00000013          	nop
    8080164e:	00000013          	nop
    80801652:	00000013          	nop
    80801656:	00000013          	nop
    8080165a:	00000013          	nop
    8080165e:	00000013          	nop
    80801662:	00000013          	nop
    80801666:	00000013          	nop
    8080166a:	00000013          	nop
    8080166e:	00000013          	nop
    80801672:	00000013          	nop
    80801676:	00000013          	nop
    8080167a:	00000013          	nop
    8080167e:	00000013          	nop
    80801682:	00000013          	nop
    80801686:	00000013          	nop
    8080168a:	00000013          	nop
    8080168e:	00000013          	nop
    80801692:	00000013          	nop
    80801696:	00000013          	nop
    8080169a:	00000013          	nop
    8080169e:	00000013          	nop
    808016a2:	00000013          	nop
    808016a6:	00000013          	nop
    808016aa:	00000013          	nop
    808016ae:	00000013          	nop
    808016b2:	00000013          	nop
    808016b6:	00000013          	nop
    808016ba:	00000013          	nop
    808016be:	00000013          	nop
    808016c2:	00000013          	nop
    808016c6:	00000013          	nop
    808016ca:	00000013          	nop
    808016ce:	00000013          	nop
    808016d2:	00000013          	nop
    808016d6:	00000013          	nop
    808016da:	00000013          	nop
    808016de:	00000013          	nop
    808016e2:	00000013          	nop
    808016e6:	00000013          	nop
    808016ea:	00000013          	nop
    808016ee:	00000013          	nop
    808016f2:	00000013          	nop
    808016f6:	00000013          	nop
    808016fa:	00000013          	nop
    808016fe:	00000013          	nop
    80801702:	00000013          	nop
    80801706:	00000013          	nop
    8080170a:	00000013          	nop
    8080170e:	00000013          	nop
    80801712:	00000013          	nop
    80801716:	00000013          	nop
    8080171a:	00000013          	nop
    8080171e:	00000013          	nop
    80801722:	00000013          	nop
    80801726:	00000013          	nop
    8080172a:	00000013          	nop
    8080172e:	00000013          	nop
    80801732:	00000013          	nop
    80801736:	00000013          	nop
    8080173a:	00000013          	nop
    8080173e:	00000013          	nop
    80801742:	00000013          	nop
    80801746:	00000013          	nop
    8080174a:	00000013          	nop
    8080174e:	00000013          	nop
    80801752:	00000013          	nop
    80801756:	00000013          	nop
    8080175a:	00000013          	nop
    8080175e:	00000013          	nop
    80801762:	00000013          	nop
    80801766:	00000013          	nop
    8080176a:	00000013          	nop
    8080176e:	00000013          	nop
    80801772:	00000013          	nop
    80801776:	00000013          	nop
    8080177a:	00000013          	nop
    8080177e:	00000013          	nop
    80801782:	00000013          	nop
    80801786:	00000013          	nop
    8080178a:	00000013          	nop
    8080178e:	00000013          	nop
    80801792:	00000013          	nop
    80801796:	00000013          	nop
    8080179a:	00000013          	nop
    8080179e:	00000013          	nop
    808017a2:	00000013          	nop
    808017a6:	00000013          	nop
    808017aa:	00000013          	nop
    808017ae:	00000013          	nop
    808017b2:	00000013          	nop
    808017b6:	00000013          	nop
    808017ba:	00000013          	nop
    808017be:	00000013          	nop
    808017c2:	00000013          	nop
    808017c6:	00000013          	nop
    808017ca:	00000013          	nop
    808017ce:	00000013          	nop
    808017d2:	00000013          	nop
    808017d6:	00000013          	nop
    808017da:	00000013          	nop
    808017de:	00000013          	nop
    808017e2:	00000013          	nop
    808017e6:	00000013          	nop
    808017ea:	00000013          	nop
    808017ee:	00000013          	nop
    808017f2:	00000013          	nop
    808017f6:	00000013          	nop
    808017fa:	00000013          	nop
    808017fe:	00000013          	nop
    80801802:	00000013          	nop
    80801806:	00000013          	nop
    8080180a:	00000013          	nop
    8080180e:	00000013          	nop
    80801812:	00000013          	nop
    80801816:	00000013          	nop
    8080181a:	00000013          	nop
    8080181e:	00000013          	nop
    80801822:	00000013          	nop
    80801826:	00000013          	nop
    8080182a:	00000013          	nop
    8080182e:	00000013          	nop
    80801832:	00000013          	nop
    80801836:	00000013          	nop
    8080183a:	00000013          	nop
    8080183e:	00000013          	nop
    80801842:	00000013          	nop
    80801846:	00000013          	nop
    8080184a:	00000013          	nop
    8080184e:	00000013          	nop
    80801852:	00000013          	nop
    80801856:	00000013          	nop
    8080185a:	00000013          	nop
    8080185e:	00000013          	nop
    80801862:	00000013          	nop
    80801866:	00000013          	nop
    8080186a:	00000013          	nop
    8080186e:	00000013          	nop
    80801872:	00000013          	nop
    80801876:	00000013          	nop
    8080187a:	00000013          	nop
    8080187e:	00000013          	nop
    80801882:	00000013          	nop
    80801886:	00000013          	nop
    8080188a:	00000013          	nop
    8080188e:	00000013          	nop
    80801892:	00000013          	nop
    80801896:	00000013          	nop
    8080189a:	00000013          	nop
    8080189e:	00000013          	nop
    808018a2:	00000013          	nop
    808018a6:	00000013          	nop
    808018aa:	00000013          	nop
    808018ae:	00000013          	nop
    808018b2:	00000013          	nop
    808018b6:	00000013          	nop
    808018ba:	00000013          	nop
    808018be:	00000013          	nop
    808018c2:	00000013          	nop
    808018c6:	00000013          	nop
    808018ca:	00000013          	nop
    808018ce:	00000013          	nop
    808018d2:	00000013          	nop
    808018d6:	00000013          	nop
    808018da:	00000013          	nop
    808018de:	00000013          	nop
    808018e2:	00000013          	nop
    808018e6:	00000013          	nop
    808018ea:	00000013          	nop
    808018ee:	00000013          	nop
    808018f2:	00000013          	nop
    808018f6:	00000013          	nop
    808018fa:	00000013          	nop
    808018fe:	00000013          	nop
    80801902:	00000013          	nop
    80801906:	00000013          	nop
    8080190a:	00000013          	nop
    8080190e:	00000013          	nop
    80801912:	00000013          	nop
    80801916:	00000013          	nop
    8080191a:	00000013          	nop
    8080191e:	00000013          	nop
    80801922:	00000013          	nop
    80801926:	00000013          	nop
    8080192a:	00000013          	nop
    8080192e:	00000013          	nop
    80801932:	00000013          	nop
    80801936:	00000013          	nop
    8080193a:	00000013          	nop
    8080193e:	00000013          	nop
    80801942:	00000013          	nop
    80801946:	00000013          	nop
    8080194a:	00000013          	nop
    8080194e:	00000013          	nop
    80801952:	00000013          	nop
    80801956:	00000013          	nop
    8080195a:	00000013          	nop
    8080195e:	00000013          	nop
    80801962:	00000013          	nop
    80801966:	00000013          	nop
    8080196a:	00000013          	nop
    8080196e:	00000013          	nop
    80801972:	00000013          	nop
    80801976:	00000013          	nop
    8080197a:	00000013          	nop
    8080197e:	00000013          	nop
    80801982:	00000013          	nop
    80801986:	00000013          	nop
    8080198a:	00000013          	nop
    8080198e:	00000013          	nop
    80801992:	00000013          	nop
    80801996:	00000013          	nop
    8080199a:	00000013          	nop
    8080199e:	00000013          	nop
    808019a2:	00000013          	nop
    808019a6:	00000013          	nop
    808019aa:	00000013          	nop
    808019ae:	00000013          	nop
    808019b2:	00000013          	nop
    808019b6:	00000013          	nop
    808019ba:	00000013          	nop
    808019be:	00000013          	nop
    808019c2:	00000013          	nop
    808019c6:	00000013          	nop
    808019ca:	00000013          	nop
    808019ce:	00000013          	nop
    808019d2:	00000013          	nop
    808019d6:	00000013          	nop
    808019da:	00000013          	nop
    808019de:	00000013          	nop
    808019e2:	00000013          	nop
    808019e6:	00000013          	nop
    808019ea:	00000013          	nop
    808019ee:	00000013          	nop
    808019f2:	00000013          	nop
    808019f6:	00000013          	nop
    808019fa:	00000013          	nop
    808019fe:	00000013          	nop
    80801a02:	00000013          	nop
    80801a06:	00000013          	nop
    80801a0a:	00000013          	nop
    80801a0e:	00000013          	nop
    80801a12:	00000013          	nop
    80801a16:	00000013          	nop
    80801a1a:	00000013          	nop
    80801a1e:	00000013          	nop
    80801a22:	00000013          	nop
    80801a26:	00000013          	nop
    80801a2a:	00000013          	nop
    80801a2e:	00000013          	nop
    80801a32:	00000013          	nop
    80801a36:	00000013          	nop
    80801a3a:	00000013          	nop
    80801a3e:	00000013          	nop
    80801a42:	00000013          	nop
    80801a46:	00000013          	nop
    80801a4a:	00000013          	nop
    80801a4e:	00000013          	nop
    80801a52:	00000013          	nop
    80801a56:	00000013          	nop
    80801a5a:	00000013          	nop
    80801a5e:	00000013          	nop
    80801a62:	00000013          	nop
    80801a66:	00000013          	nop
    80801a6a:	00000013          	nop
    80801a6e:	00000013          	nop
    80801a72:	00000013          	nop
    80801a76:	00000013          	nop
    80801a7a:	00000013          	nop
    80801a7e:	00000013          	nop
    80801a82:	00000013          	nop
    80801a86:	00000013          	nop
    80801a8a:	00000013          	nop
    80801a8e:	00000013          	nop
    80801a92:	00000013          	nop
    80801a96:	00000013          	nop
    80801a9a:	00000013          	nop
    80801a9e:	00000013          	nop
    80801aa2:	00000013          	nop
    80801aa6:	00000013          	nop
    80801aaa:	00000013          	nop
    80801aae:	00000013          	nop
    80801ab2:	00000013          	nop
    80801ab6:	00000013          	nop
    80801aba:	00000013          	nop
    80801abe:	00000013          	nop
    80801ac2:	00000013          	nop
    80801ac6:	00000013          	nop
    80801aca:	00000013          	nop
    80801ace:	00000013          	nop
    80801ad2:	00000013          	nop
    80801ad6:	00000013          	nop
    80801ada:	00000013          	nop
    80801ade:	00000013          	nop
    80801ae2:	00000013          	nop
    80801ae6:	00000013          	nop
    80801aea:	00000013          	nop
    80801aee:	00000013          	nop
    80801af2:	00000013          	nop
    80801af6:	00000013          	nop
    80801afa:	00000013          	nop
    80801afe:	00000013          	nop
    80801b02:	00000013          	nop
    80801b06:	00000013          	nop
    80801b0a:	00000013          	nop
    80801b0e:	00000013          	nop
    80801b12:	00000013          	nop
    80801b16:	00000013          	nop
    80801b1a:	00000013          	nop
    80801b1e:	00000013          	nop
    80801b22:	00000013          	nop
    80801b26:	00000013          	nop
    80801b2a:	00000013          	nop
    80801b2e:	00000013          	nop
    80801b32:	00000013          	nop
    80801b36:	00000013          	nop
    80801b3a:	00000013          	nop
    80801b3e:	00000013          	nop
    80801b42:	00000013          	nop
    80801b46:	00000013          	nop
    80801b4a:	00000013          	nop
    80801b4e:	00000013          	nop
    80801b52:	00000013          	nop
    80801b56:	00000013          	nop
    80801b5a:	00000013          	nop
    80801b5e:	00000013          	nop
    80801b62:	00000013          	nop
    80801b66:	00000013          	nop
    80801b6a:	00000013          	nop
    80801b6e:	00000013          	nop
    80801b72:	00000013          	nop
    80801b76:	00000013          	nop
    80801b7a:	00000013          	nop
    80801b7e:	00000013          	nop
    80801b82:	00000013          	nop
    80801b86:	00000013          	nop
    80801b8a:	00000013          	nop
    80801b8e:	00000013          	nop
    80801b92:	00000013          	nop
    80801b96:	00000013          	nop
    80801b9a:	00000013          	nop
    80801b9e:	00000013          	nop
    80801ba2:	00000013          	nop
    80801ba6:	00000013          	nop
    80801baa:	00000013          	nop
    80801bae:	00000013          	nop
    80801bb2:	00000013          	nop
    80801bb6:	00000013          	nop
    80801bba:	00000013          	nop
    80801bbe:	00000013          	nop
    80801bc2:	00000013          	nop
    80801bc6:	00000013          	nop
    80801bca:	00000013          	nop
    80801bce:	00000013          	nop
    80801bd2:	00000013          	nop
    80801bd6:	00000013          	nop
    80801bda:	00000013          	nop
    80801bde:	00000013          	nop
    80801be2:	00000013          	nop
    80801be6:	00000013          	nop
    80801bea:	00000013          	nop
    80801bee:	00000013          	nop
    80801bf2:	00000013          	nop
    80801bf6:	00000013          	nop
    80801bfa:	00000013          	nop
    80801bfe:	00000013          	nop
    80801c02:	00000013          	nop
    80801c06:	00000013          	nop
    80801c0a:	00000013          	nop
    80801c0e:	00000013          	nop
    80801c12:	00000013          	nop
    80801c16:	00000013          	nop
    80801c1a:	00000013          	nop
    80801c1e:	00000013          	nop
    80801c22:	00000013          	nop
    80801c26:	00000013          	nop
    80801c2a:	00000013          	nop
    80801c2e:	00000013          	nop
    80801c32:	00000013          	nop
    80801c36:	00000013          	nop
    80801c3a:	00000013          	nop
    80801c3e:	00000013          	nop
    80801c42:	00000013          	nop
    80801c46:	00000013          	nop
    80801c4a:	00000013          	nop
    80801c4e:	00000013          	nop
    80801c52:	00000013          	nop
    80801c56:	00000013          	nop
    80801c5a:	00000013          	nop
    80801c5e:	00000013          	nop
    80801c62:	00000013          	nop
    80801c66:	00000013          	nop
    80801c6a:	00000013          	nop
    80801c6e:	00000013          	nop
    80801c72:	00000013          	nop
    80801c76:	00000013          	nop
    80801c7a:	00000013          	nop
    80801c7e:	00000013          	nop
    80801c82:	00000013          	nop
    80801c86:	00000013          	nop
    80801c8a:	00000013          	nop
    80801c8e:	00000013          	nop
    80801c92:	00000013          	nop
    80801c96:	00000013          	nop
    80801c9a:	00000013          	nop
    80801c9e:	00000013          	nop
    80801ca2:	00000013          	nop
    80801ca6:	00000013          	nop
    80801caa:	00000013          	nop
    80801cae:	00000013          	nop
    80801cb2:	00000013          	nop
    80801cb6:	00000013          	nop
    80801cba:	00000013          	nop
    80801cbe:	00000013          	nop
    80801cc2:	00000013          	nop
    80801cc6:	00000013          	nop
    80801cca:	00000013          	nop
    80801cce:	00000013          	nop
    80801cd2:	00000013          	nop
    80801cd6:	00000013          	nop
    80801cda:	00000013          	nop
    80801cde:	00000013          	nop
    80801ce2:	00000013          	nop
    80801ce6:	00000013          	nop
    80801cea:	00000013          	nop
    80801cee:	00000013          	nop
    80801cf2:	00000013          	nop
    80801cf6:	00000013          	nop
    80801cfa:	00000013          	nop
    80801cfe:	00000013          	nop
    80801d02:	00000013          	nop
    80801d06:	00000013          	nop
    80801d0a:	00000013          	nop
    80801d0e:	00000013          	nop
    80801d12:	00000013          	nop
    80801d16:	00000013          	nop
    80801d1a:	00000013          	nop
    80801d1e:	00000013          	nop
    80801d22:	00000013          	nop
    80801d26:	00000013          	nop
    80801d2a:	00000013          	nop
    80801d2e:	00000013          	nop
    80801d32:	00000013          	nop
    80801d36:	00000013          	nop
    80801d3a:	00000013          	nop
    80801d3e:	00000013          	nop
    80801d42:	00000013          	nop
    80801d46:	00000013          	nop
    80801d4a:	00000013          	nop
    80801d4e:	00000013          	nop
    80801d52:	00000013          	nop
    80801d56:	00000013          	nop
    80801d5a:	00000013          	nop
    80801d5e:	00000013          	nop
    80801d62:	00000013          	nop
    80801d66:	00000013          	nop
    80801d6a:	00000013          	nop
    80801d6e:	00000013          	nop
    80801d72:	00000013          	nop
    80801d76:	00000013          	nop
    80801d7a:	00000013          	nop
    80801d7e:	00000013          	nop
    80801d82:	00000013          	nop
    80801d86:	00000013          	nop
    80801d8a:	00000013          	nop
    80801d8e:	00000013          	nop
    80801d92:	00000013          	nop
    80801d96:	00000013          	nop
    80801d9a:	00000013          	nop
    80801d9e:	00000013          	nop
    80801da2:	00000013          	nop
    80801da6:	00000013          	nop
    80801daa:	00000013          	nop
    80801dae:	00000013          	nop
    80801db2:	00000013          	nop
    80801db6:	00000013          	nop
    80801dba:	00000013          	nop
    80801dbe:	00000013          	nop
    80801dc2:	00000013          	nop
    80801dc6:	00000013          	nop
    80801dca:	00000013          	nop
    80801dce:	00000013          	nop
    80801dd2:	00000013          	nop
    80801dd6:	00000013          	nop
    80801dda:	00000013          	nop
    80801dde:	00000013          	nop
    80801de2:	00000013          	nop
    80801de6:	00000013          	nop
    80801dea:	00000013          	nop
    80801dee:	00000013          	nop
    80801df2:	00000013          	nop
    80801df6:	00000013          	nop
    80801dfa:	00000013          	nop
    80801dfe:	00000013          	nop
    80801e02:	00000013          	nop
    80801e06:	00000013          	nop
    80801e0a:	00000013          	nop
    80801e0e:	00000013          	nop
    80801e12:	00000013          	nop
    80801e16:	00000013          	nop
    80801e1a:	00000013          	nop
    80801e1e:	00000013          	nop
    80801e22:	00000013          	nop
    80801e26:	00000013          	nop
    80801e2a:	00000013          	nop
    80801e2e:	00000013          	nop
    80801e32:	00000013          	nop
    80801e36:	00000013          	nop
    80801e3a:	00000013          	nop
    80801e3e:	00000013          	nop
    80801e42:	00000013          	nop
    80801e46:	00000013          	nop
    80801e4a:	00000013          	nop
    80801e4e:	00000013          	nop
    80801e52:	00000013          	nop
    80801e56:	00000013          	nop
    80801e5a:	00000013          	nop
    80801e5e:	00000013          	nop
    80801e62:	00000013          	nop
    80801e66:	00000013          	nop
    80801e6a:	00000013          	nop
    80801e6e:	00000013          	nop
    80801e72:	00000013          	nop
    80801e76:	00000013          	nop
    80801e7a:	00000013          	nop
    80801e7e:	00000013          	nop
    80801e82:	00000013          	nop
    80801e86:	00000013          	nop
    80801e8a:	00000013          	nop
    80801e8e:	00000013          	nop
    80801e92:	00000013          	nop
    80801e96:	00000013          	nop
    80801e9a:	00000013          	nop
    80801e9e:	00000013          	nop
    80801ea2:	00000013          	nop
    80801ea6:	00000013          	nop
    80801eaa:	00000013          	nop
    80801eae:	00000013          	nop
    80801eb2:	00000013          	nop
    80801eb6:	00000013          	nop
    80801eba:	00000013          	nop
    80801ebe:	00000013          	nop
    80801ec2:	00000013          	nop
    80801ec6:	00000013          	nop
    80801eca:	00000013          	nop
    80801ece:	00000013          	nop
    80801ed2:	00000013          	nop
    80801ed6:	00000013          	nop
    80801eda:	00000013          	nop
    80801ede:	00000013          	nop
    80801ee2:	00000013          	nop
    80801ee6:	00000013          	nop
    80801eea:	00000013          	nop
    80801eee:	00000013          	nop
    80801ef2:	00000013          	nop
    80801ef6:	00000013          	nop
    80801efa:	00000013          	nop
    80801efe:	00000013          	nop
    80801f02:	00000013          	nop
    80801f06:	00000013          	nop
    80801f0a:	00000013          	nop
    80801f0e:	00000013          	nop
    80801f12:	00000013          	nop
    80801f16:	00000013          	nop
    80801f1a:	00000013          	nop
    80801f1e:	00000013          	nop
    80801f22:	00000013          	nop
    80801f26:	00000013          	nop
    80801f2a:	00000013          	nop
    80801f2e:	00000013          	nop
    80801f32:	00000013          	nop
    80801f36:	00000013          	nop
    80801f3a:	00000013          	nop
    80801f3e:	00000013          	nop
    80801f42:	00000013          	nop
    80801f46:	00000013          	nop
    80801f4a:	00000013          	nop
    80801f4e:	00000013          	nop
    80801f52:	00000013          	nop
    80801f56:	00000013          	nop
    80801f5a:	00000013          	nop
    80801f5e:	00000013          	nop
    80801f62:	00000013          	nop
    80801f66:	00000013          	nop
    80801f6a:	00000013          	nop
    80801f6e:	00000013          	nop
    80801f72:	00000013          	nop
    80801f76:	00000013          	nop
    80801f7a:	00000013          	nop
    80801f7e:	00000013          	nop
    80801f82:	00000013          	nop
    80801f86:	00000013          	nop
    80801f8a:	00000013          	nop
    80801f8e:	00000013          	nop
    80801f92:	00000013          	nop
    80801f96:	00000013          	nop
    80801f9a:	00000013          	nop
    80801f9e:	00000013          	nop
    80801fa2:	00000013          	nop
    80801fa6:	00000013          	nop
    80801faa:	00000013          	nop
    80801fae:	00000013          	nop
    80801fb2:	00000013          	nop
    80801fb6:	00000013          	nop
    80801fba:	00000013          	nop
    80801fbe:	00000013          	nop
    80801fc2:	00000013          	nop
    80801fc6:	00000013          	nop
    80801fca:	00000013          	nop
    80801fce:	00000013          	nop
    80801fd2:	00000013          	nop
    80801fd6:	00000013          	nop
    80801fda:	00000013          	nop
    80801fde:	00000013          	nop
    80801fe2:	00000013          	nop
    80801fe6:	00000013          	nop
    80801fea:	00000013          	nop
    80801fee:	00000013          	nop
    80801ff2:	00000013          	nop
    80801ff6:	00000013          	nop
    80801ffa:	00000013          	nop
    80801ffe:	00000013          	nop
    80802002:	00000013          	nop
    80802006:	00000013          	nop
    8080200a:	00000013          	nop
    8080200e:	00000013          	nop
    80802012:	00000013          	nop
    80802016:	00000013          	nop
    8080201a:	00000013          	nop
    8080201e:	00000013          	nop
    80802022:	00000013          	nop
    80802026:	00000013          	nop
    8080202a:	00000013          	nop
    8080202e:	00000013          	nop
    80802032:	00000013          	nop
    80802036:	00000013          	nop
    8080203a:	00000013          	nop
    8080203e:	00000013          	nop
    80802042:	00000013          	nop
    80802046:	00000013          	nop
    8080204a:	00000013          	nop
    8080204e:	00000013          	nop
    80802052:	00000013          	nop
    80802056:	00000013          	nop
    8080205a:	00000013          	nop
    8080205e:	00000013          	nop
    80802062:	00000013          	nop
    80802066:	00000013          	nop
    8080206a:	00000013          	nop
    8080206e:	00000013          	nop
    80802072:	00000013          	nop
    80802076:	00000013          	nop
    8080207a:	00000013          	nop
    8080207e:	00000013          	nop
    80802082:	00000013          	nop
    80802086:	00000013          	nop
    8080208a:	00000013          	nop
    8080208e:	00000013          	nop
    80802092:	00000013          	nop
    80802096:	00000013          	nop
    8080209a:	00000013          	nop
    8080209e:	00000013          	nop
    808020a2:	00000013          	nop
    808020a6:	00000013          	nop
    808020aa:	00000013          	nop
    808020ae:	00000013          	nop
    808020b2:	00000013          	nop
    808020b6:	00000013          	nop
    808020ba:	00000013          	nop
    808020be:	00000013          	nop
    808020c2:	00000013          	nop
    808020c6:	00000013          	nop
    808020ca:	00000013          	nop
    808020ce:	00000013          	nop
    808020d2:	00000013          	nop
    808020d6:	00000013          	nop
    808020da:	00000013          	nop
    808020de:	00000013          	nop
    808020e2:	00000013          	nop
    808020e6:	00000013          	nop
    808020ea:	00000013          	nop
    808020ee:	00000013          	nop
    808020f2:	00000013          	nop
    808020f6:	00000013          	nop
    808020fa:	00000013          	nop
    808020fe:	00000013          	nop
    80802102:	00000013          	nop
    80802106:	00000013          	nop
    8080210a:	00000013          	nop
    8080210e:	00000013          	nop
    80802112:	00000013          	nop
    80802116:	00000013          	nop
    8080211a:	00000013          	nop
    8080211e:	00000013          	nop
    80802122:	00000013          	nop
    80802126:	00000013          	nop
    8080212a:	00000013          	nop
    8080212e:	00000013          	nop
    80802132:	00000013          	nop
    80802136:	00000013          	nop
    8080213a:	00000013          	nop
    8080213e:	00000013          	nop
    80802142:	00000013          	nop
    80802146:	00000013          	nop
    8080214a:	00000013          	nop
    8080214e:	00000013          	nop
    80802152:	00000013          	nop
    80802156:	00000013          	nop
    8080215a:	00000013          	nop
    8080215e:	00000013          	nop
    80802162:	00000013          	nop
    80802166:	00000013          	nop
    8080216a:	00000013          	nop
    8080216e:	00000013          	nop
    80802172:	00000013          	nop
    80802176:	00000013          	nop
    8080217a:	00000013          	nop
    8080217e:	00000013          	nop
    80802182:	00000013          	nop
    80802186:	00000013          	nop
    8080218a:	00000013          	nop
    8080218e:	00000013          	nop
    80802192:	00000013          	nop
    80802196:	00000013          	nop
    8080219a:	00000013          	nop
    8080219e:	00000013          	nop
    808021a2:	00000013          	nop
    808021a6:	00000013          	nop
    808021aa:	00000013          	nop
    808021ae:	00000013          	nop
    808021b2:	00000013          	nop
    808021b6:	00000013          	nop
    808021ba:	00000013          	nop
    808021be:	00000013          	nop
    808021c2:	00000013          	nop
    808021c6:	00000013          	nop
    808021ca:	00000013          	nop
    808021ce:	00000013          	nop
    808021d2:	00000013          	nop
    808021d6:	00000013          	nop
    808021da:	00000013          	nop
    808021de:	00000013          	nop
    808021e2:	00000013          	nop
    808021e6:	00000013          	nop
    808021ea:	00000013          	nop
    808021ee:	00000013          	nop
    808021f2:	00000013          	nop
    808021f6:	00000013          	nop
    808021fa:	00000013          	nop
    808021fe:	00000013          	nop
    80802202:	00000013          	nop
    80802206:	00000013          	nop
    8080220a:	00000013          	nop
    8080220e:	00000013          	nop
    80802212:	00000013          	nop
    80802216:	00000013          	nop
    8080221a:	00000013          	nop
    8080221e:	00000013          	nop
    80802222:	00000013          	nop
    80802226:	00000013          	nop
    8080222a:	00000013          	nop
    8080222e:	00000013          	nop
    80802232:	00000013          	nop
    80802236:	00000013          	nop
    8080223a:	00000013          	nop
    8080223e:	00000013          	nop
    80802242:	00000013          	nop
    80802246:	00000013          	nop
    8080224a:	00000013          	nop
    8080224e:	00000013          	nop
    80802252:	00000013          	nop
    80802256:	00000013          	nop
    8080225a:	00000013          	nop
    8080225e:	00000013          	nop
    80802262:	00000013          	nop
    80802266:	00000013          	nop
    8080226a:	00000013          	nop
    8080226e:	00000013          	nop
    80802272:	00000013          	nop
    80802276:	00000013          	nop
    8080227a:	00000013          	nop
    8080227e:	00000013          	nop
    80802282:	00000013          	nop
    80802286:	00000013          	nop
    8080228a:	00000013          	nop
    8080228e:	00000013          	nop
    80802292:	00000013          	nop
    80802296:	00000013          	nop
    8080229a:	00000013          	nop
    8080229e:	00000013          	nop
    808022a2:	00000013          	nop
    808022a6:	00000013          	nop
    808022aa:	00000013          	nop
    808022ae:	00000013          	nop
    808022b2:	00000013          	nop
    808022b6:	00000013          	nop
    808022ba:	00000013          	nop
    808022be:	00000013          	nop
    808022c2:	00000013          	nop
    808022c6:	00000013          	nop
    808022ca:	00000013          	nop
    808022ce:	00000013          	nop
    808022d2:	00000013          	nop
    808022d6:	00000013          	nop
    808022da:	00000013          	nop
    808022de:	00000013          	nop
    808022e2:	00000013          	nop
    808022e6:	00000013          	nop
    808022ea:	00000013          	nop
    808022ee:	00000013          	nop
    808022f2:	00000013          	nop
    808022f6:	00000013          	nop
    808022fa:	00000013          	nop
    808022fe:	00000013          	nop
    80802302:	00000013          	nop
    80802306:	00000013          	nop
    8080230a:	00000013          	nop
    8080230e:	00000013          	nop
    80802312:	00000013          	nop
    80802316:	00000013          	nop
    8080231a:	00000013          	nop
    8080231e:	00000013          	nop
    80802322:	00000013          	nop
    80802326:	00000013          	nop
    8080232a:	00000013          	nop
    8080232e:	00000013          	nop
    80802332:	00000013          	nop
    80802336:	00000013          	nop
    8080233a:	00000013          	nop
    8080233e:	00000013          	nop
    80802342:	00000013          	nop
    80802346:	00000013          	nop
    8080234a:	00000013          	nop
    8080234e:	00000013          	nop
    80802352:	00000013          	nop
    80802356:	00000013          	nop
    8080235a:	00000013          	nop
    8080235e:	00000013          	nop
    80802362:	00000013          	nop
    80802366:	00000013          	nop
    8080236a:	00000013          	nop
    8080236e:	00000013          	nop
    80802372:	00000013          	nop
    80802376:	00000013          	nop
    8080237a:	00000013          	nop
    8080237e:	00000013          	nop
    80802382:	00000013          	nop
    80802386:	00000013          	nop
    8080238a:	00000013          	nop
    8080238e:	00000013          	nop
    80802392:	00000013          	nop
    80802396:	00000013          	nop
    8080239a:	00000013          	nop
    8080239e:	00000013          	nop
    808023a2:	00000013          	nop
    808023a6:	00000013          	nop
    808023aa:	00000013          	nop
    808023ae:	00000013          	nop
    808023b2:	00000013          	nop
    808023b6:	00000013          	nop
    808023ba:	00000013          	nop
    808023be:	00000013          	nop
    808023c2:	00000013          	nop
    808023c6:	00000013          	nop
    808023ca:	00000013          	nop
    808023ce:	00000013          	nop
    808023d2:	00000013          	nop
    808023d6:	00000013          	nop
    808023da:	00000013          	nop
    808023de:	00000013          	nop
    808023e2:	00000013          	nop
    808023e6:	00000013          	nop
    808023ea:	00000013          	nop
    808023ee:	00000013          	nop
    808023f2:	00000013          	nop
    808023f6:	00000013          	nop
    808023fa:	00000013          	nop
    808023fe:	00000013          	nop
    80802402:	00000013          	nop
    80802406:	00000013          	nop
    8080240a:	00000013          	nop
    8080240e:	00000013          	nop
    80802412:	00000013          	nop
    80802416:	00000013          	nop
    8080241a:	00000013          	nop
    8080241e:	00000013          	nop
    80802422:	00000013          	nop
    80802426:	00000013          	nop
    8080242a:	00000013          	nop
    8080242e:	00000013          	nop
    80802432:	00000013          	nop
    80802436:	00000013          	nop
    8080243a:	00000013          	nop
    8080243e:	00000013          	nop
    80802442:	00000013          	nop
    80802446:	00000013          	nop
    8080244a:	00000013          	nop
    8080244e:	00000013          	nop
    80802452:	00000013          	nop
    80802456:	00000013          	nop
    8080245a:	00000013          	nop
    8080245e:	00000013          	nop
    80802462:	00000013          	nop
    80802466:	00000013          	nop
    8080246a:	00000013          	nop
    8080246e:	00000013          	nop
    80802472:	00000013          	nop
    80802476:	00000013          	nop
    8080247a:	00000013          	nop
    8080247e:	00000013          	nop
    80802482:	00000013          	nop
    80802486:	00000013          	nop
    8080248a:	00000013          	nop
    8080248e:	00000013          	nop
    80802492:	00000013          	nop
    80802496:	00000013          	nop
    8080249a:	00000013          	nop
    8080249e:	00000013          	nop
    808024a2:	00000013          	nop
    808024a6:	00000013          	nop
    808024aa:	00000013          	nop
    808024ae:	00000013          	nop
    808024b2:	00000013          	nop
    808024b6:	00000013          	nop
    808024ba:	00000013          	nop
    808024be:	00000013          	nop
    808024c2:	00000013          	nop
    808024c6:	00000013          	nop
    808024ca:	00000013          	nop
    808024ce:	00000013          	nop
    808024d2:	00000013          	nop
    808024d6:	00000013          	nop
    808024da:	00000013          	nop
    808024de:	00000013          	nop
    808024e2:	00000013          	nop
    808024e6:	00000013          	nop
    808024ea:	00000013          	nop
    808024ee:	00000013          	nop
    808024f2:	00000013          	nop
    808024f6:	00000013          	nop
    808024fa:	00000013          	nop
    808024fe:	00000013          	nop
    80802502:	00000013          	nop
    80802506:	00000013          	nop
    8080250a:	00000013          	nop
    8080250e:	00000013          	nop
    80802512:	00000013          	nop
    80802516:	00000013          	nop
    8080251a:	00000013          	nop
    8080251e:	00000013          	nop
    80802522:	00000013          	nop
    80802526:	00000013          	nop
    8080252a:	00000013          	nop
    8080252e:	00000013          	nop
    80802532:	00000013          	nop
    80802536:	00000013          	nop
    8080253a:	00000013          	nop
    8080253e:	00000013          	nop
    80802542:	00000013          	nop
    80802546:	00000013          	nop
    8080254a:	00000013          	nop
    8080254e:	00000013          	nop
    80802552:	00000013          	nop
    80802556:	00000013          	nop
    8080255a:	00000013          	nop
    8080255e:	00000013          	nop
    80802562:	00000013          	nop
    80802566:	00000013          	nop
    8080256a:	00000013          	nop
    8080256e:	00000013          	nop
    80802572:	00000013          	nop
    80802576:	00000013          	nop
    8080257a:	00000013          	nop
    8080257e:	00000013          	nop
    80802582:	00000013          	nop
    80802586:	00000013          	nop
    8080258a:	00000013          	nop
    8080258e:	00000013          	nop
    80802592:	00000013          	nop
    80802596:	00000013          	nop
    8080259a:	00000013          	nop
    8080259e:	00000013          	nop
    808025a2:	00000013          	nop
    808025a6:	00000013          	nop
    808025aa:	00000013          	nop
    808025ae:	00000013          	nop
    808025b2:	00000013          	nop
    808025b6:	00000013          	nop
    808025ba:	00000013          	nop
    808025be:	00000013          	nop
    808025c2:	00000013          	nop
    808025c6:	00000013          	nop
    808025ca:	00000013          	nop
    808025ce:	00000013          	nop
    808025d2:	00000013          	nop
    808025d6:	00000013          	nop
    808025da:	00000013          	nop
    808025de:	00000013          	nop
    808025e2:	00000013          	nop
    808025e6:	00000013          	nop
    808025ea:	00000013          	nop
    808025ee:	00000013          	nop
    808025f2:	00000013          	nop
    808025f6:	00000013          	nop
    808025fa:	00000013          	nop
    808025fe:	00000013          	nop
    80802602:	00000013          	nop
    80802606:	00000013          	nop
    8080260a:	00000013          	nop
    8080260e:	00000013          	nop
    80802612:	00000013          	nop
    80802616:	00000013          	nop
    8080261a:	00000013          	nop
    8080261e:	00000013          	nop
    80802622:	00000013          	nop
    80802626:	00000013          	nop
    8080262a:	00000013          	nop
    8080262e:	00000013          	nop
    80802632:	00000013          	nop
    80802636:	00000013          	nop
    8080263a:	00000013          	nop
    8080263e:	00000013          	nop
    80802642:	00000013          	nop
    80802646:	00000013          	nop
    8080264a:	00000013          	nop
    8080264e:	00000013          	nop
    80802652:	00000013          	nop
    80802656:	00000013          	nop
    8080265a:	00000013          	nop
    8080265e:	00000013          	nop
    80802662:	00000013          	nop
    80802666:	00000013          	nop
    8080266a:	00000013          	nop
    8080266e:	00000013          	nop
    80802672:	00000013          	nop
    80802676:	00000013          	nop
    8080267a:	00000013          	nop
    8080267e:	00000013          	nop
    80802682:	00000013          	nop
    80802686:	00000013          	nop
    8080268a:	00000013          	nop
    8080268e:	00000013          	nop
    80802692:	00000013          	nop
    80802696:	00000013          	nop
    8080269a:	00000013          	nop
    8080269e:	00000013          	nop
    808026a2:	00000013          	nop
    808026a6:	00000013          	nop
    808026aa:	00000013          	nop
    808026ae:	00000013          	nop
    808026b2:	00000013          	nop
    808026b6:	00000013          	nop
    808026ba:	00000013          	nop
    808026be:	00000013          	nop
    808026c2:	00000013          	nop
    808026c6:	00000013          	nop
    808026ca:	00000013          	nop
    808026ce:	00000013          	nop
    808026d2:	00000013          	nop
    808026d6:	00000013          	nop
    808026da:	00000013          	nop
    808026de:	00000013          	nop
    808026e2:	00000013          	nop
    808026e6:	00000013          	nop
    808026ea:	00000013          	nop
    808026ee:	00000013          	nop
    808026f2:	00000013          	nop
    808026f6:	00000013          	nop
    808026fa:	00000013          	nop
    808026fe:	00000013          	nop
    80802702:	00000013          	nop
    80802706:	00000013          	nop
    8080270a:	00000013          	nop
    8080270e:	00000013          	nop
    80802712:	00000013          	nop
    80802716:	00000013          	nop
    8080271a:	00000013          	nop
    8080271e:	00000013          	nop
    80802722:	00000013          	nop
    80802726:	00000013          	nop
    8080272a:	00000013          	nop
    8080272e:	00000013          	nop
    80802732:	00000013          	nop
    80802736:	00000013          	nop
    8080273a:	00000013          	nop
    8080273e:	00000013          	nop
    80802742:	00000013          	nop
    80802746:	00000013          	nop
    8080274a:	00000013          	nop
    8080274e:	00000013          	nop
    80802752:	00000013          	nop
    80802756:	00000013          	nop
    8080275a:	00000013          	nop
    8080275e:	00000013          	nop
    80802762:	00000013          	nop
    80802766:	00000013          	nop
    8080276a:	00000013          	nop
    8080276e:	00000013          	nop
    80802772:	00000013          	nop
    80802776:	00000013          	nop
    8080277a:	00000013          	nop
    8080277e:	00000013          	nop
    80802782:	00000013          	nop
    80802786:	00000013          	nop
    8080278a:	00000013          	nop
    8080278e:	00000013          	nop
    80802792:	00000013          	nop
    80802796:	00000013          	nop
    8080279a:	00000013          	nop
    8080279e:	00000013          	nop
    808027a2:	00000013          	nop
    808027a6:	00000013          	nop
    808027aa:	00000013          	nop
    808027ae:	00000013          	nop
    808027b2:	00000013          	nop
    808027b6:	00000013          	nop
    808027ba:	00000013          	nop
    808027be:	00000013          	nop
    808027c2:	00000013          	nop
    808027c6:	00000013          	nop
    808027ca:	00000013          	nop
    808027ce:	00000013          	nop
    808027d2:	00000013          	nop
    808027d6:	00000013          	nop
    808027da:	00000013          	nop
    808027de:	00000013          	nop
    808027e2:	00000013          	nop
    808027e6:	00000013          	nop
    808027ea:	00000013          	nop
    808027ee:	00000013          	nop
    808027f2:	00000013          	nop
    808027f6:	00000013          	nop
    808027fa:	00000013          	nop
    808027fe:	00000013          	nop
    80802802:	00000013          	nop
    80802806:	00000013          	nop
    8080280a:	00000013          	nop
    8080280e:	00000013          	nop
    80802812:	00000013          	nop
    80802816:	00000013          	nop
    8080281a:	00000013          	nop
    8080281e:	00000013          	nop
    80802822:	00000013          	nop
    80802826:	00000013          	nop
    8080282a:	00000013          	nop
    8080282e:	00000013          	nop
    80802832:	00000013          	nop
    80802836:	00000013          	nop
    8080283a:	00000013          	nop
    8080283e:	00000013          	nop
    80802842:	00000013          	nop
    80802846:	00000013          	nop
    8080284a:	00000013          	nop
    8080284e:	00000013          	nop
    80802852:	00000013          	nop
    80802856:	00000013          	nop
    8080285a:	00000013          	nop
    8080285e:	00000013          	nop
    80802862:	00000013          	nop
    80802866:	00000013          	nop
    8080286a:	00000013          	nop
    8080286e:	00000013          	nop
    80802872:	00000013          	nop
    80802876:	00000013          	nop
    8080287a:	00000013          	nop
    8080287e:	00000013          	nop
    80802882:	00000013          	nop
    80802886:	00000013          	nop
    8080288a:	00000013          	nop
    8080288e:	00000013          	nop
    80802892:	00000013          	nop
    80802896:	00000013          	nop
    8080289a:	00000013          	nop
    8080289e:	00000013          	nop
    808028a2:	00000013          	nop
    808028a6:	00000013          	nop
    808028aa:	00000013          	nop
    808028ae:	00000013          	nop
    808028b2:	00000013          	nop
    808028b6:	00000013          	nop
    808028ba:	00000013          	nop
    808028be:	00000013          	nop
    808028c2:	00000013          	nop
    808028c6:	00000013          	nop
    808028ca:	00000013          	nop
    808028ce:	00000013          	nop
    808028d2:	00000013          	nop
    808028d6:	00000013          	nop
    808028da:	00000013          	nop
    808028de:	00000013          	nop
    808028e2:	00000013          	nop
    808028e6:	00000013          	nop
    808028ea:	00000013          	nop
    808028ee:	00000013          	nop
    808028f2:	00000013          	nop
    808028f6:	00000013          	nop
    808028fa:	00000013          	nop
    808028fe:	00000013          	nop
    80802902:	00000013          	nop
    80802906:	00000013          	nop
    8080290a:	00000013          	nop
    8080290e:	00000013          	nop
    80802912:	00000013          	nop
    80802916:	00000013          	nop
    8080291a:	00000013          	nop
    8080291e:	00000013          	nop
    80802922:	00000013          	nop
    80802926:	00000013          	nop
    8080292a:	00000013          	nop
    8080292e:	00000013          	nop
    80802932:	00000013          	nop
    80802936:	00000013          	nop
    8080293a:	00000013          	nop
    8080293e:	00000013          	nop
    80802942:	00000013          	nop
    80802946:	00000013          	nop
    8080294a:	00000013          	nop
    8080294e:	00000013          	nop
    80802952:	00000013          	nop
    80802956:	00000013          	nop
    8080295a:	00000013          	nop
    8080295e:	00000013          	nop
    80802962:	00000013          	nop
    80802966:	00000013          	nop
    8080296a:	00000013          	nop
    8080296e:	00000013          	nop
    80802972:	00000013          	nop
    80802976:	00000013          	nop
    8080297a:	00000013          	nop
    8080297e:	00000013          	nop
    80802982:	00000013          	nop
    80802986:	00000013          	nop
    8080298a:	00000013          	nop
    8080298e:	00000013          	nop
    80802992:	00000013          	nop
    80802996:	00000013          	nop
    8080299a:	00000013          	nop
    8080299e:	00000013          	nop
    808029a2:	00000013          	nop
    808029a6:	00000013          	nop
    808029aa:	00000013          	nop
    808029ae:	00000013          	nop
    808029b2:	00000013          	nop
    808029b6:	00000013          	nop
    808029ba:	00000013          	nop
    808029be:	00000013          	nop
    808029c2:	00000013          	nop
    808029c6:	00000013          	nop
    808029ca:	00000013          	nop
    808029ce:	00000013          	nop
    808029d2:	00000013          	nop
    808029d6:	00000013          	nop
    808029da:	00000013          	nop
    808029de:	00000013          	nop
    808029e2:	00000013          	nop
    808029e6:	00000013          	nop
    808029ea:	00000013          	nop
    808029ee:	00000013          	nop
    808029f2:	00000013          	nop
    808029f6:	00000013          	nop
    808029fa:	00000013          	nop
    808029fe:	00000013          	nop
    80802a02:	00000013          	nop
    80802a06:	00000013          	nop
    80802a0a:	00000013          	nop
    80802a0e:	00000013          	nop
    80802a12:	00000013          	nop
    80802a16:	00000013          	nop
    80802a1a:	00000013          	nop
    80802a1e:	00000013          	nop
    80802a22:	00000013          	nop
    80802a26:	00000013          	nop
    80802a2a:	00000013          	nop
    80802a2e:	00000013          	nop
    80802a32:	00000013          	nop
    80802a36:	00000013          	nop
    80802a3a:	00000013          	nop
    80802a3e:	00000013          	nop
    80802a42:	00000013          	nop
    80802a46:	00000013          	nop
    80802a4a:	00000013          	nop
    80802a4e:	00000013          	nop
    80802a52:	00000013          	nop
    80802a56:	00000013          	nop
    80802a5a:	00000013          	nop
    80802a5e:	00000013          	nop
    80802a62:	00000013          	nop
    80802a66:	00000013          	nop
    80802a6a:	00000013          	nop
    80802a6e:	00000013          	nop
    80802a72:	00000013          	nop
    80802a76:	00000013          	nop
    80802a7a:	00000013          	nop
    80802a7e:	00000013          	nop
    80802a82:	00000013          	nop
    80802a86:	00000013          	nop
    80802a8a:	00000013          	nop
    80802a8e:	00000013          	nop
    80802a92:	00000013          	nop
    80802a96:	00000013          	nop
    80802a9a:	00000013          	nop
    80802a9e:	00000013          	nop
    80802aa2:	00000013          	nop
    80802aa6:	00000013          	nop
    80802aaa:	00000013          	nop
    80802aae:	00000013          	nop
    80802ab2:	00000013          	nop
    80802ab6:	00000013          	nop
    80802aba:	00000013          	nop
    80802abe:	00000013          	nop
    80802ac2:	00000013          	nop
    80802ac6:	00000013          	nop
    80802aca:	00000013          	nop
    80802ace:	00000013          	nop
    80802ad2:	00000013          	nop
    80802ad6:	00000013          	nop
    80802ada:	00000013          	nop
    80802ade:	00000013          	nop
    80802ae2:	00000013          	nop
    80802ae6:	00000013          	nop
    80802aea:	00000013          	nop
    80802aee:	00000013          	nop
    80802af2:	00000013          	nop
    80802af6:	00000013          	nop
    80802afa:	00000013          	nop
    80802afe:	00000013          	nop
    80802b02:	00000013          	nop
    80802b06:	00000013          	nop
    80802b0a:	00000013          	nop
    80802b0e:	00000013          	nop
    80802b12:	00000013          	nop
    80802b16:	00000013          	nop
    80802b1a:	00000013          	nop
    80802b1e:	00000013          	nop
    80802b22:	00000013          	nop
    80802b26:	00000013          	nop
    80802b2a:	00000013          	nop
    80802b2e:	00000013          	nop
    80802b32:	00000013          	nop
    80802b36:	00000013          	nop
    80802b3a:	00000013          	nop
    80802b3e:	00000013          	nop
    80802b42:	00000013          	nop
    80802b46:	00000013          	nop
    80802b4a:	00000013          	nop
    80802b4e:	00000013          	nop
    80802b52:	00000013          	nop
    80802b56:	00000013          	nop
    80802b5a:	00000013          	nop
    80802b5e:	00000013          	nop
    80802b62:	00000013          	nop
    80802b66:	00000013          	nop
    80802b6a:	00000013          	nop
    80802b6e:	00000013          	nop
    80802b72:	00000013          	nop
    80802b76:	00000013          	nop
    80802b7a:	00000013          	nop
    80802b7e:	00000013          	nop
    80802b82:	00000013          	nop
    80802b86:	00000013          	nop
    80802b8a:	00000013          	nop
    80802b8e:	00000013          	nop
    80802b92:	00000013          	nop
    80802b96:	00000013          	nop
    80802b9a:	00000013          	nop
    80802b9e:	00000013          	nop
    80802ba2:	00000013          	nop
    80802ba6:	00000013          	nop
    80802baa:	00000013          	nop
    80802bae:	00000013          	nop
    80802bb2:	00000013          	nop
    80802bb6:	00000013          	nop
    80802bba:	00000013          	nop
    80802bbe:	00000013          	nop
    80802bc2:	00000013          	nop
    80802bc6:	00000013          	nop
    80802bca:	00000013          	nop
    80802bce:	00000013          	nop
    80802bd2:	00000013          	nop
    80802bd6:	00000013          	nop
    80802bda:	00000013          	nop
    80802bde:	00000013          	nop
    80802be2:	00000013          	nop
    80802be6:	00000013          	nop
    80802bea:	00000013          	nop
    80802bee:	00000013          	nop
    80802bf2:	00000013          	nop
    80802bf6:	00000013          	nop
    80802bfa:	00000013          	nop
    80802bfe:	00000013          	nop
    80802c02:	00000013          	nop
    80802c06:	00000013          	nop
    80802c0a:	00000013          	nop
    80802c0e:	00000013          	nop
    80802c12:	00000013          	nop
    80802c16:	00000013          	nop
    80802c1a:	00000013          	nop
    80802c1e:	00000013          	nop
    80802c22:	00000013          	nop
    80802c26:	00000013          	nop
    80802c2a:	00000013          	nop
    80802c2e:	00000013          	nop
    80802c32:	00000013          	nop
    80802c36:	00000013          	nop
    80802c3a:	00000013          	nop
    80802c3e:	00000013          	nop
    80802c42:	00000013          	nop
    80802c46:	00000013          	nop
    80802c4a:	00000013          	nop
    80802c4e:	00000013          	nop
    80802c52:	00000013          	nop
    80802c56:	00000013          	nop
    80802c5a:	00000013          	nop
    80802c5e:	00000013          	nop
    80802c62:	00000013          	nop
    80802c66:	00000013          	nop
    80802c6a:	00000013          	nop
    80802c6e:	00000013          	nop
    80802c72:	00000013          	nop
    80802c76:	00000013          	nop
    80802c7a:	00000013          	nop
    80802c7e:	00000013          	nop
    80802c82:	00000013          	nop
    80802c86:	00000013          	nop
    80802c8a:	00000013          	nop
    80802c8e:	00000013          	nop
    80802c92:	00000013          	nop
    80802c96:	00000013          	nop
    80802c9a:	00000013          	nop
    80802c9e:	00000013          	nop
    80802ca2:	00000013          	nop
    80802ca6:	00000013          	nop
    80802caa:	00000013          	nop
    80802cae:	00000013          	nop
    80802cb2:	00000013          	nop
    80802cb6:	00000013          	nop
    80802cba:	00000013          	nop
    80802cbe:	00000013          	nop
    80802cc2:	00000013          	nop
    80802cc6:	00000013          	nop
    80802cca:	00000013          	nop
    80802cce:	00000013          	nop
    80802cd2:	00000013          	nop
    80802cd6:	00000013          	nop
    80802cda:	00000013          	nop
    80802cde:	00000013          	nop
    80802ce2:	00000013          	nop
    80802ce6:	00000013          	nop
    80802cea:	00000013          	nop
    80802cee:	00000013          	nop
    80802cf2:	00000013          	nop
    80802cf6:	00000013          	nop
    80802cfa:	00000013          	nop
    80802cfe:	00000013          	nop
    80802d02:	00000013          	nop
    80802d06:	00000013          	nop
    80802d0a:	00000013          	nop
    80802d0e:	00000013          	nop
    80802d12:	00000013          	nop
    80802d16:	00000013          	nop
    80802d1a:	00000013          	nop
    80802d1e:	00000013          	nop
    80802d22:	00000013          	nop
    80802d26:	00000013          	nop
    80802d2a:	00000013          	nop
    80802d2e:	00000013          	nop
    80802d32:	00000013          	nop
    80802d36:	00000013          	nop
    80802d3a:	00000013          	nop
    80802d3e:	00000013          	nop
    80802d42:	00000013          	nop
    80802d46:	00000013          	nop
    80802d4a:	00000013          	nop
    80802d4e:	00000013          	nop
    80802d52:	00000013          	nop
    80802d56:	00000013          	nop
    80802d5a:	00000013          	nop
    80802d5e:	00000013          	nop
    80802d62:	00000013          	nop
    80802d66:	00000013          	nop
    80802d6a:	00000013          	nop
    80802d6e:	00000013          	nop
    80802d72:	00000013          	nop
    80802d76:	00000013          	nop
    80802d7a:	00000013          	nop
    80802d7e:	00000013          	nop
    80802d82:	00000013          	nop
    80802d86:	00000013          	nop
    80802d8a:	00000013          	nop
    80802d8e:	00000013          	nop
    80802d92:	00000013          	nop
    80802d96:	00000013          	nop
    80802d9a:	00000013          	nop
    80802d9e:	00000013          	nop
    80802da2:	00000013          	nop
    80802da6:	00000013          	nop
    80802daa:	00000013          	nop
    80802dae:	00000013          	nop
    80802db2:	00000013          	nop
    80802db6:	00000013          	nop
    80802dba:	00000013          	nop
    80802dbe:	00000013          	nop
    80802dc2:	00000013          	nop
    80802dc6:	00000013          	nop
    80802dca:	00000013          	nop
    80802dce:	00000013          	nop
    80802dd2:	00000013          	nop
    80802dd6:	00000013          	nop
    80802dda:	00000013          	nop
    80802dde:	00000013          	nop
    80802de2:	00000013          	nop
    80802de6:	00000013          	nop
    80802dea:	00000013          	nop
    80802dee:	00000013          	nop
    80802df2:	00000013          	nop
    80802df6:	00000013          	nop
    80802dfa:	00000013          	nop
    80802dfe:	00000013          	nop
    80802e02:	00000013          	nop
    80802e06:	00000013          	nop
    80802e0a:	00000013          	nop
    80802e0e:	00000013          	nop
    80802e12:	00000013          	nop
    80802e16:	00000013          	nop
    80802e1a:	00000013          	nop
    80802e1e:	00000013          	nop
    80802e22:	00000013          	nop
    80802e26:	00000013          	nop
    80802e2a:	00000013          	nop
    80802e2e:	00000013          	nop
    80802e32:	00000013          	nop
    80802e36:	00000013          	nop
    80802e3a:	00000013          	nop
    80802e3e:	00000013          	nop
    80802e42:	00000013          	nop
    80802e46:	00000013          	nop
    80802e4a:	00000013          	nop
    80802e4e:	00000013          	nop
    80802e52:	00000013          	nop
    80802e56:	00000013          	nop
    80802e5a:	00000013          	nop
    80802e5e:	00000013          	nop
    80802e62:	00000013          	nop
    80802e66:	00000013          	nop
    80802e6a:	00000013          	nop
    80802e6e:	00000013          	nop
    80802e72:	00000013          	nop
    80802e76:	00000013          	nop
    80802e7a:	00000013          	nop
    80802e7e:	00000013          	nop
    80802e82:	00000013          	nop
    80802e86:	00000013          	nop
    80802e8a:	00000013          	nop
    80802e8e:	00000013          	nop
    80802e92:	00000013          	nop
    80802e96:	00000013          	nop
    80802e9a:	00000013          	nop
    80802e9e:	00000013          	nop
    80802ea2:	00000013          	nop
    80802ea6:	00000013          	nop
    80802eaa:	00000013          	nop
    80802eae:	00000013          	nop
    80802eb2:	00000013          	nop
    80802eb6:	00000013          	nop
    80802eba:	00000013          	nop
    80802ebe:	00000013          	nop
    80802ec2:	00000013          	nop
    80802ec6:	00000013          	nop
    80802eca:	00000013          	nop
    80802ece:	00000013          	nop
    80802ed2:	00000013          	nop
    80802ed6:	00000013          	nop
    80802eda:	00000013          	nop
    80802ede:	00000013          	nop
    80802ee2:	00000013          	nop
    80802ee6:	00000013          	nop
    80802eea:	00000013          	nop
    80802eee:	00000013          	nop
    80802ef2:	00000013          	nop
    80802ef6:	00000013          	nop
    80802efa:	00000013          	nop
    80802efe:	00000013          	nop
    80802f02:	00000013          	nop
    80802f06:	00000013          	nop
    80802f0a:	00000013          	nop
    80802f0e:	00000013          	nop
    80802f12:	00000013          	nop
    80802f16:	00000013          	nop
    80802f1a:	00000013          	nop
    80802f1e:	00000013          	nop
    80802f22:	00000013          	nop
    80802f26:	00000013          	nop
    80802f2a:	00000013          	nop
    80802f2e:	00000013          	nop
    80802f32:	00000013          	nop
    80802f36:	00000013          	nop
    80802f3a:	00000013          	nop
    80802f3e:	00000013          	nop
    80802f42:	00000013          	nop
    80802f46:	00000013          	nop
    80802f4a:	00000013          	nop
    80802f4e:	00000013          	nop
    80802f52:	00000013          	nop
    80802f56:	00000013          	nop
    80802f5a:	00000013          	nop
    80802f5e:	00000013          	nop
    80802f62:	00000013          	nop
    80802f66:	00000013          	nop
    80802f6a:	00000013          	nop
    80802f6e:	00000013          	nop
    80802f72:	00000013          	nop
    80802f76:	00000013          	nop
    80802f7a:	00000013          	nop
    80802f7e:	00000013          	nop
    80802f82:	00000013          	nop
    80802f86:	00000013          	nop
    80802f8a:	00000013          	nop
    80802f8e:	00000013          	nop
    80802f92:	00000013          	nop
    80802f96:	00000013          	nop
    80802f9a:	00000013          	nop
    80802f9e:	00000013          	nop
    80802fa2:	00000013          	nop
    80802fa6:	00000013          	nop
    80802faa:	00000013          	nop
    80802fae:	00000013          	nop
    80802fb2:	00000013          	nop
    80802fb6:	00000013          	nop
    80802fba:	00000013          	nop
    80802fbe:	00000013          	nop
    80802fc2:	00000013          	nop
    80802fc6:	00000013          	nop
    80802fca:	00000013          	nop
    80802fce:	00000013          	nop
    80802fd2:	00000013          	nop
    80802fd6:	00000013          	nop
    80802fda:	00000013          	nop
    80802fde:	00000013          	nop
    80802fe2:	00000013          	nop
    80802fe6:	00000013          	nop
    80802fea:	00000013          	nop
    80802fee:	00000013          	nop
    80802ff2:	00000013          	nop
    80802ff6:	00000013          	nop
    80802ffa:	00000013          	nop
    80802ffe:	00000013          	nop
    80803002:	00000013          	nop
    80803006:	00000013          	nop
    8080300a:	00000013          	nop
    8080300e:	00000013          	nop
    80803012:	00000013          	nop
    80803016:	00000013          	nop
    8080301a:	00000013          	nop
    8080301e:	00000013          	nop
    80803022:	00000013          	nop
    80803026:	00000013          	nop
    8080302a:	00000013          	nop
    8080302e:	00000013          	nop
    80803032:	00000013          	nop
    80803036:	00000013          	nop
    8080303a:	00000013          	nop
    8080303e:	00000013          	nop
    80803042:	00000013          	nop
    80803046:	00000013          	nop
    8080304a:	00000013          	nop
    8080304e:	00000013          	nop
    80803052:	00000013          	nop
    80803056:	00000013          	nop
    8080305a:	00000013          	nop
    8080305e:	00000013          	nop
    80803062:	00000013          	nop
    80803066:	00000013          	nop
    8080306a:	00000013          	nop
    8080306e:	00000013          	nop
    80803072:	00000013          	nop
    80803076:	00000013          	nop
    8080307a:	00000013          	nop
    8080307e:	00000013          	nop
    80803082:	00000013          	nop
    80803086:	00000013          	nop
    8080308a:	00000013          	nop
    8080308e:	00000013          	nop
    80803092:	00000013          	nop
    80803096:	00000013          	nop
    8080309a:	00000013          	nop
    8080309e:	00000013          	nop
    808030a2:	00000013          	nop
    808030a6:	00000013          	nop
    808030aa:	00000013          	nop
    808030ae:	00000013          	nop
    808030b2:	00000013          	nop
    808030b6:	00000013          	nop
    808030ba:	00000013          	nop
    808030be:	00000013          	nop
    808030c2:	00000013          	nop
    808030c6:	00000013          	nop
    808030ca:	00000013          	nop
    808030ce:	00000013          	nop
    808030d2:	00000013          	nop
    808030d6:	00000013          	nop
    808030da:	00000013          	nop
    808030de:	00000013          	nop
    808030e2:	00000013          	nop
    808030e6:	00000013          	nop
    808030ea:	00000013          	nop
    808030ee:	00000013          	nop
    808030f2:	00000013          	nop
    808030f6:	00000013          	nop
    808030fa:	00000013          	nop
    808030fe:	00000013          	nop
    80803102:	00000013          	nop
    80803106:	00000013          	nop
    8080310a:	00000013          	nop
    8080310e:	00000013          	nop
    80803112:	00000013          	nop
    80803116:	00000013          	nop
    8080311a:	00000013          	nop
    8080311e:	00000013          	nop
    80803122:	00000013          	nop
    80803126:	00000013          	nop
    8080312a:	00000013          	nop
    8080312e:	00000013          	nop
    80803132:	00000013          	nop
    80803136:	00000013          	nop
    8080313a:	00000013          	nop
    8080313e:	00000013          	nop
    80803142:	00000013          	nop
    80803146:	00000013          	nop
    8080314a:	00000013          	nop
    8080314e:	00000013          	nop
    80803152:	00000013          	nop
    80803156:	00000013          	nop
    8080315a:	00000013          	nop
    8080315e:	00000013          	nop
    80803162:	00000013          	nop
    80803166:	00000013          	nop
    8080316a:	00000013          	nop
    8080316e:	00000013          	nop
    80803172:	00000013          	nop
    80803176:	00000013          	nop
    8080317a:	00000013          	nop
    8080317e:	00000013          	nop
    80803182:	00000013          	nop
    80803186:	00000013          	nop
    8080318a:	00000013          	nop
    8080318e:	00000013          	nop
    80803192:	00000013          	nop
    80803196:	00000013          	nop
    8080319a:	00000013          	nop
    8080319e:	00000013          	nop
    808031a2:	00000013          	nop
    808031a6:	00000013          	nop
    808031aa:	00000013          	nop
    808031ae:	00000013          	nop
    808031b2:	00000013          	nop
    808031b6:	00000013          	nop
    808031ba:	00000013          	nop
    808031be:	00000013          	nop
    808031c2:	00000013          	nop
    808031c6:	00000013          	nop
    808031ca:	00000013          	nop
    808031ce:	00000013          	nop
    808031d2:	00000013          	nop
    808031d6:	00000013          	nop
    808031da:	00000013          	nop
    808031de:	00000013          	nop
    808031e2:	00000013          	nop
    808031e6:	00000013          	nop
    808031ea:	00000013          	nop
    808031ee:	00000013          	nop
    808031f2:	00000013          	nop
    808031f6:	00000013          	nop
    808031fa:	00000013          	nop
    808031fe:	00000013          	nop
    80803202:	00000013          	nop
    80803206:	00000013          	nop
    8080320a:	00000013          	nop
    8080320e:	00000013          	nop
    80803212:	00000013          	nop
    80803216:	00000013          	nop
    8080321a:	00000013          	nop
    8080321e:	00000013          	nop
    80803222:	00000013          	nop
    80803226:	00000013          	nop
    8080322a:	00000013          	nop
    8080322e:	00000013          	nop
    80803232:	00000013          	nop
    80803236:	00000013          	nop
    8080323a:	00000013          	nop
    8080323e:	00000013          	nop
    80803242:	00000013          	nop
    80803246:	00000013          	nop
    8080324a:	00000013          	nop
    8080324e:	00000013          	nop
    80803252:	00000013          	nop
    80803256:	00000013          	nop
    8080325a:	00000013          	nop
    8080325e:	00000013          	nop
    80803262:	00000013          	nop
    80803266:	00000013          	nop
    8080326a:	00000013          	nop
    8080326e:	00000013          	nop
    80803272:	00000013          	nop
    80803276:	00000013          	nop
    8080327a:	00000013          	nop
    8080327e:	00000013          	nop
    80803282:	00000013          	nop
    80803286:	00000013          	nop
    8080328a:	00000013          	nop
    8080328e:	00000013          	nop
    80803292:	00000013          	nop
    80803296:	00000013          	nop
    8080329a:	00000013          	nop
    8080329e:	00000013          	nop
    808032a2:	00000013          	nop
    808032a6:	00000013          	nop
    808032aa:	00000013          	nop
    808032ae:	00000013          	nop
    808032b2:	00000013          	nop
    808032b6:	00000013          	nop
    808032ba:	00000013          	nop
    808032be:	00000013          	nop
    808032c2:	00000013          	nop
    808032c6:	00000013          	nop
    808032ca:	00000013          	nop
    808032ce:	00000013          	nop
    808032d2:	00000013          	nop
    808032d6:	00000013          	nop
    808032da:	00000013          	nop
    808032de:	00000013          	nop
    808032e2:	00000013          	nop
    808032e6:	00000013          	nop
    808032ea:	00000013          	nop
    808032ee:	00000013          	nop
    808032f2:	00000013          	nop
    808032f6:	00000013          	nop
    808032fa:	00000013          	nop
    808032fe:	00000013          	nop
    80803302:	00000013          	nop
    80803306:	00000013          	nop
    8080330a:	00000013          	nop
    8080330e:	00000013          	nop
    80803312:	00000013          	nop
    80803316:	00000013          	nop
    8080331a:	00000013          	nop
    8080331e:	00000013          	nop
    80803322:	00000013          	nop
    80803326:	00000013          	nop
    8080332a:	00000013          	nop
    8080332e:	00000013          	nop
    80803332:	00000013          	nop
    80803336:	00000013          	nop
    8080333a:	00000013          	nop
    8080333e:	00000013          	nop
    80803342:	00000013          	nop
    80803346:	00000013          	nop
    8080334a:	00000013          	nop
    8080334e:	00000013          	nop
    80803352:	00000013          	nop
    80803356:	00000013          	nop
    8080335a:	00000013          	nop
    8080335e:	00000013          	nop
    80803362:	00000013          	nop
    80803366:	00000013          	nop
    8080336a:	00000013          	nop
    8080336e:	00000013          	nop
    80803372:	00000013          	nop
    80803376:	00000013          	nop
    8080337a:	00000013          	nop
    8080337e:	00000013          	nop
    80803382:	00000013          	nop
    80803386:	00000013          	nop
    8080338a:	00000013          	nop
    8080338e:	00000013          	nop
    80803392:	00000013          	nop
    80803396:	00000013          	nop
    8080339a:	00000013          	nop
    8080339e:	00000013          	nop
    808033a2:	00000013          	nop
    808033a6:	00000013          	nop
    808033aa:	00000013          	nop
    808033ae:	00000013          	nop
    808033b2:	00000013          	nop
    808033b6:	00000013          	nop
    808033ba:	00000013          	nop
    808033be:	00000013          	nop
    808033c2:	00000013          	nop
    808033c6:	00000013          	nop
    808033ca:	00000013          	nop
    808033ce:	00000013          	nop
    808033d2:	00000013          	nop
    808033d6:	00000013          	nop
    808033da:	00000013          	nop
    808033de:	00000013          	nop
    808033e2:	00000013          	nop
    808033e6:	00000013          	nop
    808033ea:	00000013          	nop
    808033ee:	00000013          	nop
    808033f2:	00000013          	nop
    808033f6:	00000013          	nop
    808033fa:	00000013          	nop
    808033fe:	00000013          	nop
    80803402:	00000013          	nop
    80803406:	00000013          	nop
    8080340a:	00000013          	nop
    8080340e:	00000013          	nop
    80803412:	00000013          	nop
    80803416:	00000013          	nop
    8080341a:	00000013          	nop
    8080341e:	00000013          	nop
    80803422:	00000013          	nop
    80803426:	00000013          	nop
    8080342a:	00000013          	nop
    8080342e:	00000013          	nop
    80803432:	00000013          	nop
    80803436:	00000013          	nop
    8080343a:	00000013          	nop
    8080343e:	00000013          	nop
    80803442:	00000013          	nop
    80803446:	00000013          	nop
    8080344a:	00000013          	nop
    8080344e:	00000013          	nop
    80803452:	00000013          	nop
    80803456:	00000013          	nop
    8080345a:	00000013          	nop
    8080345e:	00000013          	nop
    80803462:	00000013          	nop
    80803466:	00000013          	nop
    8080346a:	00000013          	nop
    8080346e:	00000013          	nop
    80803472:	00000013          	nop
    80803476:	00000013          	nop
    8080347a:	00000013          	nop
    8080347e:	00000013          	nop
    80803482:	00000013          	nop
    80803486:	00000013          	nop
    8080348a:	00000013          	nop
    8080348e:	00000013          	nop
    80803492:	00000013          	nop
    80803496:	00000013          	nop
    8080349a:	00000013          	nop
    8080349e:	00000013          	nop
    808034a2:	00000013          	nop
    808034a6:	00000013          	nop
    808034aa:	00000013          	nop
    808034ae:	00000013          	nop
    808034b2:	00000013          	nop
    808034b6:	00000013          	nop
    808034ba:	00000013          	nop
    808034be:	00000013          	nop
    808034c2:	00000013          	nop
    808034c6:	00000013          	nop
    808034ca:	00000013          	nop
    808034ce:	00000013          	nop
    808034d2:	00000013          	nop
    808034d6:	00000013          	nop
    808034da:	00000013          	nop
    808034de:	00000013          	nop
    808034e2:	00000013          	nop
    808034e6:	00000013          	nop
    808034ea:	00000013          	nop
    808034ee:	00000013          	nop
    808034f2:	00000013          	nop
    808034f6:	00000013          	nop
    808034fa:	00000013          	nop
    808034fe:	00000013          	nop
    80803502:	00000013          	nop
    80803506:	00000013          	nop
    8080350a:	00000013          	nop
    8080350e:	00000013          	nop
    80803512:	00000013          	nop
    80803516:	00000013          	nop
    8080351a:	00000013          	nop
    8080351e:	00000013          	nop
    80803522:	00000013          	nop
    80803526:	00000013          	nop
    8080352a:	00000013          	nop
    8080352e:	00000013          	nop
    80803532:	00000013          	nop
    80803536:	00000013          	nop
    8080353a:	00000013          	nop
    8080353e:	00000013          	nop
    80803542:	00000013          	nop
    80803546:	00000013          	nop
    8080354a:	00000013          	nop
    8080354e:	00000013          	nop
    80803552:	00000013          	nop
    80803556:	00000013          	nop
    8080355a:	00000013          	nop
    8080355e:	00000013          	nop
    80803562:	00000013          	nop
    80803566:	00000013          	nop
    8080356a:	00000013          	nop
    8080356e:	00000013          	nop
    80803572:	00000013          	nop
    80803576:	00000013          	nop
    8080357a:	00000013          	nop
    8080357e:	00000013          	nop
    80803582:	00000013          	nop
    80803586:	00000013          	nop
    8080358a:	00000013          	nop
    8080358e:	00000013          	nop
    80803592:	00000013          	nop
    80803596:	00000013          	nop
    8080359a:	00000013          	nop
    8080359e:	00000013          	nop
    808035a2:	00000013          	nop
    808035a6:	00000013          	nop
    808035aa:	00000013          	nop
    808035ae:	00000013          	nop
    808035b2:	00000013          	nop
    808035b6:	00000013          	nop
    808035ba:	00000013          	nop
    808035be:	00000013          	nop
    808035c2:	00000013          	nop
    808035c6:	00000013          	nop
    808035ca:	00000013          	nop
    808035ce:	00000013          	nop
    808035d2:	00000013          	nop
    808035d6:	00000013          	nop
    808035da:	00000013          	nop
    808035de:	00000013          	nop
    808035e2:	00000013          	nop
    808035e6:	00000013          	nop
    808035ea:	00000013          	nop
    808035ee:	00000013          	nop
    808035f2:	00000013          	nop
    808035f6:	00000013          	nop
    808035fa:	00000013          	nop
    808035fe:	00000013          	nop
    80803602:	00000013          	nop
    80803606:	00000013          	nop
    8080360a:	00000013          	nop
    8080360e:	00000013          	nop
    80803612:	00000013          	nop
    80803616:	00000013          	nop
    8080361a:	00000013          	nop
    8080361e:	00000013          	nop
    80803622:	00000013          	nop
    80803626:	00000013          	nop
    8080362a:	00000013          	nop
    8080362e:	00000013          	nop
    80803632:	00000013          	nop
    80803636:	00000013          	nop
    8080363a:	00000013          	nop
    8080363e:	00000013          	nop
    80803642:	00000013          	nop
    80803646:	00000013          	nop
    8080364a:	00000013          	nop
    8080364e:	00000013          	nop
    80803652:	00000013          	nop
    80803656:	00000013          	nop
    8080365a:	00000013          	nop
    8080365e:	00000013          	nop
    80803662:	00000013          	nop
    80803666:	00000013          	nop
    8080366a:	00000013          	nop
    8080366e:	00000013          	nop
    80803672:	00000013          	nop
    80803676:	00000013          	nop
    8080367a:	00000013          	nop
    8080367e:	00000013          	nop
    80803682:	00000013          	nop
    80803686:	00000013          	nop
    8080368a:	00000013          	nop
    8080368e:	00000013          	nop
    80803692:	00000013          	nop
    80803696:	00000013          	nop
    8080369a:	00000013          	nop
    8080369e:	00000013          	nop
    808036a2:	00000013          	nop
    808036a6:	00000013          	nop
    808036aa:	00000013          	nop
    808036ae:	00000013          	nop
    808036b2:	00000013          	nop
    808036b6:	00000013          	nop
    808036ba:	00000013          	nop
    808036be:	00000013          	nop
    808036c2:	00000013          	nop
    808036c6:	00000013          	nop
    808036ca:	00000013          	nop
    808036ce:	00000013          	nop
    808036d2:	00000013          	nop
    808036d6:	00000013          	nop
    808036da:	00000013          	nop
    808036de:	00000013          	nop
    808036e2:	00000013          	nop
    808036e6:	00000013          	nop
    808036ea:	00000013          	nop
    808036ee:	00000013          	nop
    808036f2:	00000013          	nop
    808036f6:	00000013          	nop
    808036fa:	00000013          	nop
    808036fe:	00000013          	nop
    80803702:	00000013          	nop
    80803706:	00000013          	nop
    8080370a:	00000013          	nop
    8080370e:	00000013          	nop
    80803712:	00000013          	nop
    80803716:	00000013          	nop
    8080371a:	00000013          	nop
    8080371e:	00000013          	nop
    80803722:	00000013          	nop
    80803726:	00000013          	nop
    8080372a:	00000013          	nop
    8080372e:	00000013          	nop
    80803732:	00000013          	nop
    80803736:	00000013          	nop
    8080373a:	00000013          	nop
    8080373e:	00000013          	nop
    80803742:	00000013          	nop
    80803746:	00000013          	nop
    8080374a:	00000013          	nop
    8080374e:	00000013          	nop
    80803752:	00000013          	nop
    80803756:	00000013          	nop
    8080375a:	00000013          	nop
    8080375e:	00000013          	nop
    80803762:	00000013          	nop
    80803766:	00000013          	nop
    8080376a:	00000013          	nop
    8080376e:	00000013          	nop
    80803772:	00000013          	nop
    80803776:	00000013          	nop
    8080377a:	00000013          	nop
    8080377e:	00000013          	nop
    80803782:	00000013          	nop
    80803786:	00000013          	nop
    8080378a:	00000013          	nop
    8080378e:	00000013          	nop
    80803792:	00000013          	nop
    80803796:	00000013          	nop
    8080379a:	00000013          	nop
    8080379e:	00000013          	nop
    808037a2:	00000013          	nop
    808037a6:	00000013          	nop
    808037aa:	00000013          	nop
    808037ae:	00000013          	nop
    808037b2:	00000013          	nop
    808037b6:	00000013          	nop
    808037ba:	00000013          	nop
    808037be:	00000013          	nop
    808037c2:	00000013          	nop
    808037c6:	00000013          	nop
    808037ca:	00000013          	nop
    808037ce:	00000013          	nop
    808037d2:	00000013          	nop
    808037d6:	00000013          	nop
    808037da:	00000013          	nop
    808037de:	00000013          	nop
    808037e2:	00000013          	nop
    808037e6:	00000013          	nop
    808037ea:	00000013          	nop
    808037ee:	00000013          	nop
    808037f2:	00000013          	nop
    808037f6:	00000013          	nop
    808037fa:	00000013          	nop
    808037fe:	00000013          	nop
    80803802:	00000013          	nop
    80803806:	00000013          	nop
    8080380a:	00000013          	nop
    8080380e:	00000013          	nop
    80803812:	00000013          	nop
    80803816:	00000013          	nop
    8080381a:	00000013          	nop
    8080381e:	00000013          	nop
    80803822:	00000013          	nop
    80803826:	00000013          	nop
    8080382a:	00000013          	nop
    8080382e:	00000013          	nop
    80803832:	00000013          	nop
    80803836:	00000013          	nop
    8080383a:	00000013          	nop
    8080383e:	00000013          	nop
    80803842:	00000013          	nop
    80803846:	00000013          	nop
    8080384a:	00000013          	nop
    8080384e:	00000013          	nop
    80803852:	00000013          	nop
    80803856:	00000013          	nop
    8080385a:	00000013          	nop
    8080385e:	00000013          	nop
    80803862:	00000013          	nop
    80803866:	00000013          	nop
    8080386a:	00000013          	nop
    8080386e:	00000013          	nop
    80803872:	00000013          	nop
    80803876:	00000013          	nop
    8080387a:	00000013          	nop
    8080387e:	00000013          	nop
    80803882:	00000013          	nop
    80803886:	00000013          	nop
    8080388a:	00000013          	nop
    8080388e:	00000013          	nop
    80803892:	00000013          	nop
    80803896:	00000013          	nop
    8080389a:	00000013          	nop
    8080389e:	00000013          	nop
    808038a2:	00000013          	nop
    808038a6:	00000013          	nop
    808038aa:	00000013          	nop
    808038ae:	00000013          	nop
    808038b2:	00000013          	nop
    808038b6:	00000013          	nop
    808038ba:	00000013          	nop
    808038be:	00000013          	nop
    808038c2:	00000013          	nop
    808038c6:	00000013          	nop
    808038ca:	00000013          	nop
    808038ce:	00000013          	nop
    808038d2:	00000013          	nop
    808038d6:	00000013          	nop
    808038da:	00000013          	nop
    808038de:	00000013          	nop
    808038e2:	00000013          	nop
    808038e6:	00000013          	nop
    808038ea:	00000013          	nop
    808038ee:	00000013          	nop
    808038f2:	00000013          	nop
    808038f6:	00000013          	nop
    808038fa:	00000013          	nop
    808038fe:	00000013          	nop
    80803902:	00000013          	nop
    80803906:	00000013          	nop
    8080390a:	00000013          	nop
    8080390e:	00000013          	nop
    80803912:	00000013          	nop
    80803916:	00000013          	nop
    8080391a:	00000013          	nop
    8080391e:	00000013          	nop
    80803922:	00000013          	nop
    80803926:	00000013          	nop
    8080392a:	00000013          	nop
    8080392e:	00000013          	nop
    80803932:	00000013          	nop
    80803936:	00000013          	nop
    8080393a:	00000013          	nop
    8080393e:	00000013          	nop
    80803942:	00000013          	nop
    80803946:	00000013          	nop
    8080394a:	00000013          	nop
    8080394e:	00000013          	nop
    80803952:	00000013          	nop
    80803956:	00000013          	nop
    8080395a:	00000013          	nop
    8080395e:	00000013          	nop
    80803962:	00000013          	nop
    80803966:	00000013          	nop
    8080396a:	00000013          	nop
    8080396e:	00000013          	nop
    80803972:	00000013          	nop
    80803976:	00000013          	nop
    8080397a:	00000013          	nop
    8080397e:	00000013          	nop
    80803982:	00000013          	nop
    80803986:	00000013          	nop
    8080398a:	00000013          	nop
    8080398e:	00000013          	nop
    80803992:	00000013          	nop
    80803996:	00000013          	nop
    8080399a:	00000013          	nop
    8080399e:	00000013          	nop
    808039a2:	00000013          	nop
    808039a6:	00000013          	nop
    808039aa:	00000013          	nop
    808039ae:	00000013          	nop
    808039b2:	00000013          	nop
    808039b6:	00000013          	nop
    808039ba:	00000013          	nop
    808039be:	00000013          	nop
    808039c2:	00000013          	nop
    808039c6:	00000013          	nop
    808039ca:	00000013          	nop
    808039ce:	00000013          	nop
    808039d2:	00000013          	nop
    808039d6:	00000013          	nop
    808039da:	00000013          	nop
    808039de:	00000013          	nop
    808039e2:	00000013          	nop
    808039e6:	00000013          	nop
    808039ea:	00000013          	nop
    808039ee:	00000013          	nop
    808039f2:	00000013          	nop
    808039f6:	00000013          	nop
    808039fa:	00000013          	nop
    808039fe:	00000013          	nop
    80803a02:	00000013          	nop
    80803a06:	00000013          	nop
    80803a0a:	00000013          	nop
    80803a0e:	00000013          	nop
    80803a12:	00000013          	nop
    80803a16:	00000013          	nop
    80803a1a:	00000013          	nop
    80803a1e:	00000013          	nop
    80803a22:	00000013          	nop
    80803a26:	00000013          	nop
    80803a2a:	00000013          	nop
    80803a2e:	00000013          	nop
    80803a32:	00000013          	nop
    80803a36:	00000013          	nop
    80803a3a:	00000013          	nop
    80803a3e:	00000013          	nop
    80803a42:	00000013          	nop
    80803a46:	00000013          	nop
    80803a4a:	00000013          	nop
    80803a4e:	00000013          	nop
    80803a52:	00000013          	nop
    80803a56:	00000013          	nop
    80803a5a:	00000013          	nop
    80803a5e:	00000013          	nop
    80803a62:	00000013          	nop
    80803a66:	00000013          	nop
    80803a6a:	00000013          	nop
    80803a6e:	00000013          	nop
    80803a72:	00000013          	nop
    80803a76:	00000013          	nop
    80803a7a:	00000013          	nop
    80803a7e:	00000013          	nop
    80803a82:	00000013          	nop
    80803a86:	00000013          	nop
    80803a8a:	00000013          	nop
    80803a8e:	00000013          	nop
    80803a92:	00000013          	nop
    80803a96:	00000013          	nop
    80803a9a:	00000013          	nop
    80803a9e:	00000013          	nop
    80803aa2:	00000013          	nop
    80803aa6:	00000013          	nop
    80803aaa:	00000013          	nop
    80803aae:	00000013          	nop
    80803ab2:	00000013          	nop
    80803ab6:	00000013          	nop
    80803aba:	00000013          	nop
    80803abe:	00000013          	nop
    80803ac2:	00000013          	nop
    80803ac6:	00000013          	nop
    80803aca:	00000013          	nop
    80803ace:	00000013          	nop
    80803ad2:	00000013          	nop
    80803ad6:	00000013          	nop
    80803ada:	00000013          	nop
    80803ade:	00000013          	nop
    80803ae2:	00000013          	nop
    80803ae6:	00000013          	nop
    80803aea:	00000013          	nop
    80803aee:	00000013          	nop
    80803af2:	00000013          	nop
    80803af6:	00000013          	nop
    80803afa:	00000013          	nop
    80803afe:	00000013          	nop
    80803b02:	00000013          	nop
    80803b06:	00000013          	nop
    80803b0a:	00000013          	nop
    80803b0e:	00000013          	nop
    80803b12:	00000013          	nop
    80803b16:	00000013          	nop
    80803b1a:	00000013          	nop
    80803b1e:	00000013          	nop
    80803b22:	00000013          	nop
    80803b26:	00000013          	nop
    80803b2a:	00000013          	nop
    80803b2e:	00000013          	nop
    80803b32:	00000013          	nop
    80803b36:	00000013          	nop
    80803b3a:	00000013          	nop
    80803b3e:	00000013          	nop
    80803b42:	00000013          	nop
    80803b46:	00000013          	nop
    80803b4a:	00000013          	nop
    80803b4e:	00000013          	nop
    80803b52:	00000013          	nop
    80803b56:	00000013          	nop
    80803b5a:	00000013          	nop
    80803b5e:	00000013          	nop
    80803b62:	00000013          	nop
    80803b66:	00000013          	nop
    80803b6a:	00000013          	nop
    80803b6e:	00000013          	nop
    80803b72:	00000013          	nop
    80803b76:	00000013          	nop
    80803b7a:	00000013          	nop
    80803b7e:	00000013          	nop
    80803b82:	00000013          	nop
    80803b86:	00000013          	nop
    80803b8a:	00000013          	nop
    80803b8e:	00000013          	nop
    80803b92:	00000013          	nop
    80803b96:	00000013          	nop
    80803b9a:	00000013          	nop
    80803b9e:	00000013          	nop
    80803ba2:	00000013          	nop
    80803ba6:	00000013          	nop
    80803baa:	00000013          	nop
    80803bae:	00000013          	nop
    80803bb2:	00000013          	nop
    80803bb6:	00000013          	nop
    80803bba:	00000013          	nop
    80803bbe:	00000013          	nop
    80803bc2:	00000013          	nop
    80803bc6:	00000013          	nop
    80803bca:	00000013          	nop
    80803bce:	00000013          	nop
    80803bd2:	00000013          	nop
    80803bd6:	00000013          	nop
    80803bda:	00000013          	nop
    80803bde:	00000013          	nop
    80803be2:	00000013          	nop
    80803be6:	00000013          	nop
    80803bea:	00000013          	nop
    80803bee:	00000013          	nop
    80803bf2:	00000013          	nop
    80803bf6:	00000013          	nop
    80803bfa:	00000013          	nop
    80803bfe:	00000013          	nop
    80803c02:	00000013          	nop
    80803c06:	00000013          	nop
    80803c0a:	00000013          	nop
    80803c0e:	00000013          	nop
    80803c12:	00000013          	nop
    80803c16:	00000013          	nop
    80803c1a:	00000013          	nop
    80803c1e:	00000013          	nop
    80803c22:	00000013          	nop
    80803c26:	00000013          	nop
    80803c2a:	00000013          	nop
    80803c2e:	00000013          	nop
    80803c32:	00000013          	nop
    80803c36:	00000013          	nop
    80803c3a:	00000013          	nop
    80803c3e:	00000013          	nop
    80803c42:	00000013          	nop
    80803c46:	00000013          	nop
    80803c4a:	00000013          	nop
    80803c4e:	00000013          	nop
    80803c52:	00000013          	nop
    80803c56:	00000013          	nop
    80803c5a:	00000013          	nop
    80803c5e:	00000013          	nop
    80803c62:	00000013          	nop
    80803c66:	00000013          	nop
    80803c6a:	00000013          	nop
    80803c6e:	00000013          	nop
    80803c72:	00000013          	nop
    80803c76:	00000013          	nop
    80803c7a:	00000013          	nop
    80803c7e:	00000013          	nop
    80803c82:	00000013          	nop
    80803c86:	00000013          	nop
    80803c8a:	00000013          	nop
    80803c8e:	00000013          	nop
    80803c92:	00000013          	nop
    80803c96:	00000013          	nop
    80803c9a:	00000013          	nop
    80803c9e:	00000013          	nop
    80803ca2:	00000013          	nop
    80803ca6:	00000013          	nop
    80803caa:	00000013          	nop
    80803cae:	00000013          	nop
    80803cb2:	00000013          	nop
    80803cb6:	00000013          	nop
    80803cba:	00000013          	nop
    80803cbe:	00000013          	nop
    80803cc2:	00000013          	nop
    80803cc6:	00000013          	nop
    80803cca:	00000013          	nop
    80803cce:	00000013          	nop
    80803cd2:	00000013          	nop
    80803cd6:	00000013          	nop
    80803cda:	00000013          	nop
    80803cde:	00000013          	nop
    80803ce2:	00000013          	nop
    80803ce6:	00000013          	nop
    80803cea:	00000013          	nop
    80803cee:	00000013          	nop
    80803cf2:	00000013          	nop
    80803cf6:	00000013          	nop
    80803cfa:	00000013          	nop
    80803cfe:	00000013          	nop
    80803d02:	00000013          	nop
    80803d06:	00000013          	nop
    80803d0a:	00000013          	nop
    80803d0e:	00000013          	nop
    80803d12:	00000013          	nop
    80803d16:	00000013          	nop
    80803d1a:	00000013          	nop
    80803d1e:	00000013          	nop
    80803d22:	00000013          	nop
    80803d26:	00000013          	nop
    80803d2a:	00000013          	nop
    80803d2e:	00000013          	nop
    80803d32:	00000013          	nop
    80803d36:	00000013          	nop
    80803d3a:	00000013          	nop
    80803d3e:	00000013          	nop
    80803d42:	00000013          	nop
    80803d46:	00000013          	nop
    80803d4a:	00000013          	nop
    80803d4e:	00000013          	nop
    80803d52:	00000013          	nop
    80803d56:	00000013          	nop
    80803d5a:	00000013          	nop
    80803d5e:	00000013          	nop
    80803d62:	00000013          	nop
    80803d66:	00000013          	nop
    80803d6a:	00000013          	nop
    80803d6e:	00000013          	nop
    80803d72:	00000013          	nop
    80803d76:	00000013          	nop
    80803d7a:	00000013          	nop
    80803d7e:	00000013          	nop
    80803d82:	00000013          	nop
    80803d86:	00000013          	nop
    80803d8a:	00000013          	nop
    80803d8e:	00000013          	nop
    80803d92:	00000013          	nop
    80803d96:	00000013          	nop
    80803d9a:	00000013          	nop
    80803d9e:	00000013          	nop
    80803da2:	00000013          	nop
    80803da6:	00000013          	nop
    80803daa:	00000013          	nop
    80803dae:	00000013          	nop
    80803db2:	00000013          	nop
    80803db6:	00000013          	nop
    80803dba:	00000013          	nop
    80803dbe:	00000013          	nop
    80803dc2:	00000013          	nop
    80803dc6:	00000013          	nop
    80803dca:	00000013          	nop
    80803dce:	00000013          	nop
    80803dd2:	00000013          	nop
    80803dd6:	00000013          	nop
    80803dda:	00000013          	nop
    80803dde:	00000013          	nop
    80803de2:	00000013          	nop
    80803de6:	00000013          	nop
    80803dea:	00000013          	nop
    80803dee:	00000013          	nop
    80803df2:	00000013          	nop
    80803df6:	00000013          	nop
    80803dfa:	00000013          	nop
    80803dfe:	00000013          	nop
    80803e02:	00000013          	nop
    80803e06:	00000013          	nop
    80803e0a:	00000013          	nop
    80803e0e:	00000013          	nop
    80803e12:	00000013          	nop
    80803e16:	00000013          	nop
    80803e1a:	00000013          	nop
    80803e1e:	00000013          	nop
    80803e22:	00000013          	nop
    80803e26:	00000013          	nop
    80803e2a:	00000013          	nop
    80803e2e:	00000013          	nop
    80803e32:	00000013          	nop
    80803e36:	00000013          	nop
    80803e3a:	00000013          	nop
    80803e3e:	00000013          	nop
    80803e42:	00000013          	nop
    80803e46:	00000013          	nop
    80803e4a:	00000013          	nop
    80803e4e:	00000013          	nop
    80803e52:	00000013          	nop
    80803e56:	00000013          	nop
    80803e5a:	00000013          	nop
    80803e5e:	00000013          	nop
    80803e62:	00000013          	nop
    80803e66:	00000013          	nop
    80803e6a:	00000013          	nop
    80803e6e:	00000013          	nop
    80803e72:	00000013          	nop
    80803e76:	00000013          	nop
    80803e7a:	00000013          	nop
    80803e7e:	00000013          	nop
    80803e82:	00000013          	nop
    80803e86:	00000013          	nop
    80803e8a:	00000013          	nop
    80803e8e:	00000013          	nop
    80803e92:	00000013          	nop
    80803e96:	00000013          	nop
    80803e9a:	00000013          	nop
    80803e9e:	00000013          	nop
    80803ea2:	00000013          	nop
    80803ea6:	00000013          	nop
    80803eaa:	00000013          	nop
    80803eae:	00000013          	nop
    80803eb2:	00000013          	nop
    80803eb6:	00000013          	nop
    80803eba:	00000013          	nop
    80803ebe:	00000013          	nop
    80803ec2:	00000013          	nop
    80803ec6:	00000013          	nop
    80803eca:	00000013          	nop
    80803ece:	00000013          	nop
    80803ed2:	00000013          	nop
    80803ed6:	00000013          	nop
    80803eda:	00000013          	nop
    80803ede:	00000013          	nop
    80803ee2:	00000013          	nop
    80803ee6:	00000013          	nop
    80803eea:	00000013          	nop
    80803eee:	00000013          	nop
    80803ef2:	00000013          	nop
    80803ef6:	00000013          	nop
    80803efa:	00000013          	nop
    80803efe:	00000013          	nop
    80803f02:	00000013          	nop
    80803f06:	00000013          	nop
    80803f0a:	00000013          	nop
    80803f0e:	00000013          	nop
    80803f12:	00000013          	nop
    80803f16:	00000013          	nop
    80803f1a:	00000013          	nop
    80803f1e:	00000013          	nop
    80803f22:	00000013          	nop
    80803f26:	00000013          	nop
    80803f2a:	00000013          	nop
    80803f2e:	00000013          	nop
    80803f32:	00000013          	nop
    80803f36:	00000013          	nop
    80803f3a:	00000013          	nop
    80803f3e:	00000013          	nop
    80803f42:	00000013          	nop
    80803f46:	00000013          	nop
    80803f4a:	00000013          	nop
    80803f4e:	00000013          	nop
    80803f52:	00000013          	nop
    80803f56:	00000013          	nop
    80803f5a:	00000013          	nop
    80803f5e:	00000013          	nop
    80803f62:	00000013          	nop
    80803f66:	00000013          	nop
    80803f6a:	00000013          	nop
    80803f6e:	00000013          	nop
    80803f72:	00000013          	nop
    80803f76:	00000013          	nop
    80803f7a:	00000013          	nop
    80803f7e:	00000013          	nop
    80803f82:	00000013          	nop
    80803f86:	00000013          	nop
    80803f8a:	00000013          	nop
    80803f8e:	00000013          	nop
    80803f92:	00000013          	nop
    80803f96:	00000013          	nop
    80803f9a:	00000013          	nop
    80803f9e:	00000013          	nop
    80803fa2:	00000013          	nop
    80803fa6:	00000013          	nop
    80803faa:	00000013          	nop
    80803fae:	00000013          	nop
    80803fb2:	00000013          	nop
    80803fb6:	00000013          	nop
    80803fba:	00000013          	nop
    80803fbe:	00000013          	nop
    80803fc2:	00000013          	nop
    80803fc6:	00000013          	nop
    80803fca:	00000013          	nop
    80803fce:	00000013          	nop
    80803fd2:	00000013          	nop
    80803fd6:	00000013          	nop
    80803fda:	00000013          	nop
    80803fde:	00000013          	nop
    80803fe2:	00000013          	nop
    80803fe6:	00000013          	nop
    80803fea:	00000013          	nop
    80803fee:	00000013          	nop
    80803ff2:	00000013          	nop
    80803ff6:	00000013          	nop
    80803ffa:	00000013          	nop
    80803ffe:	00000013          	nop
    80804002:	00000013          	nop
    80804006:	00000013          	nop
    8080400a:	00000013          	nop
    8080400e:	00000013          	nop
    80804012:	00000013          	nop
    80804016:	00000013          	nop
    8080401a:	00000013          	nop
    8080401e:	00000013          	nop
    80804022:	00000013          	nop
    80804026:	00000013          	nop
    8080402a:	00000013          	nop
    8080402e:	00000013          	nop
    80804032:	00000013          	nop
    80804036:	00000013          	nop
    8080403a:	00000013          	nop
    8080403e:	00000013          	nop
    80804042:	00000013          	nop
    80804046:	00000013          	nop
    8080404a:	00000013          	nop
    8080404e:	00000013          	nop
    80804052:	00000013          	nop
    80804056:	00000013          	nop
    8080405a:	00000013          	nop
    8080405e:	00000013          	nop
    80804062:	00000013          	nop
    80804066:	00000013          	nop
    8080406a:	00000013          	nop
    8080406e:	00000013          	nop
    80804072:	00000013          	nop
    80804076:	00000013          	nop
    8080407a:	00000013          	nop
    8080407e:	00000013          	nop
    80804082:	00000013          	nop
    80804086:	00000013          	nop
    8080408a:	00000013          	nop
    8080408e:	00000013          	nop
    80804092:	00000013          	nop
    80804096:	00000013          	nop
    8080409a:	00000013          	nop
    8080409e:	00000013          	nop
    808040a2:	00000013          	nop
    808040a6:	00000013          	nop
    808040aa:	00000013          	nop
    808040ae:	00000013          	nop
    808040b2:	00000013          	nop
    808040b6:	00000013          	nop
    808040ba:	00000013          	nop
    808040be:	00000013          	nop
    808040c2:	00000013          	nop
    808040c6:	00000013          	nop
    808040ca:	00000013          	nop
    808040ce:	00000013          	nop
    808040d2:	00000013          	nop
    808040d6:	00000013          	nop
    808040da:	00000013          	nop
    808040de:	00000013          	nop
    808040e2:	00000013          	nop
    808040e6:	00000013          	nop
    808040ea:	00000013          	nop
    808040ee:	00000013          	nop
    808040f2:	00000013          	nop
    808040f6:	00000013          	nop
    808040fa:	00000013          	nop
    808040fe:	00000013          	nop
    80804102:	00000013          	nop
    80804106:	00000013          	nop
    8080410a:	00000013          	nop
    8080410e:	00000013          	nop
    80804112:	00000013          	nop
    80804116:	00000013          	nop
    8080411a:	00000013          	nop
    8080411e:	00000013          	nop
    80804122:	00000013          	nop
    80804126:	00000013          	nop
    8080412a:	00000013          	nop
    8080412e:	00000013          	nop
    80804132:	00000013          	nop
    80804136:	00000013          	nop
    8080413a:	00000013          	nop
    8080413e:	00000013          	nop
    80804142:	00000013          	nop
    80804146:	00000013          	nop
    8080414a:	00000013          	nop
    8080414e:	00000013          	nop
    80804152:	00000013          	nop
    80804156:	00000013          	nop
    8080415a:	00000013          	nop
    8080415e:	00000013          	nop
    80804162:	00000013          	nop
    80804166:	00000013          	nop
    8080416a:	00000013          	nop
    8080416e:	00000013          	nop
    80804172:	00000013          	nop
    80804176:	00000013          	nop
    8080417a:	00000013          	nop
    8080417e:	00000013          	nop
    80804182:	00000013          	nop
    80804186:	00000013          	nop
    8080418a:	00000013          	nop
    8080418e:	00000013          	nop
    80804192:	00000013          	nop
    80804196:	00000013          	nop
    8080419a:	00000013          	nop
    8080419e:	00000013          	nop
    808041a2:	00000013          	nop
    808041a6:	00000013          	nop
    808041aa:	00000013          	nop
    808041ae:	00000013          	nop
    808041b2:	00000013          	nop
    808041b6:	00000013          	nop
    808041ba:	00000013          	nop
    808041be:	00000013          	nop
    808041c2:	00000013          	nop
    808041c6:	00000013          	nop
    808041ca:	00000013          	nop
    808041ce:	00000013          	nop
    808041d2:	00000013          	nop
    808041d6:	00000013          	nop
    808041da:	00000013          	nop
    808041de:	00000013          	nop
    808041e2:	00000013          	nop
    808041e6:	00000013          	nop
    808041ea:	00000013          	nop
    808041ee:	00000013          	nop
    808041f2:	00000013          	nop
    808041f6:	00000013          	nop
    808041fa:	00000013          	nop
    808041fe:	00000013          	nop
    80804202:	00000013          	nop
    80804206:	00000013          	nop
    8080420a:	00000013          	nop
    8080420e:	00000013          	nop
    80804212:	00000013          	nop
    80804216:	00000013          	nop
    8080421a:	00000013          	nop
    8080421e:	00000013          	nop
    80804222:	00000013          	nop
    80804226:	00000013          	nop
    8080422a:	00000013          	nop
    8080422e:	00000013          	nop
    80804232:	00000013          	nop
    80804236:	00000013          	nop
    8080423a:	00000013          	nop
    8080423e:	00000013          	nop
    80804242:	00000013          	nop
    80804246:	00000013          	nop
    8080424a:	00000013          	nop
    8080424e:	00000013          	nop
    80804252:	00000013          	nop
    80804256:	00000013          	nop
    8080425a:	00000013          	nop
    8080425e:	00000013          	nop
    80804262:	00000013          	nop
    80804266:	00000013          	nop
    8080426a:	00000013          	nop
    8080426e:	00000013          	nop
    80804272:	00000013          	nop
    80804276:	00000013          	nop
    8080427a:	00000013          	nop
    8080427e:	00000013          	nop
    80804282:	00000013          	nop
    80804286:	00000013          	nop
    8080428a:	00000013          	nop
    8080428e:	00000013          	nop
    80804292:	00000013          	nop
    80804296:	00000013          	nop
    8080429a:	00000013          	nop
    8080429e:	00000013          	nop
    808042a2:	00000013          	nop
    808042a6:	00000013          	nop
    808042aa:	00000013          	nop
    808042ae:	00000013          	nop
    808042b2:	00000013          	nop
    808042b6:	00000013          	nop
    808042ba:	00000013          	nop
    808042be:	00000013          	nop
    808042c2:	00000013          	nop
    808042c6:	00000013          	nop
    808042ca:	00000013          	nop
    808042ce:	00000013          	nop
    808042d2:	00000013          	nop
    808042d6:	00000013          	nop
    808042da:	00000013          	nop
    808042de:	00000013          	nop
    808042e2:	00000013          	nop
    808042e6:	00000013          	nop
    808042ea:	00000013          	nop
    808042ee:	00000013          	nop
    808042f2:	00000013          	nop
    808042f6:	00000013          	nop
    808042fa:	00000013          	nop
    808042fe:	00000013          	nop
    80804302:	00000013          	nop
    80804306:	00000013          	nop
    8080430a:	00000013          	nop
    8080430e:	00000013          	nop
    80804312:	00000013          	nop
    80804316:	00000013          	nop
    8080431a:	00000013          	nop
    8080431e:	00000013          	nop
    80804322:	00000013          	nop
    80804326:	00000013          	nop
    8080432a:	00000013          	nop
    8080432e:	00000013          	nop
    80804332:	00000013          	nop
    80804336:	00000013          	nop
    8080433a:	00000013          	nop
    8080433e:	00000013          	nop
    80804342:	00000013          	nop
    80804346:	00000013          	nop
    8080434a:	00000013          	nop
    8080434e:	00000013          	nop
    80804352:	00000013          	nop
    80804356:	00000013          	nop
    8080435a:	00000013          	nop
    8080435e:	00000013          	nop
    80804362:	00000013          	nop
    80804366:	00000013          	nop
    8080436a:	00000013          	nop
    8080436e:	00000013          	nop
    80804372:	00000013          	nop
    80804376:	00000013          	nop
    8080437a:	00000013          	nop
    8080437e:	00000013          	nop
    80804382:	00000013          	nop
    80804386:	00000013          	nop
    8080438a:	00000013          	nop
    8080438e:	00000013          	nop
    80804392:	00000013          	nop
    80804396:	00000013          	nop
    8080439a:	00000013          	nop
    8080439e:	00000013          	nop
    808043a2:	00000013          	nop
    808043a6:	00000013          	nop
    808043aa:	00000013          	nop
    808043ae:	00000013          	nop
    808043b2:	00000013          	nop
    808043b6:	00000013          	nop
    808043ba:	00000013          	nop
    808043be:	00000013          	nop
    808043c2:	00000013          	nop
    808043c6:	00000013          	nop
    808043ca:	00000013          	nop
    808043ce:	00000013          	nop
    808043d2:	00000013          	nop
    808043d6:	00000013          	nop
    808043da:	00000013          	nop
    808043de:	00000013          	nop
    808043e2:	00000013          	nop
    808043e6:	00000013          	nop
    808043ea:	00000013          	nop
    808043ee:	00000013          	nop
    808043f2:	00000013          	nop
    808043f6:	00000013          	nop
    808043fa:	00000013          	nop
    808043fe:	00000013          	nop
    80804402:	00000013          	nop
    80804406:	00000013          	nop
    8080440a:	00000013          	nop
    8080440e:	00000013          	nop
    80804412:	00000013          	nop
    80804416:	00000013          	nop
    8080441a:	00000013          	nop
    8080441e:	00000013          	nop
    80804422:	00000013          	nop
    80804426:	00000013          	nop
    8080442a:	00000013          	nop
    8080442e:	00000013          	nop
    80804432:	00000013          	nop
    80804436:	00000013          	nop
    8080443a:	00000013          	nop
    8080443e:	00000013          	nop
    80804442:	00000013          	nop
    80804446:	00000013          	nop
    8080444a:	00000013          	nop
    8080444e:	00000013          	nop
    80804452:	00000013          	nop
    80804456:	00000013          	nop
    8080445a:	00000013          	nop
    8080445e:	00000013          	nop
    80804462:	00000013          	nop
    80804466:	00000013          	nop
    8080446a:	00000013          	nop
    8080446e:	00000013          	nop
    80804472:	00000013          	nop
    80804476:	00000013          	nop
    8080447a:	00000013          	nop
    8080447e:	00000013          	nop
    80804482:	00000013          	nop
    80804486:	00000013          	nop
    8080448a:	00000013          	nop
    8080448e:	00000013          	nop
    80804492:	00000013          	nop
    80804496:	00000013          	nop
    8080449a:	00000013          	nop
    8080449e:	00000013          	nop
    808044a2:	00000013          	nop
    808044a6:	00000013          	nop
    808044aa:	00000013          	nop
    808044ae:	00000013          	nop
    808044b2:	00000013          	nop
    808044b6:	00000013          	nop
    808044ba:	00000013          	nop
    808044be:	00000013          	nop
    808044c2:	00000013          	nop
    808044c6:	00000013          	nop
    808044ca:	00000013          	nop
    808044ce:	00000013          	nop
    808044d2:	00000013          	nop
    808044d6:	00000013          	nop
    808044da:	00000013          	nop
    808044de:	00000013          	nop
    808044e2:	00000013          	nop
    808044e6:	00000013          	nop
    808044ea:	00000013          	nop
    808044ee:	00000013          	nop
    808044f2:	00000013          	nop
    808044f6:	00000013          	nop
    808044fa:	00000013          	nop
    808044fe:	00000013          	nop
    80804502:	00000013          	nop
    80804506:	00000013          	nop
    8080450a:	00000013          	nop
    8080450e:	00000013          	nop
    80804512:	00000013          	nop
    80804516:	00000013          	nop
    8080451a:	00000013          	nop
    8080451e:	00000013          	nop
    80804522:	00000013          	nop
    80804526:	00000013          	nop
    8080452a:	00000013          	nop
    8080452e:	00000013          	nop
    80804532:	00000013          	nop
    80804536:	00000013          	nop
    8080453a:	00000013          	nop
    8080453e:	00000013          	nop
    80804542:	00000013          	nop
    80804546:	00000013          	nop
    8080454a:	00000013          	nop
    8080454e:	00000013          	nop
    80804552:	00000013          	nop
    80804556:	00000013          	nop
    8080455a:	00000013          	nop
    8080455e:	00000013          	nop
    80804562:	00000013          	nop
    80804566:	00000013          	nop
    8080456a:	00000013          	nop
    8080456e:	00000013          	nop
    80804572:	00000013          	nop
    80804576:	00000013          	nop
    8080457a:	00000013          	nop
    8080457e:	00000013          	nop
    80804582:	00000013          	nop
    80804586:	00000013          	nop
    8080458a:	00000013          	nop
    8080458e:	00000013          	nop
    80804592:	00000013          	nop
    80804596:	00000013          	nop
    8080459a:	00000013          	nop
    8080459e:	00000013          	nop
    808045a2:	00000013          	nop
    808045a6:	00000013          	nop
    808045aa:	00000013          	nop
    808045ae:	00000013          	nop
    808045b2:	00000013          	nop
    808045b6:	00000013          	nop
    808045ba:	00000013          	nop
    808045be:	00000013          	nop
    808045c2:	00000013          	nop
    808045c6:	00000013          	nop
    808045ca:	00000013          	nop
    808045ce:	00000013          	nop
    808045d2:	00000013          	nop
    808045d6:	00000013          	nop
    808045da:	00000013          	nop
    808045de:	00000013          	nop
    808045e2:	00000013          	nop
    808045e6:	00000013          	nop
    808045ea:	00000013          	nop
    808045ee:	00000013          	nop
    808045f2:	00000013          	nop
    808045f6:	00000013          	nop
    808045fa:	00000013          	nop
    808045fe:	00000013          	nop
    80804602:	00000013          	nop
    80804606:	00000013          	nop
    8080460a:	00000013          	nop
    8080460e:	00000013          	nop
    80804612:	00000013          	nop
    80804616:	00000013          	nop
    8080461a:	00000013          	nop
    8080461e:	00000013          	nop
    80804622:	00000013          	nop
    80804626:	00000013          	nop
    8080462a:	00000013          	nop
    8080462e:	00000013          	nop
    80804632:	00000013          	nop
    80804636:	00000013          	nop
    8080463a:	00000013          	nop
    8080463e:	00000013          	nop
    80804642:	00000013          	nop
    80804646:	00000013          	nop
    8080464a:	00000013          	nop
    8080464e:	00000013          	nop
    80804652:	00000013          	nop
    80804656:	00000013          	nop
    8080465a:	00000013          	nop
    8080465e:	00000013          	nop
    80804662:	00000013          	nop
    80804666:	00000013          	nop
    8080466a:	00000013          	nop
    8080466e:	00000013          	nop
    80804672:	00000013          	nop
    80804676:	00000013          	nop
    8080467a:	00000013          	nop
    8080467e:	00000013          	nop
    80804682:	00000013          	nop
    80804686:	00000013          	nop
    8080468a:	00000013          	nop
    8080468e:	00000013          	nop
    80804692:	00000013          	nop
    80804696:	00000013          	nop
    8080469a:	00000013          	nop
    8080469e:	00000013          	nop
    808046a2:	00000013          	nop
    808046a6:	00000013          	nop
    808046aa:	00000013          	nop
    808046ae:	00000013          	nop
    808046b2:	00000013          	nop
    808046b6:	00000013          	nop
    808046ba:	00000013          	nop
    808046be:	00000013          	nop
    808046c2:	00000013          	nop
    808046c6:	00000013          	nop
    808046ca:	00000013          	nop
    808046ce:	00000013          	nop
    808046d2:	00000013          	nop
    808046d6:	00000013          	nop
    808046da:	00000013          	nop
    808046de:	00000013          	nop
    808046e2:	00000013          	nop
    808046e6:	00000013          	nop
    808046ea:	00000013          	nop
    808046ee:	00000013          	nop
    808046f2:	00000013          	nop
    808046f6:	00000013          	nop
    808046fa:	00000013          	nop
    808046fe:	00000013          	nop
    80804702:	00000013          	nop
    80804706:	00000013          	nop
    8080470a:	00000013          	nop
    8080470e:	00000013          	nop
    80804712:	00000013          	nop
    80804716:	00000013          	nop
    8080471a:	00000013          	nop
    8080471e:	00000013          	nop
    80804722:	00000013          	nop
    80804726:	00000013          	nop
    8080472a:	00000013          	nop
    8080472e:	00000013          	nop
    80804732:	00000013          	nop
    80804736:	00000013          	nop
    8080473a:	00000013          	nop
    8080473e:	00000013          	nop
    80804742:	00000013          	nop
    80804746:	00000013          	nop
    8080474a:	00000013          	nop
    8080474e:	00000013          	nop
    80804752:	00000013          	nop
    80804756:	00000013          	nop
    8080475a:	00000013          	nop
    8080475e:	00000013          	nop
    80804762:	00000013          	nop
    80804766:	00000013          	nop
    8080476a:	00000013          	nop
    8080476e:	00000013          	nop
    80804772:	00000013          	nop
    80804776:	00000013          	nop
    8080477a:	00000013          	nop
    8080477e:	00000013          	nop
    80804782:	00000013          	nop
    80804786:	00000013          	nop
    8080478a:	00000013          	nop
    8080478e:	00000013          	nop
    80804792:	00000013          	nop
    80804796:	00000013          	nop
    8080479a:	00000013          	nop
    8080479e:	00000013          	nop
    808047a2:	00000013          	nop
    808047a6:	00000013          	nop
    808047aa:	00000013          	nop
    808047ae:	00000013          	nop
    808047b2:	00000013          	nop
    808047b6:	00000013          	nop
    808047ba:	00000013          	nop
    808047be:	00000013          	nop
    808047c2:	00000013          	nop
    808047c6:	00000013          	nop
    808047ca:	00000013          	nop
    808047ce:	00000013          	nop
    808047d2:	00000013          	nop
    808047d6:	00000013          	nop
    808047da:	00000013          	nop
    808047de:	00000013          	nop
    808047e2:	00000013          	nop
    808047e6:	00000013          	nop
    808047ea:	00000013          	nop
    808047ee:	00000013          	nop
    808047f2:	00000013          	nop
    808047f6:	00000013          	nop
    808047fa:	00000013          	nop
    808047fe:	00000013          	nop
    80804802:	00000013          	nop
    80804806:	00000013          	nop
    8080480a:	00000013          	nop
    8080480e:	00000013          	nop
    80804812:	00000013          	nop
    80804816:	00000013          	nop
    8080481a:	00000013          	nop
    8080481e:	00000013          	nop
    80804822:	00000013          	nop
    80804826:	00000013          	nop
    8080482a:	00000013          	nop
    8080482e:	00000013          	nop
    80804832:	00000013          	nop
    80804836:	00000013          	nop
    8080483a:	00000013          	nop
    8080483e:	00000013          	nop
    80804842:	00000013          	nop
    80804846:	00000013          	nop
    8080484a:	00000013          	nop
    8080484e:	00000013          	nop
    80804852:	00000013          	nop
    80804856:	00000013          	nop
    8080485a:	00000013          	nop
    8080485e:	00000013          	nop
    80804862:	00000013          	nop
    80804866:	00000013          	nop
    8080486a:	00000013          	nop
    8080486e:	00000013          	nop
    80804872:	00000013          	nop
    80804876:	00000013          	nop
    8080487a:	00000013          	nop
    8080487e:	00000013          	nop
    80804882:	00000013          	nop
    80804886:	00000013          	nop
    8080488a:	00000013          	nop
    8080488e:	00000013          	nop
    80804892:	00000013          	nop
    80804896:	00000013          	nop
    8080489a:	00000013          	nop
    8080489e:	00000013          	nop
    808048a2:	00000013          	nop
    808048a6:	00000013          	nop
    808048aa:	00000013          	nop
    808048ae:	00000013          	nop
    808048b2:	00000013          	nop
    808048b6:	00000013          	nop
    808048ba:	00000013          	nop
    808048be:	00000013          	nop
    808048c2:	00000013          	nop
    808048c6:	00000013          	nop
    808048ca:	00000013          	nop
    808048ce:	00000013          	nop
    808048d2:	00000013          	nop
    808048d6:	00000013          	nop
    808048da:	00000013          	nop
    808048de:	00000013          	nop
    808048e2:	00000013          	nop
    808048e6:	00000013          	nop
    808048ea:	00000013          	nop
    808048ee:	00000013          	nop
    808048f2:	00000013          	nop
    808048f6:	00000013          	nop
    808048fa:	00000013          	nop
    808048fe:	00000013          	nop
    80804902:	00000013          	nop
    80804906:	00000013          	nop
    8080490a:	00000013          	nop
    8080490e:	00000013          	nop
    80804912:	00000013          	nop
    80804916:	00000013          	nop
    8080491a:	00000013          	nop
    8080491e:	00000013          	nop
    80804922:	00000013          	nop
    80804926:	00000013          	nop
    8080492a:	00000013          	nop
    8080492e:	00000013          	nop
    80804932:	00000013          	nop
    80804936:	00000013          	nop
    8080493a:	00000013          	nop
    8080493e:	00000013          	nop
    80804942:	00000013          	nop
    80804946:	00000013          	nop
    8080494a:	00000013          	nop
    8080494e:	00000013          	nop
    80804952:	00000013          	nop
    80804956:	00000013          	nop
    8080495a:	00000013          	nop
    8080495e:	00000013          	nop
    80804962:	00000013          	nop
    80804966:	00000013          	nop
    8080496a:	00000013          	nop
    8080496e:	00000013          	nop
    80804972:	00000013          	nop
    80804976:	00000013          	nop
    8080497a:	00000013          	nop
    8080497e:	00000013          	nop
    80804982:	00000013          	nop
    80804986:	00000013          	nop
    8080498a:	00000013          	nop
    8080498e:	00000013          	nop
    80804992:	00000013          	nop
    80804996:	00000013          	nop
    8080499a:	00000013          	nop
    8080499e:	00000013          	nop
    808049a2:	00000013          	nop
    808049a6:	00000013          	nop
    808049aa:	00000013          	nop
    808049ae:	00000013          	nop
    808049b2:	00000013          	nop
    808049b6:	00000013          	nop
    808049ba:	00000013          	nop
    808049be:	00000013          	nop
    808049c2:	00000013          	nop
    808049c6:	00000013          	nop
    808049ca:	00000013          	nop
    808049ce:	00000013          	nop
    808049d2:	00000013          	nop
    808049d6:	00000013          	nop
    808049da:	00000013          	nop
    808049de:	00000013          	nop
    808049e2:	00000013          	nop
    808049e6:	00000013          	nop
    808049ea:	00000013          	nop
    808049ee:	00000013          	nop
    808049f2:	00000013          	nop
    808049f6:	00000013          	nop
    808049fa:	00000013          	nop
    808049fe:	00000013          	nop
    80804a02:	00000013          	nop
    80804a06:	00000013          	nop
    80804a0a:	00000013          	nop
    80804a0e:	00000013          	nop
    80804a12:	00000013          	nop
    80804a16:	00000013          	nop
    80804a1a:	00000013          	nop
    80804a1e:	00000013          	nop
    80804a22:	00000013          	nop
    80804a26:	00000013          	nop
    80804a2a:	00000013          	nop
    80804a2e:	00000013          	nop
    80804a32:	00000013          	nop
    80804a36:	00000013          	nop
    80804a3a:	00000013          	nop
    80804a3e:	00000013          	nop
    80804a42:	00000013          	nop
    80804a46:	00000013          	nop
    80804a4a:	00000013          	nop
    80804a4e:	00000013          	nop
    80804a52:	00000013          	nop
    80804a56:	00000013          	nop
    80804a5a:	00000013          	nop
    80804a5e:	00000013          	nop
    80804a62:	00000013          	nop
    80804a66:	00000013          	nop
    80804a6a:	00000013          	nop
    80804a6e:	00000013          	nop
    80804a72:	00000013          	nop
    80804a76:	00000013          	nop
    80804a7a:	00000013          	nop
    80804a7e:	00000013          	nop
    80804a82:	00000013          	nop
    80804a86:	00000013          	nop
    80804a8a:	00000013          	nop
    80804a8e:	00000013          	nop
    80804a92:	00000013          	nop
    80804a96:	00000013          	nop
    80804a9a:	00000013          	nop
    80804a9e:	00000013          	nop
    80804aa2:	00000013          	nop
    80804aa6:	00000013          	nop
    80804aaa:	00000013          	nop
    80804aae:	00000013          	nop
    80804ab2:	00000013          	nop
    80804ab6:	00000013          	nop
    80804aba:	00000013          	nop
    80804abe:	00000013          	nop
    80804ac2:	00000013          	nop
    80804ac6:	00000013          	nop
    80804aca:	00000013          	nop
    80804ace:	00000013          	nop
    80804ad2:	00000013          	nop
    80804ad6:	00000013          	nop
    80804ada:	00000013          	nop
    80804ade:	00000013          	nop
    80804ae2:	00000013          	nop
    80804ae6:	00000013          	nop
    80804aea:	00000013          	nop
    80804aee:	00000013          	nop
    80804af2:	00000013          	nop
    80804af6:	00000013          	nop
    80804afa:	00000013          	nop
    80804afe:	00000013          	nop
    80804b02:	00000013          	nop
    80804b06:	00000013          	nop
    80804b0a:	00000013          	nop
    80804b0e:	00000013          	nop
    80804b12:	00000013          	nop
    80804b16:	00000013          	nop
    80804b1a:	00000013          	nop
    80804b1e:	00000013          	nop
    80804b22:	00000013          	nop
    80804b26:	00000013          	nop
    80804b2a:	00000013          	nop
    80804b2e:	00000013          	nop
    80804b32:	00000013          	nop
    80804b36:	00000013          	nop
    80804b3a:	00000013          	nop
    80804b3e:	00000013          	nop
    80804b42:	00000013          	nop
    80804b46:	00000013          	nop
    80804b4a:	00000013          	nop
    80804b4e:	00000013          	nop
    80804b52:	00000013          	nop
    80804b56:	00000013          	nop
    80804b5a:	00000013          	nop
    80804b5e:	00000013          	nop
    80804b62:	00000013          	nop
    80804b66:	00000013          	nop
    80804b6a:	00000013          	nop
    80804b6e:	00000013          	nop
    80804b72:	00000013          	nop
    80804b76:	00000013          	nop
    80804b7a:	00000013          	nop
    80804b7e:	00000013          	nop
    80804b82:	00000013          	nop
    80804b86:	00000013          	nop
    80804b8a:	00000013          	nop
    80804b8e:	00000013          	nop
    80804b92:	00000013          	nop
    80804b96:	00000013          	nop
    80804b9a:	00000013          	nop
    80804b9e:	00000013          	nop
    80804ba2:	00000013          	nop
    80804ba6:	00000013          	nop
    80804baa:	00000013          	nop
    80804bae:	00000013          	nop
    80804bb2:	00000013          	nop
    80804bb6:	00000013          	nop
    80804bba:	00000013          	nop
    80804bbe:	00000013          	nop
    80804bc2:	00000013          	nop
    80804bc6:	00000013          	nop
    80804bca:	00000013          	nop
    80804bce:	00000013          	nop
    80804bd2:	00000013          	nop
    80804bd6:	00000013          	nop
    80804bda:	00000013          	nop
    80804bde:	00000013          	nop
    80804be2:	00000013          	nop
    80804be6:	00000013          	nop
    80804bea:	00000013          	nop
    80804bee:	00000013          	nop
    80804bf2:	00000013          	nop
    80804bf6:	00000013          	nop
    80804bfa:	00000013          	nop
    80804bfe:	00000013          	nop
    80804c02:	00000013          	nop
    80804c06:	00000013          	nop
    80804c0a:	00000013          	nop
    80804c0e:	00000013          	nop
    80804c12:	00000013          	nop
    80804c16:	00000013          	nop
    80804c1a:	00000013          	nop
    80804c1e:	00000013          	nop
    80804c22:	00000013          	nop
    80804c26:	00000013          	nop
    80804c2a:	00000013          	nop
    80804c2e:	00000013          	nop
    80804c32:	00000013          	nop
    80804c36:	00000013          	nop
    80804c3a:	00000013          	nop
    80804c3e:	00000013          	nop
    80804c42:	00000013          	nop
    80804c46:	00000013          	nop
    80804c4a:	00000013          	nop
    80804c4e:	00000013          	nop
    80804c52:	00000013          	nop
    80804c56:	00000013          	nop
    80804c5a:	00000013          	nop
    80804c5e:	00000013          	nop
    80804c62:	00000013          	nop
    80804c66:	00000013          	nop
    80804c6a:	00000013          	nop
    80804c6e:	00000013          	nop
    80804c72:	00000013          	nop
    80804c76:	00000013          	nop
    80804c7a:	00000013          	nop
    80804c7e:	00000013          	nop
    80804c82:	00000013          	nop
    80804c86:	00000013          	nop
    80804c8a:	00000013          	nop
    80804c8e:	00000013          	nop
    80804c92:	00000013          	nop
    80804c96:	00000013          	nop
    80804c9a:	00000013          	nop
    80804c9e:	00000013          	nop
    80804ca2:	00000013          	nop
    80804ca6:	00000013          	nop
    80804caa:	00000013          	nop
    80804cae:	00000013          	nop
    80804cb2:	00000013          	nop
    80804cb6:	00000013          	nop
    80804cba:	00000013          	nop
    80804cbe:	00000013          	nop
    80804cc2:	00000013          	nop
    80804cc6:	00000013          	nop
    80804cca:	00000013          	nop
    80804cce:	00000013          	nop
    80804cd2:	00000013          	nop
    80804cd6:	00000013          	nop
    80804cda:	00000013          	nop
    80804cde:	00000013          	nop
    80804ce2:	00000013          	nop
    80804ce6:	00000013          	nop
    80804cea:	00000013          	nop
    80804cee:	00000013          	nop
    80804cf2:	00000013          	nop
    80804cf6:	00000013          	nop
    80804cfa:	00000013          	nop
    80804cfe:	00000013          	nop
    80804d02:	00000013          	nop
    80804d06:	00000013          	nop
    80804d0a:	00000013          	nop
    80804d0e:	00000013          	nop
    80804d12:	00000013          	nop
    80804d16:	00000013          	nop
    80804d1a:	00000013          	nop
    80804d1e:	00000013          	nop
    80804d22:	00000013          	nop
    80804d26:	00000013          	nop
    80804d2a:	00000013          	nop
    80804d2e:	00000013          	nop
    80804d32:	00000013          	nop
    80804d36:	00000013          	nop
    80804d3a:	00000013          	nop
    80804d3e:	00000013          	nop
    80804d42:	00000013          	nop
    80804d46:	00000013          	nop
    80804d4a:	00000013          	nop
    80804d4e:	00000013          	nop
    80804d52:	00000013          	nop
    80804d56:	00000013          	nop
    80804d5a:	00000013          	nop
    80804d5e:	00000013          	nop
    80804d62:	00000013          	nop
    80804d66:	00000013          	nop
    80804d6a:	00000013          	nop
    80804d6e:	00000013          	nop
    80804d72:	00000013          	nop
    80804d76:	00000013          	nop
    80804d7a:	00000013          	nop
    80804d7e:	00000013          	nop
    80804d82:	00000013          	nop
    80804d86:	00000013          	nop
    80804d8a:	00000013          	nop
    80804d8e:	00000013          	nop
    80804d92:	00000013          	nop
    80804d96:	00000013          	nop
    80804d9a:	00000013          	nop
    80804d9e:	00000013          	nop
    80804da2:	00000013          	nop
    80804da6:	00000013          	nop
    80804daa:	00000013          	nop
    80804dae:	00000013          	nop
    80804db2:	00000013          	nop
    80804db6:	00000013          	nop
    80804dba:	00000013          	nop
    80804dbe:	00000013          	nop
    80804dc2:	00000013          	nop
    80804dc6:	00000013          	nop
    80804dca:	00000013          	nop
    80804dce:	00000013          	nop
    80804dd2:	00000013          	nop
    80804dd6:	00000013          	nop
    80804dda:	00000013          	nop
    80804dde:	00000013          	nop
    80804de2:	00000013          	nop
    80804de6:	00000013          	nop
    80804dea:	00000013          	nop
    80804dee:	00000013          	nop
    80804df2:	00000013          	nop
    80804df6:	00000013          	nop
    80804dfa:	00000013          	nop
    80804dfe:	00000013          	nop
    80804e02:	00000013          	nop
    80804e06:	00000013          	nop
    80804e0a:	00000013          	nop
    80804e0e:	00000013          	nop
    80804e12:	00000013          	nop
    80804e16:	00000013          	nop
    80804e1a:	00000013          	nop
    80804e1e:	00000013          	nop
    80804e22:	00000013          	nop
    80804e26:	00000013          	nop
    80804e2a:	00000013          	nop
    80804e2e:	00000013          	nop
    80804e32:	00000013          	nop
    80804e36:	00000013          	nop
    80804e3a:	00000013          	nop
    80804e3e:	00000013          	nop
    80804e42:	00000013          	nop
    80804e46:	00000013          	nop
    80804e4a:	00000013          	nop
    80804e4e:	00000013          	nop
    80804e52:	00000013          	nop
    80804e56:	00000013          	nop
    80804e5a:	00000013          	nop
    80804e5e:	00000013          	nop
    80804e62:	00000013          	nop
    80804e66:	00000013          	nop
    80804e6a:	00000013          	nop
    80804e6e:	00000013          	nop
    80804e72:	00000013          	nop
    80804e76:	00000013          	nop
    80804e7a:	00000013          	nop
    80804e7e:	00000013          	nop
    80804e82:	00000013          	nop
    80804e86:	00000013          	nop
    80804e8a:	00000013          	nop
    80804e8e:	00000013          	nop
    80804e92:	00000013          	nop
    80804e96:	00000013          	nop
    80804e9a:	00000013          	nop
    80804e9e:	00000013          	nop
    80804ea2:	00000013          	nop
    80804ea6:	00000013          	nop
    80804eaa:	00000013          	nop
    80804eae:	00000013          	nop
    80804eb2:	00000013          	nop
    80804eb6:	00000013          	nop
    80804eba:	00000013          	nop
    80804ebe:	00000013          	nop
    80804ec2:	00000013          	nop
    80804ec6:	00000013          	nop
    80804eca:	00000013          	nop
    80804ece:	00000013          	nop
    80804ed2:	00000013          	nop
    80804ed6:	00000013          	nop
    80804eda:	00000013          	nop
    80804ede:	00000013          	nop
    80804ee2:	00000013          	nop
    80804ee6:	00000013          	nop
    80804eea:	00000013          	nop
    80804eee:	00000013          	nop
    80804ef2:	00000013          	nop
    80804ef6:	00000013          	nop
    80804efa:	00000013          	nop
    80804efe:	00000013          	nop
    80804f02:	00000013          	nop
    80804f06:	00000013          	nop
    80804f0a:	00000013          	nop
    80804f0e:	00000013          	nop
    80804f12:	00000013          	nop
    80804f16:	00000013          	nop
    80804f1a:	00000013          	nop
    80804f1e:	00000013          	nop
    80804f22:	00000013          	nop
    80804f26:	00000013          	nop
    80804f2a:	00000013          	nop
    80804f2e:	00000013          	nop
    80804f32:	00000013          	nop
    80804f36:	00000013          	nop
    80804f3a:	00000013          	nop
    80804f3e:	00000013          	nop
    80804f42:	00000013          	nop
    80804f46:	00000013          	nop
    80804f4a:	00000013          	nop
    80804f4e:	00000013          	nop
    80804f52:	00000013          	nop
    80804f56:	00000013          	nop
    80804f5a:	00000013          	nop
    80804f5e:	00000013          	nop
    80804f62:	00000013          	nop
    80804f66:	00000013          	nop
    80804f6a:	00000013          	nop
    80804f6e:	00000013          	nop
    80804f72:	00000013          	nop
    80804f76:	00000013          	nop
    80804f7a:	00000013          	nop
    80804f7e:	00000013          	nop
    80804f82:	00000013          	nop
    80804f86:	00000013          	nop
    80804f8a:	00000013          	nop
    80804f8e:	00000013          	nop
    80804f92:	00000013          	nop
    80804f96:	00000013          	nop
    80804f9a:	00000013          	nop
    80804f9e:	00000013          	nop
    80804fa2:	00000013          	nop
    80804fa6:	00000013          	nop
    80804faa:	00000013          	nop
    80804fae:	00000013          	nop
    80804fb2:	00000013          	nop
    80804fb6:	00000013          	nop
    80804fba:	00000013          	nop
    80804fbe:	00000013          	nop
    80804fc2:	00000013          	nop
    80804fc6:	00000013          	nop
    80804fca:	00000013          	nop
    80804fce:	00000013          	nop
    80804fd2:	00000013          	nop
    80804fd6:	00000013          	nop
    80804fda:	00000013          	nop
    80804fde:	00000013          	nop
    80804fe2:	00000013          	nop
    80804fe6:	00000013          	nop
    80804fea:	00000013          	nop
    80804fee:	00000013          	nop
    80804ff2:	00000013          	nop
    80804ff6:	00000013          	nop
    80804ffa:	00000013          	nop
    80804ffe:	00000013          	nop
    80805002:	00000013          	nop
    80805006:	00000013          	nop
    8080500a:	00000013          	nop
    8080500e:	00000013          	nop
    80805012:	00000013          	nop
    80805016:	00000013          	nop
    8080501a:	00000013          	nop
    8080501e:	00000013          	nop
    80805022:	00000013          	nop
    80805026:	00000013          	nop
    8080502a:	00000013          	nop
    8080502e:	00000013          	nop
    80805032:	00000013          	nop
    80805036:	00000013          	nop
    8080503a:	00000013          	nop
    8080503e:	00000013          	nop
    80805042:	00000013          	nop
    80805046:	00000013          	nop
    8080504a:	00000013          	nop
    8080504e:	00000013          	nop
    80805052:	00000013          	nop
    80805056:	00000013          	nop
    8080505a:	00000013          	nop
    8080505e:	00000013          	nop
    80805062:	00000013          	nop
    80805066:	00000013          	nop
    8080506a:	00000013          	nop
    8080506e:	00000013          	nop
    80805072:	00000013          	nop
    80805076:	00000013          	nop
    8080507a:	00000013          	nop
    8080507e:	00000013          	nop
    80805082:	00000013          	nop
    80805086:	00000013          	nop
    8080508a:	00000013          	nop
    8080508e:	00000013          	nop
    80805092:	00000013          	nop
    80805096:	00000013          	nop
    8080509a:	00000013          	nop
    8080509e:	00000013          	nop
    808050a2:	00000013          	nop
    808050a6:	00000013          	nop
    808050aa:	00000013          	nop
    808050ae:	00000013          	nop
    808050b2:	00000013          	nop
    808050b6:	00000013          	nop
    808050ba:	00000013          	nop
    808050be:	00000013          	nop
    808050c2:	00000013          	nop
    808050c6:	00000013          	nop
    808050ca:	00000013          	nop
    808050ce:	00000013          	nop
    808050d2:	00000013          	nop
    808050d6:	00000013          	nop
    808050da:	00000013          	nop
    808050de:	00000013          	nop
    808050e2:	00000013          	nop
    808050e6:	00000013          	nop
    808050ea:	00000013          	nop
    808050ee:	00000013          	nop
    808050f2:	00000013          	nop
    808050f6:	00000013          	nop
    808050fa:	00000013          	nop
    808050fe:	00000013          	nop
    80805102:	00000013          	nop
    80805106:	00000013          	nop
    8080510a:	00000013          	nop
    8080510e:	00000013          	nop
    80805112:	00000013          	nop
    80805116:	00000013          	nop
    8080511a:	00000013          	nop
    8080511e:	00000013          	nop
    80805122:	00000013          	nop
    80805126:	00000013          	nop
    8080512a:	00000013          	nop
    8080512e:	00000013          	nop
    80805132:	00000013          	nop
    80805136:	00000013          	nop
    8080513a:	00000013          	nop
    8080513e:	00000013          	nop
    80805142:	00000013          	nop
    80805146:	00000013          	nop
    8080514a:	00000013          	nop
    8080514e:	00000013          	nop
    80805152:	00000013          	nop
    80805156:	00000013          	nop
    8080515a:	00000013          	nop
    8080515e:	00000013          	nop
    80805162:	00000013          	nop
    80805166:	00000013          	nop
    8080516a:	00000013          	nop
    8080516e:	00000013          	nop
    80805172:	00000013          	nop
    80805176:	00000013          	nop
    8080517a:	00000013          	nop
    8080517e:	00000013          	nop
    80805182:	00000013          	nop
    80805186:	00000013          	nop
    8080518a:	00000013          	nop
    8080518e:	00000013          	nop
    80805192:	00000013          	nop
    80805196:	00000013          	nop
    8080519a:	00000013          	nop
    8080519e:	00000013          	nop
    808051a2:	00000013          	nop
    808051a6:	00000013          	nop
    808051aa:	00000013          	nop
    808051ae:	00000013          	nop
    808051b2:	00000013          	nop
    808051b6:	00000013          	nop
    808051ba:	00000013          	nop
    808051be:	00000013          	nop
    808051c2:	00000013          	nop
    808051c6:	00000013          	nop
    808051ca:	00000013          	nop
    808051ce:	00000013          	nop
    808051d2:	00000013          	nop
    808051d6:	00000013          	nop
    808051da:	00000013          	nop
    808051de:	00000013          	nop
    808051e2:	00000013          	nop
    808051e6:	00000013          	nop
    808051ea:	00000013          	nop
    808051ee:	00000013          	nop
    808051f2:	00000013          	nop
    808051f6:	00000013          	nop
    808051fa:	00000013          	nop
    808051fe:	00000013          	nop
    80805202:	00000013          	nop
    80805206:	00000013          	nop
    8080520a:	00000013          	nop
    8080520e:	00000013          	nop
    80805212:	00000013          	nop
    80805216:	00000013          	nop
    8080521a:	00000013          	nop
    8080521e:	00000013          	nop
    80805222:	00000013          	nop
    80805226:	00000013          	nop
    8080522a:	00000013          	nop
    8080522e:	00000013          	nop
    80805232:	00000013          	nop
    80805236:	00000013          	nop
    8080523a:	00000013          	nop
    8080523e:	00000013          	nop
    80805242:	00000013          	nop
    80805246:	00000013          	nop
    8080524a:	00000013          	nop
    8080524e:	00000013          	nop
    80805252:	00000013          	nop
    80805256:	00000013          	nop
    8080525a:	00000013          	nop
    8080525e:	00000013          	nop
    80805262:	00000013          	nop
    80805266:	00000013          	nop
    8080526a:	00000013          	nop
    8080526e:	00000013          	nop
    80805272:	00000013          	nop
    80805276:	00000013          	nop
    8080527a:	00000013          	nop
    8080527e:	00000013          	nop
    80805282:	00000013          	nop
    80805286:	00000013          	nop
    8080528a:	00000013          	nop
    8080528e:	00000013          	nop
    80805292:	00000013          	nop
    80805296:	00000013          	nop
    8080529a:	00000013          	nop
    8080529e:	00000013          	nop
    808052a2:	00000013          	nop
    808052a6:	00000013          	nop
    808052aa:	00000013          	nop
    808052ae:	00000013          	nop
    808052b2:	00000013          	nop
    808052b6:	00000013          	nop
    808052ba:	00000013          	nop
    808052be:	00000013          	nop
    808052c2:	00000013          	nop
    808052c6:	00000013          	nop
    808052ca:	00000013          	nop
    808052ce:	00000013          	nop
    808052d2:	00000013          	nop
    808052d6:	00000013          	nop
    808052da:	00000013          	nop
    808052de:	00000013          	nop
    808052e2:	00000013          	nop
    808052e6:	00000013          	nop
    808052ea:	00000013          	nop
    808052ee:	00000013          	nop
    808052f2:	00000013          	nop
    808052f6:	00000013          	nop
    808052fa:	00000013          	nop
    808052fe:	00000013          	nop
    80805302:	00000013          	nop
    80805306:	00000013          	nop
    8080530a:	00000013          	nop
    8080530e:	00000013          	nop
    80805312:	00000013          	nop
    80805316:	00000013          	nop
    8080531a:	00000013          	nop
    8080531e:	00000013          	nop
    80805322:	00000013          	nop
    80805326:	00000013          	nop
    8080532a:	00000013          	nop
    8080532e:	00000013          	nop
    80805332:	00000013          	nop
    80805336:	00000013          	nop
    8080533a:	00000013          	nop
    8080533e:	00000013          	nop
    80805342:	00000013          	nop
    80805346:	00000013          	nop
    8080534a:	00000013          	nop
    8080534e:	00000013          	nop
    80805352:	00000013          	nop
    80805356:	00000013          	nop
    8080535a:	00000013          	nop
    8080535e:	00000013          	nop
    80805362:	00000013          	nop
    80805366:	00000013          	nop
    8080536a:	00000013          	nop
    8080536e:	00000013          	nop
    80805372:	00000013          	nop
    80805376:	00000013          	nop
    8080537a:	00000013          	nop
    8080537e:	00000013          	nop
    80805382:	00000013          	nop
    80805386:	00000013          	nop
    8080538a:	00000013          	nop
    8080538e:	00000013          	nop
    80805392:	00000013          	nop
    80805396:	00000013          	nop
    8080539a:	00000013          	nop
    8080539e:	00000013          	nop
    808053a2:	00000013          	nop
    808053a6:	00000013          	nop
    808053aa:	00000013          	nop
    808053ae:	00000013          	nop
    808053b2:	00000013          	nop
    808053b6:	00000013          	nop
    808053ba:	00000013          	nop
    808053be:	00000013          	nop
    808053c2:	00000013          	nop
    808053c6:	00000013          	nop
    808053ca:	00000013          	nop
    808053ce:	00000013          	nop
    808053d2:	00000013          	nop
    808053d6:	00000013          	nop
    808053da:	00000013          	nop
    808053de:	00000013          	nop
    808053e2:	00000013          	nop
    808053e6:	00000013          	nop
    808053ea:	00000013          	nop
    808053ee:	00000013          	nop
    808053f2:	00000013          	nop
    808053f6:	00000013          	nop
    808053fa:	00000013          	nop
    808053fe:	00000013          	nop
    80805402:	00000013          	nop
    80805406:	00000013          	nop
    8080540a:	00000013          	nop
    8080540e:	00000013          	nop
    80805412:	00000013          	nop
    80805416:	00000013          	nop
    8080541a:	00000013          	nop
    8080541e:	00000013          	nop
    80805422:	00000013          	nop
    80805426:	00000013          	nop
    8080542a:	00000013          	nop
    8080542e:	00000013          	nop
    80805432:	00000013          	nop
    80805436:	00000013          	nop
    8080543a:	00000013          	nop
    8080543e:	00000013          	nop
    80805442:	00000013          	nop
    80805446:	00000013          	nop
    8080544a:	00000013          	nop
    8080544e:	00000013          	nop
    80805452:	00000013          	nop
    80805456:	00000013          	nop
    8080545a:	00000013          	nop
    8080545e:	00000013          	nop
    80805462:	00000013          	nop
    80805466:	00000013          	nop
    8080546a:	00000013          	nop
    8080546e:	00000013          	nop
    80805472:	00000013          	nop
    80805476:	00000013          	nop
    8080547a:	00000013          	nop
    8080547e:	00000013          	nop
    80805482:	00000013          	nop
    80805486:	00000013          	nop
    8080548a:	00000013          	nop
    8080548e:	00000013          	nop
    80805492:	00000013          	nop
    80805496:	00000013          	nop
    8080549a:	00000013          	nop
    8080549e:	00000013          	nop
    808054a2:	00000013          	nop
    808054a6:	00000013          	nop
    808054aa:	00000013          	nop
    808054ae:	00000013          	nop
    808054b2:	00000013          	nop
    808054b6:	00000013          	nop
    808054ba:	00000013          	nop
    808054be:	00000013          	nop
    808054c2:	00000013          	nop
    808054c6:	00000013          	nop
    808054ca:	00000013          	nop
    808054ce:	00000013          	nop
    808054d2:	00000013          	nop
    808054d6:	00000013          	nop
    808054da:	00000013          	nop
    808054de:	00000013          	nop
    808054e2:	00000013          	nop
    808054e6:	00000013          	nop
    808054ea:	00000013          	nop
    808054ee:	00000013          	nop
    808054f2:	00000013          	nop
    808054f6:	00000013          	nop
    808054fa:	00000013          	nop
    808054fe:	00000013          	nop
    80805502:	00000013          	nop
    80805506:	00000013          	nop
    8080550a:	00000013          	nop
    8080550e:	00000013          	nop
    80805512:	00000013          	nop
    80805516:	00000013          	nop
    8080551a:	00000013          	nop
    8080551e:	00000013          	nop
    80805522:	00000013          	nop
    80805526:	00000013          	nop
    8080552a:	00000013          	nop
    8080552e:	00000013          	nop
    80805532:	00000013          	nop
    80805536:	00000013          	nop
    8080553a:	00000013          	nop
    8080553e:	00000013          	nop
    80805542:	00000013          	nop
    80805546:	00000013          	nop
    8080554a:	00000013          	nop
    8080554e:	00000013          	nop
    80805552:	00000013          	nop
    80805556:	00000013          	nop
    8080555a:	00000013          	nop
    8080555e:	00000013          	nop
    80805562:	00000013          	nop
    80805566:	00000013          	nop
    8080556a:	00000013          	nop
    8080556e:	00000013          	nop
    80805572:	00000013          	nop
    80805576:	00000013          	nop
    8080557a:	00000013          	nop
    8080557e:	00000013          	nop
    80805582:	00000013          	nop
    80805586:	00000013          	nop
    8080558a:	00000013          	nop
    8080558e:	00000013          	nop
    80805592:	00000013          	nop
    80805596:	00000013          	nop
    8080559a:	00000013          	nop
    8080559e:	00000013          	nop
    808055a2:	00000013          	nop
    808055a6:	00000013          	nop
    808055aa:	00000013          	nop
    808055ae:	00000013          	nop
    808055b2:	00000013          	nop
    808055b6:	00000013          	nop
    808055ba:	00000013          	nop
    808055be:	00000013          	nop
    808055c2:	00000013          	nop
    808055c6:	00000013          	nop
    808055ca:	00000013          	nop
    808055ce:	00000013          	nop
    808055d2:	00000013          	nop
    808055d6:	00000013          	nop
    808055da:	00000013          	nop
    808055de:	00000013          	nop
    808055e2:	00000013          	nop
    808055e6:	00000013          	nop
    808055ea:	00000013          	nop
    808055ee:	00000013          	nop
    808055f2:	00000013          	nop
    808055f6:	00000013          	nop
    808055fa:	00000013          	nop
    808055fe:	00000013          	nop
    80805602:	00000013          	nop
    80805606:	00000013          	nop
    8080560a:	00000013          	nop
    8080560e:	00000013          	nop
    80805612:	00000013          	nop
    80805616:	00000013          	nop
    8080561a:	00000013          	nop
    8080561e:	00000013          	nop
    80805622:	00000013          	nop
    80805626:	00000013          	nop
    8080562a:	00000013          	nop
    8080562e:	00000013          	nop
    80805632:	00000013          	nop
    80805636:	00000013          	nop
    8080563a:	00000013          	nop
    8080563e:	00000013          	nop
    80805642:	00000013          	nop
    80805646:	00000013          	nop
    8080564a:	00000013          	nop
    8080564e:	00000013          	nop
    80805652:	00000013          	nop
    80805656:	00000013          	nop
    8080565a:	00000013          	nop
    8080565e:	00000013          	nop
    80805662:	00000013          	nop
    80805666:	00000013          	nop
    8080566a:	00000013          	nop
    8080566e:	00000013          	nop
    80805672:	00000013          	nop
    80805676:	00000013          	nop
    8080567a:	00000013          	nop
    8080567e:	00000013          	nop
    80805682:	00000013          	nop
    80805686:	00000013          	nop
    8080568a:	00000013          	nop
    8080568e:	00000013          	nop
    80805692:	00000013          	nop
    80805696:	00000013          	nop
    8080569a:	00000013          	nop
    8080569e:	00000013          	nop
    808056a2:	00000013          	nop
    808056a6:	00000013          	nop
    808056aa:	00000013          	nop
    808056ae:	00000013          	nop
    808056b2:	00000013          	nop
    808056b6:	00000013          	nop
    808056ba:	00000013          	nop
    808056be:	00000013          	nop
    808056c2:	00000013          	nop
    808056c6:	00000013          	nop
    808056ca:	00000013          	nop
    808056ce:	00000013          	nop
    808056d2:	00000013          	nop
    808056d6:	00000013          	nop
    808056da:	00000013          	nop
    808056de:	00000013          	nop
    808056e2:	00000013          	nop
    808056e6:	00000013          	nop
    808056ea:	00000013          	nop
    808056ee:	00000013          	nop
    808056f2:	00000013          	nop
    808056f6:	00000013          	nop
    808056fa:	00000013          	nop
    808056fe:	00000013          	nop
    80805702:	00000013          	nop
    80805706:	00000013          	nop
    8080570a:	00000013          	nop
    8080570e:	00000013          	nop
    80805712:	00000013          	nop
    80805716:	00000013          	nop
    8080571a:	00000013          	nop
    8080571e:	00000013          	nop
    80805722:	00000013          	nop
    80805726:	00000013          	nop
    8080572a:	00000013          	nop
    8080572e:	00000013          	nop
    80805732:	00000013          	nop
    80805736:	00000013          	nop
    8080573a:	00000013          	nop
    8080573e:	00000013          	nop
    80805742:	00000013          	nop
    80805746:	00000013          	nop
    8080574a:	00000013          	nop
    8080574e:	00000013          	nop
    80805752:	00000013          	nop
    80805756:	00000013          	nop
    8080575a:	00000013          	nop
    8080575e:	00000013          	nop
    80805762:	00000013          	nop
    80805766:	00000013          	nop
    8080576a:	00000013          	nop
    8080576e:	00000013          	nop
    80805772:	00000013          	nop
    80805776:	00000013          	nop
    8080577a:	00000013          	nop
    8080577e:	00000013          	nop
    80805782:	00000013          	nop
    80805786:	00000013          	nop
    8080578a:	00000013          	nop
    8080578e:	00000013          	nop
    80805792:	00000013          	nop
    80805796:	00000013          	nop
    8080579a:	00000013          	nop
    8080579e:	00000013          	nop
    808057a2:	00000013          	nop
    808057a6:	00000013          	nop
    808057aa:	00000013          	nop
    808057ae:	00000013          	nop
    808057b2:	00000013          	nop
    808057b6:	00000013          	nop
    808057ba:	00000013          	nop
    808057be:	00000013          	nop
    808057c2:	00000013          	nop
    808057c6:	00000013          	nop
    808057ca:	00000013          	nop
    808057ce:	00000013          	nop
    808057d2:	00000013          	nop
    808057d6:	00000013          	nop
    808057da:	00000013          	nop
    808057de:	00000013          	nop
    808057e2:	00000013          	nop
    808057e6:	00000013          	nop
    808057ea:	00000013          	nop
    808057ee:	00000013          	nop
    808057f2:	00000013          	nop
    808057f6:	00000013          	nop
    808057fa:	00000013          	nop
    808057fe:	00000013          	nop
    80805802:	00000013          	nop
    80805806:	00000013          	nop
    8080580a:	00000013          	nop
    8080580e:	00000013          	nop
    80805812:	00000013          	nop
    80805816:	00000013          	nop
    8080581a:	00000013          	nop
    8080581e:	00000013          	nop
    80805822:	00000013          	nop
    80805826:	00000013          	nop
    8080582a:	00000013          	nop
    8080582e:	00000013          	nop
    80805832:	00000013          	nop
    80805836:	00000013          	nop
    8080583a:	00000013          	nop
    8080583e:	00000013          	nop
    80805842:	00000013          	nop
    80805846:	00000013          	nop
    8080584a:	00000013          	nop
    8080584e:	00000013          	nop
    80805852:	00000013          	nop
    80805856:	00000013          	nop
    8080585a:	00000013          	nop
    8080585e:	00000013          	nop
    80805862:	00000013          	nop
    80805866:	00000013          	nop
    8080586a:	00000013          	nop
    8080586e:	00000013          	nop
    80805872:	00000013          	nop
    80805876:	00000013          	nop
    8080587a:	00000013          	nop
    8080587e:	00000013          	nop
    80805882:	00000013          	nop
    80805886:	00000013          	nop
    8080588a:	00000013          	nop
    8080588e:	00000013          	nop
    80805892:	00000013          	nop
    80805896:	00000013          	nop
    8080589a:	00000013          	nop
    8080589e:	00000013          	nop
    808058a2:	00000013          	nop
    808058a6:	00000013          	nop
    808058aa:	00000013          	nop
    808058ae:	00000013          	nop
    808058b2:	00000013          	nop
    808058b6:	00000013          	nop
    808058ba:	00000013          	nop
    808058be:	00000013          	nop
    808058c2:	00000013          	nop
    808058c6:	00000013          	nop
    808058ca:	00000013          	nop
    808058ce:	00000013          	nop
    808058d2:	00000013          	nop
    808058d6:	00000013          	nop
    808058da:	00000013          	nop
    808058de:	00000013          	nop
    808058e2:	00000013          	nop
    808058e6:	00000013          	nop
    808058ea:	00000013          	nop
    808058ee:	00000013          	nop
    808058f2:	00000013          	nop
    808058f6:	00000013          	nop
    808058fa:	00000013          	nop
    808058fe:	00000013          	nop
    80805902:	00000013          	nop
    80805906:	00000013          	nop
    8080590a:	00000013          	nop
    8080590e:	00000013          	nop
    80805912:	00000013          	nop
    80805916:	00000013          	nop
    8080591a:	00000013          	nop
    8080591e:	00000013          	nop
    80805922:	00000013          	nop
    80805926:	00000013          	nop
    8080592a:	00000013          	nop
    8080592e:	00000013          	nop
    80805932:	00000013          	nop
    80805936:	00000013          	nop
    8080593a:	00000013          	nop
    8080593e:	00000013          	nop
    80805942:	00000013          	nop
    80805946:	00000013          	nop
    8080594a:	00000013          	nop
    8080594e:	00000013          	nop
    80805952:	00000013          	nop
    80805956:	00000013          	nop
    8080595a:	00000013          	nop
    8080595e:	00000013          	nop
    80805962:	00000013          	nop
    80805966:	00000013          	nop
    8080596a:	00000013          	nop
    8080596e:	00000013          	nop
    80805972:	00000013          	nop
    80805976:	00000013          	nop
    8080597a:	00000013          	nop
    8080597e:	00000013          	nop
    80805982:	00000013          	nop
    80805986:	00000013          	nop
    8080598a:	00000013          	nop
    8080598e:	00000013          	nop
    80805992:	00000013          	nop
    80805996:	00000013          	nop
    8080599a:	00000013          	nop
    8080599e:	00000013          	nop
    808059a2:	00000013          	nop
    808059a6:	00000013          	nop
    808059aa:	00000013          	nop
    808059ae:	00000013          	nop
    808059b2:	00000013          	nop
    808059b6:	00000013          	nop
    808059ba:	00000013          	nop
    808059be:	00000013          	nop
    808059c2:	00000013          	nop
    808059c6:	00000013          	nop
    808059ca:	00000013          	nop
    808059ce:	00000013          	nop
    808059d2:	00000013          	nop
    808059d6:	00000013          	nop
    808059da:	00000013          	nop
    808059de:	00000013          	nop
    808059e2:	00000013          	nop
    808059e6:	00000013          	nop
    808059ea:	00000013          	nop
    808059ee:	00000013          	nop
    808059f2:	00000013          	nop
    808059f6:	00000013          	nop
    808059fa:	00000013          	nop
    808059fe:	00000013          	nop
    80805a02:	00000013          	nop
    80805a06:	00000013          	nop
    80805a0a:	00000013          	nop
    80805a0e:	00000013          	nop
    80805a12:	00000013          	nop
    80805a16:	00000013          	nop
    80805a1a:	00000013          	nop
    80805a1e:	00000013          	nop
    80805a22:	00000013          	nop
    80805a26:	00000013          	nop
    80805a2a:	00000013          	nop
    80805a2e:	00000013          	nop
    80805a32:	00000013          	nop
    80805a36:	00000013          	nop
    80805a3a:	00000013          	nop
    80805a3e:	00000013          	nop
    80805a42:	00000013          	nop
    80805a46:	00000013          	nop
    80805a4a:	00000013          	nop
    80805a4e:	00000013          	nop
    80805a52:	00000013          	nop
    80805a56:	00000013          	nop
    80805a5a:	00000013          	nop
    80805a5e:	00000013          	nop
    80805a62:	00000013          	nop
    80805a66:	00000013          	nop
    80805a6a:	00000013          	nop
    80805a6e:	00000013          	nop
    80805a72:	00000013          	nop
    80805a76:	00000013          	nop
    80805a7a:	00000013          	nop
    80805a7e:	00000013          	nop
    80805a82:	00000013          	nop
    80805a86:	00000013          	nop
    80805a8a:	00000013          	nop
    80805a8e:	00000013          	nop
    80805a92:	00000013          	nop
    80805a96:	00000013          	nop
    80805a9a:	00000013          	nop
    80805a9e:	00000013          	nop
    80805aa2:	00000013          	nop
    80805aa6:	00000013          	nop
    80805aaa:	00000013          	nop
    80805aae:	00000013          	nop
    80805ab2:	00000013          	nop
    80805ab6:	00000013          	nop
    80805aba:	00000013          	nop
    80805abe:	00000013          	nop
    80805ac2:	00000013          	nop
    80805ac6:	00000013          	nop
    80805aca:	00000013          	nop
    80805ace:	00000013          	nop
    80805ad2:	00000013          	nop
    80805ad6:	00000013          	nop
    80805ada:	00000013          	nop
    80805ade:	00000013          	nop
    80805ae2:	00000013          	nop
    80805ae6:	00000013          	nop
    80805aea:	00000013          	nop
    80805aee:	00000013          	nop
    80805af2:	00000013          	nop
    80805af6:	00000013          	nop
    80805afa:	00000013          	nop
    80805afe:	00000013          	nop
    80805b02:	00000013          	nop
    80805b06:	00000013          	nop
    80805b0a:	00000013          	nop
    80805b0e:	00000013          	nop
    80805b12:	00000013          	nop
    80805b16:	00000013          	nop
    80805b1a:	00000013          	nop
    80805b1e:	00000013          	nop
    80805b22:	00000013          	nop
    80805b26:	00000013          	nop
    80805b2a:	00000013          	nop
    80805b2e:	00000013          	nop
    80805b32:	00000013          	nop
    80805b36:	00000013          	nop
    80805b3a:	00000013          	nop
    80805b3e:	00000013          	nop
    80805b42:	00000013          	nop
    80805b46:	00000013          	nop
    80805b4a:	00000013          	nop
    80805b4e:	00000013          	nop
    80805b52:	00000013          	nop
    80805b56:	00000013          	nop
    80805b5a:	00000013          	nop
    80805b5e:	00000013          	nop
    80805b62:	00000013          	nop
    80805b66:	00000013          	nop
    80805b6a:	00000013          	nop
    80805b6e:	00000013          	nop
    80805b72:	00000013          	nop
    80805b76:	00000013          	nop
    80805b7a:	00000013          	nop
    80805b7e:	00000013          	nop
    80805b82:	00000013          	nop
    80805b86:	00000013          	nop
    80805b8a:	00000013          	nop
    80805b8e:	00000013          	nop
    80805b92:	00000013          	nop
    80805b96:	00000013          	nop
    80805b9a:	00000013          	nop
    80805b9e:	00000013          	nop
    80805ba2:	00000013          	nop
    80805ba6:	00000013          	nop
    80805baa:	00000013          	nop
    80805bae:	00000013          	nop
    80805bb2:	00000013          	nop
    80805bb6:	00000013          	nop
    80805bba:	00000013          	nop
    80805bbe:	00000013          	nop
    80805bc2:	00000013          	nop
    80805bc6:	00000013          	nop
    80805bca:	00000013          	nop
    80805bce:	00000013          	nop
    80805bd2:	00000013          	nop
    80805bd6:	00000013          	nop
    80805bda:	00000013          	nop
    80805bde:	00000013          	nop
    80805be2:	00000013          	nop
    80805be6:	00000013          	nop
    80805bea:	00000013          	nop
    80805bee:	00000013          	nop
    80805bf2:	00000013          	nop
    80805bf6:	00000013          	nop
    80805bfa:	00000013          	nop
    80805bfe:	00000013          	nop
    80805c02:	00000013          	nop
    80805c06:	00000013          	nop
    80805c0a:	00000013          	nop
    80805c0e:	00000013          	nop
    80805c12:	00000013          	nop
    80805c16:	00000013          	nop
    80805c1a:	00000013          	nop
    80805c1e:	00000013          	nop
    80805c22:	00000013          	nop
    80805c26:	00000013          	nop
    80805c2a:	00000013          	nop
    80805c2e:	00000013          	nop
    80805c32:	00000013          	nop
    80805c36:	00000013          	nop
    80805c3a:	00000013          	nop
    80805c3e:	00000013          	nop
    80805c42:	00000013          	nop
    80805c46:	00000013          	nop
    80805c4a:	00000013          	nop
    80805c4e:	00000013          	nop
    80805c52:	00000013          	nop
    80805c56:	00000013          	nop
    80805c5a:	00000013          	nop
    80805c5e:	00000013          	nop
    80805c62:	00000013          	nop
    80805c66:	00000013          	nop
    80805c6a:	00000013          	nop
    80805c6e:	00000013          	nop
    80805c72:	00000013          	nop
    80805c76:	00000013          	nop
    80805c7a:	00000013          	nop
    80805c7e:	00000013          	nop
    80805c82:	00000013          	nop
    80805c86:	00000013          	nop
    80805c8a:	00000013          	nop
    80805c8e:	00000013          	nop
    80805c92:	00000013          	nop
    80805c96:	00000013          	nop
    80805c9a:	00000013          	nop
    80805c9e:	00000013          	nop
    80805ca2:	00000013          	nop
    80805ca6:	00000013          	nop
    80805caa:	00000013          	nop
    80805cae:	00000013          	nop
    80805cb2:	00000013          	nop
    80805cb6:	00000013          	nop
    80805cba:	00000013          	nop
    80805cbe:	00000013          	nop
    80805cc2:	00000013          	nop
    80805cc6:	00000013          	nop
    80805cca:	00000013          	nop
    80805cce:	00000013          	nop
    80805cd2:	00000013          	nop
    80805cd6:	00000013          	nop
    80805cda:	00000013          	nop
    80805cde:	00000013          	nop
    80805ce2:	00000013          	nop
    80805ce6:	00000013          	nop
    80805cea:	00000013          	nop
    80805cee:	00000013          	nop
    80805cf2:	00000013          	nop
    80805cf6:	00000013          	nop
    80805cfa:	00000013          	nop
    80805cfe:	00000013          	nop
    80805d02:	00000013          	nop
    80805d06:	00000013          	nop
    80805d0a:	00000013          	nop
    80805d0e:	00000013          	nop
    80805d12:	00000013          	nop
    80805d16:	00000013          	nop
    80805d1a:	00000013          	nop
    80805d1e:	00000013          	nop
    80805d22:	00000013          	nop
    80805d26:	00000013          	nop
    80805d2a:	00000013          	nop
    80805d2e:	00000013          	nop
    80805d32:	00000013          	nop
    80805d36:	00000013          	nop
    80805d3a:	00000013          	nop
    80805d3e:	00000013          	nop
    80805d42:	00000013          	nop
    80805d46:	00000013          	nop
    80805d4a:	00000013          	nop
    80805d4e:	00000013          	nop
    80805d52:	00000013          	nop
    80805d56:	00000013          	nop
    80805d5a:	00000013          	nop
    80805d5e:	00000013          	nop
    80805d62:	00000013          	nop
    80805d66:	00000013          	nop
    80805d6a:	00000013          	nop
    80805d6e:	00000013          	nop
    80805d72:	00000013          	nop
    80805d76:	00000013          	nop
    80805d7a:	00000013          	nop
    80805d7e:	00000013          	nop
    80805d82:	00000013          	nop
    80805d86:	00000013          	nop
    80805d8a:	00000013          	nop
    80805d8e:	00000013          	nop
    80805d92:	00000013          	nop
    80805d96:	00000013          	nop
    80805d9a:	00000013          	nop
    80805d9e:	00000013          	nop
    80805da2:	00000013          	nop
    80805da6:	00000013          	nop
    80805daa:	00000013          	nop
    80805dae:	00000013          	nop
    80805db2:	00000013          	nop
    80805db6:	00000013          	nop
    80805dba:	00000013          	nop
    80805dbe:	00000013          	nop
    80805dc2:	00000013          	nop
    80805dc6:	00000013          	nop
    80805dca:	00000013          	nop
    80805dce:	00000013          	nop
    80805dd2:	00000013          	nop
    80805dd6:	00000013          	nop
    80805dda:	00000013          	nop
    80805dde:	00000013          	nop
    80805de2:	00000013          	nop
    80805de6:	00000013          	nop
    80805dea:	00000013          	nop
    80805dee:	00000013          	nop
    80805df2:	00000013          	nop
    80805df6:	00000013          	nop
    80805dfa:	00000013          	nop
    80805dfe:	00000013          	nop
    80805e02:	00000013          	nop
    80805e06:	00000013          	nop
    80805e0a:	00000013          	nop
    80805e0e:	00000013          	nop
    80805e12:	00000013          	nop
    80805e16:	00000013          	nop
    80805e1a:	00000013          	nop
    80805e1e:	00000013          	nop
    80805e22:	00000013          	nop
    80805e26:	00000013          	nop
    80805e2a:	00000013          	nop
    80805e2e:	00000013          	nop
    80805e32:	00000013          	nop
    80805e36:	00000013          	nop
    80805e3a:	00000013          	nop
    80805e3e:	00000013          	nop
    80805e42:	00000013          	nop
    80805e46:	00000013          	nop
    80805e4a:	00000013          	nop
    80805e4e:	00000013          	nop
    80805e52:	00000013          	nop
    80805e56:	00000013          	nop
    80805e5a:	00000013          	nop
    80805e5e:	00000013          	nop
    80805e62:	00000013          	nop
    80805e66:	00000013          	nop
    80805e6a:	00000013          	nop
    80805e6e:	00000013          	nop
    80805e72:	00000013          	nop
    80805e76:	00000013          	nop
    80805e7a:	00000013          	nop
    80805e7e:	00000013          	nop
    80805e82:	00000013          	nop
    80805e86:	00000013          	nop
    80805e8a:	00000013          	nop
    80805e8e:	00000013          	nop
    80805e92:	00000013          	nop
    80805e96:	00000013          	nop
    80805e9a:	00000013          	nop
    80805e9e:	00000013          	nop
    80805ea2:	00000013          	nop
    80805ea6:	00000013          	nop
    80805eaa:	00000013          	nop
    80805eae:	00000013          	nop
    80805eb2:	00000013          	nop
    80805eb6:	00000013          	nop
    80805eba:	00000013          	nop
    80805ebe:	00000013          	nop
    80805ec2:	00000013          	nop
    80805ec6:	00000013          	nop
    80805eca:	00000013          	nop
    80805ece:	00000013          	nop
    80805ed2:	00000013          	nop
    80805ed6:	00000013          	nop
    80805eda:	00000013          	nop
    80805ede:	00000013          	nop
    80805ee2:	00000013          	nop
    80805ee6:	00000013          	nop
    80805eea:	00000013          	nop
    80805eee:	00000013          	nop
    80805ef2:	00000013          	nop
    80805ef6:	00000013          	nop
    80805efa:	00000013          	nop
    80805efe:	00000013          	nop
    80805f02:	00000013          	nop
    80805f06:	00000013          	nop
    80805f0a:	00000013          	nop
    80805f0e:	00000013          	nop
    80805f12:	00000013          	nop
    80805f16:	00000013          	nop
    80805f1a:	00000013          	nop
    80805f1e:	00000013          	nop
    80805f22:	00000013          	nop
    80805f26:	00000013          	nop
    80805f2a:	00000013          	nop
    80805f2e:	00000013          	nop
    80805f32:	00000013          	nop
    80805f36:	00000013          	nop
    80805f3a:	00000013          	nop
    80805f3e:	00000013          	nop
    80805f42:	00000013          	nop
    80805f46:	00000013          	nop
    80805f4a:	00000013          	nop
    80805f4e:	00000013          	nop
    80805f52:	00000013          	nop
    80805f56:	00000013          	nop
    80805f5a:	00000013          	nop
    80805f5e:	00000013          	nop
    80805f62:	00000013          	nop
    80805f66:	00000013          	nop
    80805f6a:	00000013          	nop
    80805f6e:	00000013          	nop
    80805f72:	00000013          	nop
    80805f76:	00000013          	nop
    80805f7a:	00000013          	nop
    80805f7e:	00000013          	nop
    80805f82:	00000013          	nop
    80805f86:	00000013          	nop
    80805f8a:	00000013          	nop
    80805f8e:	00000013          	nop
    80805f92:	00000013          	nop
    80805f96:	00000013          	nop
    80805f9a:	00000013          	nop
    80805f9e:	00000013          	nop
    80805fa2:	00000013          	nop
    80805fa6:	00000013          	nop
    80805faa:	00000013          	nop
    80805fae:	00000013          	nop
    80805fb2:	00000013          	nop
    80805fb6:	00000013          	nop
    80805fba:	00000013          	nop
    80805fbe:	00000013          	nop
    80805fc2:	00000013          	nop
    80805fc6:	00000013          	nop
    80805fca:	00000013          	nop
    80805fce:	00000013          	nop
    80805fd2:	00000013          	nop
    80805fd6:	00000013          	nop
    80805fda:	00000013          	nop
    80805fde:	00000013          	nop
    80805fe2:	00000013          	nop
    80805fe6:	00000013          	nop
    80805fea:	00000013          	nop
    80805fee:	00000013          	nop
    80805ff2:	00000013          	nop
    80805ff6:	00000013          	nop
    80805ffa:	00000013          	nop
    80805ffe:	00000013          	nop
    80806002:	00000013          	nop
    80806006:	00000013          	nop
    8080600a:	00000013          	nop
    8080600e:	00000013          	nop
    80806012:	00000013          	nop
    80806016:	00000013          	nop
    8080601a:	00000013          	nop
    8080601e:	00000013          	nop
    80806022:	00000013          	nop
    80806026:	00000013          	nop
    8080602a:	00000013          	nop
    8080602e:	00000013          	nop
    80806032:	00000013          	nop
    80806036:	00000013          	nop
    8080603a:	00000013          	nop
    8080603e:	00000013          	nop
    80806042:	00000013          	nop
    80806046:	00000013          	nop
    8080604a:	00000013          	nop
    8080604e:	00000013          	nop
    80806052:	00000013          	nop
    80806056:	00000013          	nop
    8080605a:	00000013          	nop
    8080605e:	00000013          	nop
    80806062:	00000013          	nop
    80806066:	00000013          	nop
    8080606a:	00000013          	nop
    8080606e:	00000013          	nop
    80806072:	00000013          	nop
    80806076:	00000013          	nop
    8080607a:	00000013          	nop
    8080607e:	00000013          	nop
    80806082:	00000013          	nop
    80806086:	00000013          	nop
    8080608a:	00000013          	nop
    8080608e:	00000013          	nop
    80806092:	00000013          	nop
    80806096:	00000013          	nop
    8080609a:	00000013          	nop
    8080609e:	00000013          	nop
    808060a2:	00000013          	nop
    808060a6:	00000013          	nop
    808060aa:	00000013          	nop
    808060ae:	00000013          	nop
    808060b2:	00000013          	nop
    808060b6:	00000013          	nop
    808060ba:	00000013          	nop
    808060be:	00000013          	nop
    808060c2:	00000013          	nop
    808060c6:	00000013          	nop
    808060ca:	00000013          	nop
    808060ce:	00000013          	nop
    808060d2:	00000013          	nop
    808060d6:	00000013          	nop
    808060da:	00000013          	nop
    808060de:	00000013          	nop
    808060e2:	00000013          	nop
    808060e6:	00000013          	nop
    808060ea:	00000013          	nop
    808060ee:	00000013          	nop
    808060f2:	00000013          	nop
    808060f6:	00000013          	nop
    808060fa:	00000013          	nop
    808060fe:	00000013          	nop
    80806102:	00000013          	nop
    80806106:	00000013          	nop
    8080610a:	00000013          	nop
    8080610e:	00000013          	nop
    80806112:	00000013          	nop
    80806116:	00000013          	nop
    8080611a:	00000013          	nop
    8080611e:	00000013          	nop
    80806122:	00000013          	nop
    80806126:	00000013          	nop
    8080612a:	00000013          	nop
    8080612e:	00000013          	nop
    80806132:	00000013          	nop
    80806136:	00000013          	nop
    8080613a:	00000013          	nop
    8080613e:	00000013          	nop
    80806142:	00000013          	nop
    80806146:	00000013          	nop
    8080614a:	00000013          	nop
    8080614e:	00000013          	nop
    80806152:	00000013          	nop
    80806156:	00000013          	nop
    8080615a:	00000013          	nop
    8080615e:	00000013          	nop
    80806162:	00000013          	nop
    80806166:	00000013          	nop
    8080616a:	00000013          	nop
    8080616e:	00000013          	nop
    80806172:	00000013          	nop
    80806176:	00000013          	nop
    8080617a:	00000013          	nop
    8080617e:	00000013          	nop
    80806182:	00000013          	nop
    80806186:	00000013          	nop
    8080618a:	00000013          	nop
    8080618e:	00000013          	nop
    80806192:	00000013          	nop
    80806196:	00000013          	nop
    8080619a:	00000013          	nop
    8080619e:	00000013          	nop
    808061a2:	00000013          	nop
    808061a6:	00000013          	nop
    808061aa:	00000013          	nop
    808061ae:	00000013          	nop
    808061b2:	00000013          	nop
    808061b6:	00000013          	nop
    808061ba:	00000013          	nop
    808061be:	00000013          	nop
    808061c2:	00000013          	nop
    808061c6:	00000013          	nop
    808061ca:	00000013          	nop
    808061ce:	00000013          	nop
    808061d2:	00000013          	nop
    808061d6:	00000013          	nop
    808061da:	00000013          	nop
    808061de:	00000013          	nop
    808061e2:	00000013          	nop
    808061e6:	00000013          	nop
    808061ea:	00000013          	nop
    808061ee:	00000013          	nop
    808061f2:	00000013          	nop
    808061f6:	00000013          	nop
    808061fa:	00000013          	nop
    808061fe:	00000013          	nop
    80806202:	00000013          	nop
    80806206:	00000013          	nop
    8080620a:	00000013          	nop
    8080620e:	00000013          	nop
    80806212:	00000013          	nop
    80806216:	00000013          	nop
    8080621a:	00000013          	nop
    8080621e:	00000013          	nop
    80806222:	00000013          	nop
    80806226:	00000013          	nop
    8080622a:	00000013          	nop
    8080622e:	00000013          	nop
    80806232:	00000013          	nop
    80806236:	00000013          	nop
    8080623a:	00000013          	nop
    8080623e:	00000013          	nop
    80806242:	00000013          	nop
    80806246:	00000013          	nop
    8080624a:	00000013          	nop
    8080624e:	00000013          	nop
    80806252:	00000013          	nop
    80806256:	00000013          	nop
    8080625a:	00000013          	nop
    8080625e:	00000013          	nop
    80806262:	00000013          	nop
    80806266:	00000013          	nop
    8080626a:	00000013          	nop
    8080626e:	00000013          	nop
    80806272:	00000013          	nop
    80806276:	00000013          	nop
    8080627a:	00000013          	nop
    8080627e:	00000013          	nop
    80806282:	00000013          	nop
    80806286:	00000013          	nop
    8080628a:	00000013          	nop
    8080628e:	00000013          	nop
    80806292:	00000013          	nop
    80806296:	00000013          	nop
    8080629a:	00000013          	nop
    8080629e:	00000013          	nop
    808062a2:	00000013          	nop
    808062a6:	00000013          	nop
    808062aa:	00000013          	nop
    808062ae:	00000013          	nop
    808062b2:	00000013          	nop
    808062b6:	00000013          	nop
    808062ba:	00000013          	nop
    808062be:	00000013          	nop
    808062c2:	00000013          	nop
    808062c6:	00000013          	nop
    808062ca:	00000013          	nop
    808062ce:	00000013          	nop
    808062d2:	00000013          	nop
    808062d6:	00000013          	nop
    808062da:	00000013          	nop
    808062de:	00000013          	nop
    808062e2:	00000013          	nop
    808062e6:	00000013          	nop
    808062ea:	00000013          	nop
    808062ee:	00000013          	nop
    808062f2:	00000013          	nop
    808062f6:	00000013          	nop
    808062fa:	00000013          	nop
    808062fe:	00000013          	nop
    80806302:	00000013          	nop
    80806306:	00000013          	nop
    8080630a:	00000013          	nop
    8080630e:	00000013          	nop
    80806312:	00000013          	nop
    80806316:	00000013          	nop
    8080631a:	00000013          	nop
    8080631e:	00000013          	nop
    80806322:	00000013          	nop
    80806326:	00000013          	nop
    8080632a:	00000013          	nop
    8080632e:	00000013          	nop
    80806332:	00000013          	nop
    80806336:	00000013          	nop
    8080633a:	00000013          	nop
    8080633e:	00000013          	nop
    80806342:	00000013          	nop
    80806346:	00000013          	nop
    8080634a:	00000013          	nop
    8080634e:	00000013          	nop
    80806352:	00000013          	nop
    80806356:	00000013          	nop
    8080635a:	00000013          	nop
    8080635e:	00000013          	nop
    80806362:	00000013          	nop
    80806366:	00000013          	nop
    8080636a:	00000013          	nop
    8080636e:	00000013          	nop
    80806372:	00000013          	nop
    80806376:	00000013          	nop
    8080637a:	00000013          	nop
    8080637e:	00000013          	nop
    80806382:	00000013          	nop
    80806386:	00000013          	nop
    8080638a:	00000013          	nop
    8080638e:	00000013          	nop
    80806392:	00000013          	nop
    80806396:	00000013          	nop
    8080639a:	00000013          	nop
    8080639e:	00000013          	nop
    808063a2:	00000013          	nop
    808063a6:	00000013          	nop
    808063aa:	00000013          	nop
    808063ae:	00000013          	nop
    808063b2:	00000013          	nop
    808063b6:	00000013          	nop
    808063ba:	00000013          	nop
    808063be:	00000013          	nop
    808063c2:	00000013          	nop
    808063c6:	00000013          	nop
    808063ca:	00000013          	nop
    808063ce:	00000013          	nop
    808063d2:	00000013          	nop
    808063d6:	00000013          	nop
    808063da:	00000013          	nop
    808063de:	00000013          	nop
    808063e2:	00000013          	nop
    808063e6:	00000013          	nop
    808063ea:	00000013          	nop
    808063ee:	00000013          	nop
    808063f2:	00000013          	nop
    808063f6:	00000013          	nop
    808063fa:	00000013          	nop
    808063fe:	00000013          	nop
    80806402:	00000013          	nop
    80806406:	00000013          	nop
    8080640a:	00000013          	nop
    8080640e:	00000013          	nop
    80806412:	00000013          	nop
    80806416:	00000013          	nop
    8080641a:	00000013          	nop
    8080641e:	00000013          	nop
    80806422:	00000013          	nop
    80806426:	00000013          	nop
    8080642a:	00000013          	nop
    8080642e:	00000013          	nop
    80806432:	00000013          	nop
    80806436:	00000013          	nop
    8080643a:	00000013          	nop
    8080643e:	00000013          	nop
    80806442:	00000013          	nop
    80806446:	00000013          	nop
    8080644a:	00000013          	nop
    8080644e:	00000013          	nop
    80806452:	00000013          	nop
    80806456:	00000013          	nop
    8080645a:	00000013          	nop
    8080645e:	00000013          	nop
    80806462:	00000013          	nop
    80806466:	00000013          	nop
    8080646a:	00000013          	nop
    8080646e:	00000013          	nop
    80806472:	00000013          	nop
    80806476:	00000013          	nop
    8080647a:	00000013          	nop
    8080647e:	00000013          	nop
    80806482:	00000013          	nop
    80806486:	00000013          	nop
    8080648a:	00000013          	nop
    8080648e:	00000013          	nop
    80806492:	00000013          	nop
    80806496:	00000013          	nop
    8080649a:	00000013          	nop
    8080649e:	00000013          	nop
    808064a2:	00000013          	nop
    808064a6:	00000013          	nop
    808064aa:	00000013          	nop
    808064ae:	00000013          	nop
    808064b2:	00000013          	nop
    808064b6:	00000013          	nop
    808064ba:	00000013          	nop
    808064be:	00000013          	nop
    808064c2:	00000013          	nop
    808064c6:	00000013          	nop
    808064ca:	00000013          	nop
    808064ce:	00000013          	nop
    808064d2:	00000013          	nop
    808064d6:	00000013          	nop
    808064da:	00000013          	nop
    808064de:	00000013          	nop
    808064e2:	00000013          	nop
    808064e6:	00000013          	nop
    808064ea:	00000013          	nop
    808064ee:	00000013          	nop
    808064f2:	00000013          	nop
    808064f6:	00000013          	nop
    808064fa:	00000013          	nop
    808064fe:	00000013          	nop
    80806502:	00000013          	nop
    80806506:	00000013          	nop
    8080650a:	00000013          	nop
    8080650e:	00000013          	nop
    80806512:	00000013          	nop
    80806516:	00000013          	nop
    8080651a:	00000013          	nop
    8080651e:	00000013          	nop
    80806522:	00000013          	nop
    80806526:	00000013          	nop
    8080652a:	00000013          	nop
    8080652e:	00000013          	nop
    80806532:	00000013          	nop
    80806536:	00000013          	nop
    8080653a:	00000013          	nop
    8080653e:	00000013          	nop
    80806542:	00000013          	nop
    80806546:	00000013          	nop
    8080654a:	00000013          	nop
    8080654e:	00000013          	nop
    80806552:	00000013          	nop
    80806556:	00000013          	nop
    8080655a:	00000013          	nop
    8080655e:	00000013          	nop
    80806562:	00000013          	nop
    80806566:	00000013          	nop
    8080656a:	00000013          	nop
    8080656e:	00000013          	nop
    80806572:	00000013          	nop
    80806576:	00000013          	nop
    8080657a:	00000013          	nop
    8080657e:	00000013          	nop
    80806582:	00000013          	nop
    80806586:	00000013          	nop
    8080658a:	00000013          	nop
    8080658e:	00000013          	nop
    80806592:	00000013          	nop
    80806596:	00000013          	nop
    8080659a:	00000013          	nop
    8080659e:	00000013          	nop
    808065a2:	00000013          	nop
    808065a6:	00000013          	nop
    808065aa:	00000013          	nop
    808065ae:	00000013          	nop
    808065b2:	00000013          	nop
    808065b6:	00000013          	nop
    808065ba:	00000013          	nop
    808065be:	00000013          	nop
    808065c2:	00000013          	nop
    808065c6:	00000013          	nop
    808065ca:	00000013          	nop
    808065ce:	00000013          	nop
    808065d2:	00000013          	nop
    808065d6:	00000013          	nop
    808065da:	00000013          	nop
    808065de:	00000013          	nop
    808065e2:	00000013          	nop
    808065e6:	00000013          	nop
    808065ea:	00000013          	nop
    808065ee:	00000013          	nop
    808065f2:	00000013          	nop
    808065f6:	00000013          	nop
    808065fa:	00000013          	nop
    808065fe:	00000013          	nop
    80806602:	00000013          	nop
    80806606:	00000013          	nop
    8080660a:	00000013          	nop
    8080660e:	00000013          	nop
    80806612:	00000013          	nop
    80806616:	00000013          	nop
    8080661a:	00000013          	nop
    8080661e:	00000013          	nop
    80806622:	00000013          	nop
    80806626:	00000013          	nop
    8080662a:	00000013          	nop
    8080662e:	00000013          	nop
    80806632:	00000013          	nop
    80806636:	00000013          	nop
    8080663a:	00000013          	nop
    8080663e:	00000013          	nop
    80806642:	00000013          	nop
    80806646:	00000013          	nop
    8080664a:	00000013          	nop
    8080664e:	00000013          	nop
    80806652:	00000013          	nop
    80806656:	00000013          	nop
    8080665a:	00000013          	nop
    8080665e:	00000013          	nop
    80806662:	00000013          	nop
    80806666:	00000013          	nop
    8080666a:	00000013          	nop
    8080666e:	00000013          	nop
    80806672:	00000013          	nop
    80806676:	00000013          	nop
    8080667a:	00000013          	nop
    8080667e:	00000013          	nop
    80806682:	00000013          	nop
    80806686:	00000013          	nop
    8080668a:	00000013          	nop
    8080668e:	00000013          	nop
    80806692:	00000013          	nop
    80806696:	00000013          	nop
    8080669a:	00000013          	nop
    8080669e:	00000013          	nop
    808066a2:	00000013          	nop
    808066a6:	00000013          	nop
    808066aa:	00000013          	nop
    808066ae:	00000013          	nop
    808066b2:	00000013          	nop
    808066b6:	00000013          	nop
    808066ba:	00000013          	nop
    808066be:	00000013          	nop
    808066c2:	00000013          	nop
    808066c6:	00000013          	nop
    808066ca:	00000013          	nop
    808066ce:	00000013          	nop
    808066d2:	00000013          	nop
    808066d6:	00000013          	nop
    808066da:	00000013          	nop
    808066de:	00000013          	nop
    808066e2:	00000013          	nop
    808066e6:	00000013          	nop
    808066ea:	00000013          	nop
    808066ee:	00000013          	nop
    808066f2:	00000013          	nop
    808066f6:	00000013          	nop
    808066fa:	00000013          	nop
    808066fe:	00000013          	nop
    80806702:	00000013          	nop
    80806706:	00000013          	nop
    8080670a:	00000013          	nop
    8080670e:	00000013          	nop
    80806712:	00000013          	nop
    80806716:	00000013          	nop
    8080671a:	00000013          	nop
    8080671e:	00000013          	nop
    80806722:	00000013          	nop
    80806726:	00000013          	nop
    8080672a:	00000013          	nop
    8080672e:	00000013          	nop
    80806732:	00000013          	nop
    80806736:	00000013          	nop
    8080673a:	00000013          	nop
    8080673e:	00000013          	nop
    80806742:	00000013          	nop
    80806746:	00000013          	nop
    8080674a:	00000013          	nop
    8080674e:	00000013          	nop
    80806752:	00000013          	nop
    80806756:	00000013          	nop
    8080675a:	00000013          	nop
    8080675e:	00000013          	nop
    80806762:	00000013          	nop
    80806766:	00000013          	nop
    8080676a:	00000013          	nop
    8080676e:	00000013          	nop
    80806772:	00000013          	nop
    80806776:	00000013          	nop
    8080677a:	00000013          	nop
    8080677e:	00000013          	nop
    80806782:	00000013          	nop
    80806786:	00000013          	nop
    8080678a:	00000013          	nop
    8080678e:	00000013          	nop
    80806792:	00000013          	nop
    80806796:	00000013          	nop
    8080679a:	00000013          	nop
    8080679e:	00000013          	nop
    808067a2:	00000013          	nop
    808067a6:	00000013          	nop
    808067aa:	00000013          	nop
    808067ae:	00000013          	nop
    808067b2:	00000013          	nop
    808067b6:	00000013          	nop
    808067ba:	00000013          	nop
    808067be:	00000013          	nop
    808067c2:	00000013          	nop
    808067c6:	00000013          	nop
    808067ca:	00000013          	nop
    808067ce:	00000013          	nop
    808067d2:	00000013          	nop
    808067d6:	00000013          	nop
    808067da:	00000013          	nop
    808067de:	00000013          	nop
    808067e2:	00000013          	nop
    808067e6:	00000013          	nop
    808067ea:	00000013          	nop
    808067ee:	00000013          	nop
    808067f2:	00000013          	nop
    808067f6:	00000013          	nop
    808067fa:	00000013          	nop
    808067fe:	00000013          	nop
    80806802:	00000013          	nop
    80806806:	00000013          	nop
    8080680a:	00000013          	nop
    8080680e:	00000013          	nop
    80806812:	00000013          	nop
    80806816:	00000013          	nop
    8080681a:	00000013          	nop
    8080681e:	00000013          	nop
    80806822:	00000013          	nop
    80806826:	00000013          	nop
    8080682a:	00000013          	nop
    8080682e:	00000013          	nop
    80806832:	00000013          	nop
    80806836:	00000013          	nop
    8080683a:	00000013          	nop
    8080683e:	00000013          	nop
    80806842:	00000013          	nop
    80806846:	00000013          	nop
    8080684a:	00000013          	nop
    8080684e:	00000013          	nop
    80806852:	00000013          	nop
    80806856:	00000013          	nop
    8080685a:	00000013          	nop
    8080685e:	00000013          	nop
    80806862:	00000013          	nop
    80806866:	00000013          	nop
    8080686a:	00000013          	nop
    8080686e:	00000013          	nop
    80806872:	00000013          	nop
    80806876:	00000013          	nop
    8080687a:	00000013          	nop
    8080687e:	00000013          	nop
    80806882:	00000013          	nop
    80806886:	00000013          	nop
    8080688a:	00000013          	nop
    8080688e:	00000013          	nop
    80806892:	00000013          	nop
    80806896:	00000013          	nop
    8080689a:	00000013          	nop
    8080689e:	00000013          	nop
    808068a2:	00000013          	nop
    808068a6:	00000013          	nop
    808068aa:	00000013          	nop
    808068ae:	00000013          	nop
    808068b2:	00000013          	nop
    808068b6:	00000013          	nop
    808068ba:	00000013          	nop
    808068be:	00000013          	nop
    808068c2:	00000013          	nop
    808068c6:	00000013          	nop
    808068ca:	00000013          	nop
    808068ce:	00000013          	nop
    808068d2:	00000013          	nop
    808068d6:	00000013          	nop
    808068da:	00000013          	nop
    808068de:	00000013          	nop
    808068e2:	00000013          	nop
    808068e6:	00000013          	nop
    808068ea:	00000013          	nop
    808068ee:	00000013          	nop
    808068f2:	00000013          	nop
    808068f6:	00000013          	nop
    808068fa:	00000013          	nop
    808068fe:	00000013          	nop
    80806902:	00000013          	nop
    80806906:	00000013          	nop
    8080690a:	00000013          	nop
    8080690e:	00000013          	nop
    80806912:	00000013          	nop
    80806916:	00000013          	nop
    8080691a:	00000013          	nop
    8080691e:	00000013          	nop
    80806922:	00000013          	nop
    80806926:	00000013          	nop
    8080692a:	00000013          	nop
    8080692e:	00000013          	nop
    80806932:	00000013          	nop
    80806936:	00000013          	nop
    8080693a:	00000013          	nop
    8080693e:	00000013          	nop
    80806942:	00000013          	nop
    80806946:	00000013          	nop
    8080694a:	00000013          	nop
    8080694e:	00000013          	nop
    80806952:	00000013          	nop
    80806956:	00000013          	nop
    8080695a:	00000013          	nop
    8080695e:	00000013          	nop
    80806962:	00000013          	nop
    80806966:	00000013          	nop
    8080696a:	00000013          	nop
    8080696e:	00000013          	nop
    80806972:	00000013          	nop
    80806976:	00000013          	nop
