
kernel.elf:     file format elf64-littleriscv

Sections:
Idx Name          Size      VMA               LMA               File off  Algn
  0 .text         000010f4  0000000080000000  0000000080000000  00001000  2**4
                  CONTENTS, ALLOC, LOAD, READONLY, CODE
  1 .rodata       00000018  00000000800010f8  00000000800010f8  000020f8  2**3
                  CONTENTS, ALLOC, LOAD, READONLY, DATA
  2 .data         0000002c  0000000080001110  0000000080001110  00002110  2**3
                  CONTENTS, ALLOC, LOAD, DATA
  3 .bss          00000000  000000008000113c  000000008000113c  0000213c  2**0
                  ALLOC
  4 .riscv.attributes 00000035  0000000000000000  0000000000000000  0000213c  2**0
                  CONTENTS, READONLY
  5 .comment      00000011  0000000000000000  0000000000000000  00002171  2**0
                  CONTENTS, READONLY
  6 .debug_line   000010e4  0000000000000000  0000000000000000  00002182  2**0
                  CONTENTS, READONLY, DEBUGGING
  7 .debug_info   00000c3d  0000000000000000  0000000000000000  00003266  2**0
                  CONTENTS, READONLY, DEBUGGING
  8 .debug_abbrev 00000542  0000000000000000  0000000000000000  00003ea3  2**0
                  CONTENTS, READONLY, DEBUGGING
  9 .debug_aranges 00000180  0000000000000000  0000000000000000  000043f0  2**4
                  CONTENTS, READONLY, DEBUGGING
 10 .debug_str    00000293  0000000000000000  0000000000000000  00004570  2**0
                  CONTENTS, READONLY, DEBUGGING
 11 .debug_frame  00000718  0000000000000000  0000000000000000  00004808  2**3
                  CONTENTS, READONLY, DEBUGGING

Disassembly of section .text:

0000000080000000 <_startup>:
.section .startup,"ax",%progbits

.global _startup
.type _startup, %function
_startup:
    la sp, _estack
    80000000:	00002117          	auipc	sp,0x2
    80000004:	14010113          	addi	sp,sp,320 # 80002140 <_estack>
    call main
    80000008:	072000ef          	jal	ra,8000007a <main>

000000008000000c <_junk>:
_junk:
    j _junk
    8000000c:	a001                	j	8000000c <_junk>
	...

0000000080000010 <kernelvec>:

.global kernelvec
.type kernelvec, %function
.align 4
kernelvec:
        j kernelvec
    80000010:	a001                	j	80000010 <kernelvec>

0000000080000012 <r_mstatus>:
#define MSTATUS_MPP_M (3L << 11)
#define MSTATUS_MPP_S (1L << 11)
#define MSTATUS_MPP_U (0L << 11)
#define MSTATUS_MIE (1L << 3)    // machine-mode interrupt enable.

static inline uint64_t r_mstatus() {
    80000012:	1101                	addi	sp,sp,-32
    80000014:	ec22                	sd	s0,24(sp)
    80000016:	1000                	addi	s0,sp,32
  uint64_t x;
  asm volatile("csrr %0, mstatus" : "=r" (x) );
    80000018:	300027f3          	csrr	a5,mstatus
    8000001c:	fef43423          	sd	a5,-24(s0)
  return x;
    80000020:	fe843783          	ld	a5,-24(s0)
}
    80000024:	853e                	mv	a0,a5
    80000026:	6462                	ld	s0,24(sp)
    80000028:	6105                	addi	sp,sp,32
    8000002a:	8082                	ret

000000008000002c <w_mstatus>:

static inline void  w_mstatus(uint64_t x) {
    8000002c:	1101                	addi	sp,sp,-32
    8000002e:	ec22                	sd	s0,24(sp)
    80000030:	1000                	addi	s0,sp,32
    80000032:	fea43423          	sd	a0,-24(s0)
  asm volatile("csrw mstatus, %0" : : "r" (x));
    80000036:	fe843783          	ld	a5,-24(s0)
    8000003a:	30079073          	csrw	mstatus,a5
}
    8000003e:	0001                	nop
    80000040:	6462                	ld	s0,24(sp)
    80000042:	6105                	addi	sp,sp,32
    80000044:	8082                	ret

0000000080000046 <w_mepc>:

// machine exception program counter, holds the
// instruction address to which a return from
// exception will go.
static inline void  w_mepc(uint64_t x) {
    80000046:	1101                	addi	sp,sp,-32
    80000048:	ec22                	sd	s0,24(sp)
    8000004a:	1000                	addi	s0,sp,32
    8000004c:	fea43423          	sd	a0,-24(s0)
  asm volatile("csrw mepc, %0" : : "r" (x));
    80000050:	fe843783          	ld	a5,-24(s0)
    80000054:	34179073          	csrw	mepc,a5
}
    80000058:	0001                	nop
    8000005a:	6462                	ld	s0,24(sp)
    8000005c:	6105                	addi	sp,sp,32
    8000005e:	8082                	ret

0000000080000060 <w_mtvec>:
  asm volatile("csrr %0, stvec" : "=r" (x) );
  return x;
}

// Machine-mode interrupt vector
static inline void  w_mtvec(uint64_t x) {
    80000060:	1101                	addi	sp,sp,-32
    80000062:	ec22                	sd	s0,24(sp)
    80000064:	1000                	addi	s0,sp,32
    80000066:	fea43423          	sd	a0,-24(s0)
  asm volatile("csrw mtvec, %0" : : "r" (x));
    8000006a:	fe843783          	ld	a5,-24(s0)
    8000006e:	30579073          	csrw	mtvec,a5
}
    80000072:	0001                	nop
    80000074:	6462                	ld	s0,24(sp)
    80000076:	6105                	addi	sp,sp,32
    80000078:	8082                	ret

000000008000007a <main>:
#include "riscv.h"

void user();
extern void kernelvec();

void main() {
    8000007a:	1101                	addi	sp,sp,-32
    8000007c:	ec06                	sd	ra,24(sp)
    8000007e:	e822                	sd	s0,16(sp)
    80000080:	1000                	addi	s0,sp,32
    // set up init
    uartinit();
    80000082:	060000ef          	jal	ra,800000e2 <uartinit>

    // set M Previous Privilege mode to User Mode, for mret.
    unsigned long x = r_mstatus();
    80000086:	f8dff0ef          	jal	ra,80000012 <r_mstatus>
    8000008a:	fea43423          	sd	a0,-24(s0)
    x &= ~MSTATUS_MPP_MASK; // clear specific mpp bits
    8000008e:	fe843703          	ld	a4,-24(s0)
    80000092:	77f9                	lui	a5,0xffffe
    80000094:	7ff78793          	addi	a5,a5,2047 # ffffffffffffe7ff <_estack+0xffffffff7fffc6bf>
    80000098:	8ff9                	and	a5,a5,a4
    8000009a:	fef43423          	sd	a5,-24(s0)
    x |= MSTATUS_MPP_U; // set mpp bits
    w_mstatus(x);
    8000009e:	fe843503          	ld	a0,-24(s0)
    800000a2:	f8bff0ef          	jal	ra,8000002c <w_mstatus>

    // set M Exception Program Counter to user, for mret.
    // requires gcc -mcmodel=medany
    w_mepc((uint64_t)user);
    800000a6:	00000797          	auipc	a5,0x0
    800000aa:	02a78793          	addi	a5,a5,42 # 800000d0 <user>
    800000ae:	853e                	mv	a0,a5
    800000b0:	f97ff0ef          	jal	ra,80000046 <w_mepc>

    // set up kernel trap vector
    w_mtvec((uint64_t)kernelvec);
    800000b4:	00000797          	auipc	a5,0x0
    800000b8:	f5c78793          	addi	a5,a5,-164 # 80000010 <kernelvec>
    800000bc:	853e                	mv	a0,a5
    800000be:	fa3ff0ef          	jal	ra,80000060 <w_mtvec>

    // switch to supervisor mode and jump to main().
    asm volatile("mret");
    800000c2:	30200073          	mret
    // char animal[20];
    // UART_printf("What did you see at the zoo?\n");
    // UART_read_str(animal, 20);
    
    // UART_printf("You went to the zoo and see a %s.\n", animal);
}
    800000c6:	0001                	nop
    800000c8:	60e2                	ld	ra,24(sp)
    800000ca:	6442                	ld	s0,16(sp)
    800000cc:	6105                	addi	sp,sp,32
    800000ce:	8082                	ret

00000000800000d0 <user>:

void user() {
    800000d0:	1141                	addi	sp,sp,-16
    800000d2:	e422                	sd	s0,8(sp)
    800000d4:	0800                	addi	s0,sp,16
    // printf("Hello World!\n");
    asm volatile ("ecall");
    800000d6:	00000073          	ecall
    800000da:	0001                	nop
    800000dc:	6422                	ld	s0,8(sp)
    800000de:	0141                	addi	sp,sp,16
    800000e0:	8082                	ret

00000000800000e2 <uartinit>:
#define LSR 5 // line status register

#define ReadReg(reg) (*(Reg(reg)))
#define WriteReg(reg, v) (*(Reg(reg)) = (v))

void uartinit() {
    800000e2:	1141                	addi	sp,sp,-16
    800000e4:	e422                	sd	s0,8(sp)
    800000e6:	0800                	addi	s0,sp,16
    // disable interrupts.
    WriteReg(IER, 0x00);
    800000e8:	100007b7          	lui	a5,0x10000
    800000ec:	0785                	addi	a5,a5,1
    800000ee:	00078023          	sb	zero,0(a5) # 10000000 <_stack_size+0xffff000>

    // special mode to set baud rate.
    WriteReg(LCR, 0x80);
    800000f2:	100007b7          	lui	a5,0x10000
    800000f6:	078d                	addi	a5,a5,3
    800000f8:	f8000713          	li	a4,-128
    800000fc:	00e78023          	sb	a4,0(a5) # 10000000 <_stack_size+0xffff000>

    // LSB for baud rate of 38.4K.
    WriteReg(0, 0x03);
    80000100:	100007b7          	lui	a5,0x10000
    80000104:	470d                	li	a4,3
    80000106:	00e78023          	sb	a4,0(a5) # 10000000 <_stack_size+0xffff000>

    // MSB for baud rate of 38.4K.
    WriteReg(1, 0x00);
    8000010a:	100007b7          	lui	a5,0x10000
    8000010e:	0785                	addi	a5,a5,1
    80000110:	00078023          	sb	zero,0(a5) # 10000000 <_stack_size+0xffff000>

    // leave set-baud mode,
    // and set word length to 8 bits, no parity.
    WriteReg(LCR, 0x03);
    80000114:	100007b7          	lui	a5,0x10000
    80000118:	078d                	addi	a5,a5,3
    8000011a:	470d                	li	a4,3
    8000011c:	00e78023          	sb	a4,0(a5) # 10000000 <_stack_size+0xffff000>

    // reset and enable FIFOs.
    WriteReg(FCR, 0x07);
    80000120:	100007b7          	lui	a5,0x10000
    80000124:	0789                	addi	a5,a5,2
    80000126:	471d                	li	a4,7
    80000128:	00e78023          	sb	a4,0(a5) # 10000000 <_stack_size+0xffff000>

    // enable receive interrupts.
    WriteReg(IER, 0x01);
    8000012c:	100007b7          	lui	a5,0x10000
    80000130:	0785                	addi	a5,a5,1
    80000132:	4705                	li	a4,1
    80000134:	00e78023          	sb	a4,0(a5) # 10000000 <_stack_size+0xffff000>
}
    80000138:	0001                	nop
    8000013a:	6422                	ld	s0,8(sp)
    8000013c:	0141                	addi	sp,sp,16
    8000013e:	8082                	ret

0000000080000140 <write>:

// write one output character to the UART.
void write(char c) {
    80000140:	1101                	addi	sp,sp,-32
    80000142:	ec22                	sd	s0,24(sp)
    80000144:	1000                	addi	s0,sp,32
    80000146:	87aa                	mv	a5,a0
    80000148:	fef407a3          	sb	a5,-17(s0)
    // wait for Transmit Holding Empty to be set in LSR.
    while((ReadReg(LSR) & (1 << 5)) == 0)
    8000014c:	0001                	nop
    8000014e:	100007b7          	lui	a5,0x10000
    80000152:	0795                	addi	a5,a5,5
    80000154:	0007c783          	lbu	a5,0(a5) # 10000000 <_stack_size+0xffff000>
    80000158:	0ff7f793          	andi	a5,a5,255
    8000015c:	2781                	sext.w	a5,a5
    8000015e:	0207f793          	andi	a5,a5,32
    80000162:	2781                	sext.w	a5,a5
    80000164:	d7ed                	beqz	a5,8000014e <write+0xe>
        ;
    WriteReg(THR, c);
    80000166:	100007b7          	lui	a5,0x10000
    8000016a:	fef44703          	lbu	a4,-17(s0)
    8000016e:	00e78023          	sb	a4,0(a5) # 10000000 <_stack_size+0xffff000>
}
    80000172:	0001                	nop
    80000174:	6462                	ld	s0,24(sp)
    80000176:	6105                	addi	sp,sp,32
    80000178:	8082                	ret

000000008000017a <read>:

// read one input character from the UART.
// return -1 if none is waiting.
char read() {
    8000017a:	1141                	addi	sp,sp,-16
    8000017c:	e422                	sd	s0,8(sp)
    8000017e:	0800                	addi	s0,sp,16
    if(ReadReg(LSR) & 0x01){
    80000180:	100007b7          	lui	a5,0x10000
    80000184:	0795                	addi	a5,a5,5
    80000186:	0007c783          	lbu	a5,0(a5) # 10000000 <_stack_size+0xffff000>
    8000018a:	0ff7f793          	andi	a5,a5,255
    8000018e:	2781                	sext.w	a5,a5
    80000190:	8b85                	andi	a5,a5,1
    80000192:	2781                	sext.w	a5,a5
    80000194:	cb81                	beqz	a5,800001a4 <read+0x2a>
        // input data is ready.
        return ReadReg(RHR);
    80000196:	100007b7          	lui	a5,0x10000
    8000019a:	0007c783          	lbu	a5,0(a5) # 10000000 <_stack_size+0xffff000>
    8000019e:	0ff7f793          	andi	a5,a5,255
    800001a2:	a019                	j	800001a8 <read+0x2e>
    } else {
        return -1;
    800001a4:	0ff00793          	li	a5,255
    }
}
    800001a8:	853e                	mv	a0,a5
    800001aa:	6422                	ld	s0,8(sp)
    800001ac:	0141                	addi	sp,sp,16
    800001ae:	8082                	ret

00000000800001b0 <UART_write_buf>:

void UART_write_buf(const char* s, int size) {
    800001b0:	7179                	addi	sp,sp,-48
    800001b2:	f406                	sd	ra,40(sp)
    800001b4:	f022                	sd	s0,32(sp)
    800001b6:	1800                	addi	s0,sp,48
    800001b8:	fca43c23          	sd	a0,-40(s0)
    800001bc:	87ae                	mv	a5,a1
    800001be:	fcf42a23          	sw	a5,-44(s0)
    for (int i = 0; i < size; i++) {
    800001c2:	fe042623          	sw	zero,-20(s0)
    800001c6:	a015                	j	800001ea <UART_write_buf+0x3a>
        write(*s);
    800001c8:	fd843783          	ld	a5,-40(s0)
    800001cc:	0007c783          	lbu	a5,0(a5)
    800001d0:	853e                	mv	a0,a5
    800001d2:	f6fff0ef          	jal	ra,80000140 <write>
        s++;
    800001d6:	fd843783          	ld	a5,-40(s0)
    800001da:	0785                	addi	a5,a5,1
    800001dc:	fcf43c23          	sd	a5,-40(s0)
    for (int i = 0; i < size; i++) {
    800001e0:	fec42783          	lw	a5,-20(s0)
    800001e4:	2785                	addiw	a5,a5,1
    800001e6:	fef42623          	sw	a5,-20(s0)
    800001ea:	fec42703          	lw	a4,-20(s0)
    800001ee:	fd442783          	lw	a5,-44(s0)
    800001f2:	2701                	sext.w	a4,a4
    800001f4:	2781                	sext.w	a5,a5
    800001f6:	fcf749e3          	blt	a4,a5,800001c8 <UART_write_buf+0x18>
    }
}
    800001fa:	0001                	nop
    800001fc:	0001                	nop
    800001fe:	70a2                	ld	ra,40(sp)
    80000200:	7402                	ld	s0,32(sp)
    80000202:	6145                	addi	sp,sp,48
    80000204:	8082                	ret

0000000080000206 <UART_write_str>:

void UART_write_str(const char* s) {
    80000206:	1101                	addi	sp,sp,-32
    80000208:	ec06                	sd	ra,24(sp)
    8000020a:	e822                	sd	s0,16(sp)
    8000020c:	1000                	addi	s0,sp,32
    8000020e:	fea43423          	sd	a0,-24(s0)
    while (*s != '\0') {
    80000212:	a829                	j	8000022c <UART_write_str+0x26>
        write(*s);
    80000214:	fe843783          	ld	a5,-24(s0)
    80000218:	0007c783          	lbu	a5,0(a5)
    8000021c:	853e                	mv	a0,a5
    8000021e:	f23ff0ef          	jal	ra,80000140 <write>
        s++;
    80000222:	fe843783          	ld	a5,-24(s0)
    80000226:	0785                	addi	a5,a5,1
    80000228:	fef43423          	sd	a5,-24(s0)
    while (*s != '\0') {
    8000022c:	fe843783          	ld	a5,-24(s0)
    80000230:	0007c783          	lbu	a5,0(a5)
    80000234:	f3e5                	bnez	a5,80000214 <UART_write_str+0xe>
    }
}
    80000236:	0001                	nop
    80000238:	0001                	nop
    8000023a:	60e2                	ld	ra,24(sp)
    8000023c:	6442                	ld	s0,16(sp)
    8000023e:	6105                	addi	sp,sp,32
    80000240:	8082                	ret

0000000080000242 <UART_read_str>:

void UART_read_str(char* buf, int count) {
    80000242:	7139                	addi	sp,sp,-64
    80000244:	fc06                	sd	ra,56(sp)
    80000246:	f822                	sd	s0,48(sp)
    80000248:	f426                	sd	s1,40(sp)
    8000024a:	0080                	addi	s0,sp,64
    8000024c:	fca43423          	sd	a0,-56(s0)
    80000250:	87ae                	mv	a5,a1
    80000252:	fcf42223          	sw	a5,-60(s0)
    for (int i = 0; i < count; i++) {    
    80000256:	fc042e23          	sw	zero,-36(s0)
    8000025a:	a08d                	j	800002bc <UART_read_str+0x7a>
        buf[i] = read();
    8000025c:	fdc42783          	lw	a5,-36(s0)
    80000260:	fc843703          	ld	a4,-56(s0)
    80000264:	00f704b3          	add	s1,a4,a5
    80000268:	f13ff0ef          	jal	ra,8000017a <read>
    8000026c:	87aa                	mv	a5,a0
    8000026e:	00f48023          	sb	a5,0(s1)
        write(buf[i]);      // Echo the output
    80000272:	fdc42783          	lw	a5,-36(s0)
    80000276:	fc843703          	ld	a4,-56(s0)
    8000027a:	97ba                	add	a5,a5,a4
    8000027c:	0007c783          	lbu	a5,0(a5)
    80000280:	853e                	mv	a0,a5
    80000282:	ebfff0ef          	jal	ra,80000140 <write>
        
        /* Continue until we see carriage return */
        if (buf[i] == '\r') {
    80000286:	fdc42783          	lw	a5,-36(s0)
    8000028a:	fc843703          	ld	a4,-56(s0)
    8000028e:	97ba                	add	a5,a5,a4
    80000290:	0007c783          	lbu	a5,0(a5)
    80000294:	873e                	mv	a4,a5
    80000296:	47b5                	li	a5,13
    80000298:	00f71d63          	bne	a4,a5,800002b2 <UART_read_str+0x70>
            buf[i] = '\0';  // Terminate string with Null character.
    8000029c:	fdc42783          	lw	a5,-36(s0)
    800002a0:	fc843703          	ld	a4,-56(s0)
    800002a4:	97ba                	add	a5,a5,a4
    800002a6:	00078023          	sb	zero,0(a5)
            write('\n');    // Nice printing.
    800002aa:	4529                	li	a0,10
    800002ac:	e95ff0ef          	jal	ra,80000140 <write>
            return;
    800002b0:	a80d                	j	800002e2 <UART_read_str+0xa0>
    for (int i = 0; i < count; i++) {    
    800002b2:	fdc42783          	lw	a5,-36(s0)
    800002b6:	2785                	addiw	a5,a5,1
    800002b8:	fcf42e23          	sw	a5,-36(s0)
    800002bc:	fdc42703          	lw	a4,-36(s0)
    800002c0:	fc442783          	lw	a5,-60(s0)
    800002c4:	2701                	sext.w	a4,a4
    800002c6:	2781                	sext.w	a5,a5
    800002c8:	f8f74ae3          	blt	a4,a5,8000025c <UART_read_str+0x1a>
        }
    }
    buf[count-1] = '\0';    // Terminate String with Null character.
    800002cc:	fc442783          	lw	a5,-60(s0)
    800002d0:	17fd                	addi	a5,a5,-1
    800002d2:	fc843703          	ld	a4,-56(s0)
    800002d6:	97ba                	add	a5,a5,a4
    800002d8:	00078023          	sb	zero,0(a5)
    write('\n');            // Nice printing
    800002dc:	4529                	li	a0,10
    800002de:	e63ff0ef          	jal	ra,80000140 <write>
}
    800002e2:	70e2                	ld	ra,56(sp)
    800002e4:	7442                	ld	s0,48(sp)
    800002e6:	74a2                	ld	s1,40(sp)
    800002e8:	6121                	addi	sp,sp,64
    800002ea:	8082                	ret

00000000800002ec <UART_read_int>:

void UART_read_int(unsigned int* a) {
    800002ec:	7179                	addi	sp,sp,-48
    800002ee:	f406                	sd	ra,40(sp)
    800002f0:	f022                	sd	s0,32(sp)
    800002f2:	1800                	addi	s0,sp,48
    800002f4:	fca43c23          	sd	a0,-40(s0)
    *a = 0; 
    800002f8:	fd843783          	ld	a5,-40(s0)
    800002fc:	0007a023          	sw	zero,0(a5)
    unsigned int tmp;
    while (1) {
        tmp = read();
    80000300:	e7bff0ef          	jal	ra,8000017a <read>
    80000304:	87aa                	mv	a5,a0
    80000306:	fef42623          	sw	a5,-20(s0)
        write(tmp);         // Echo the output
    8000030a:	fec42783          	lw	a5,-20(s0)
    8000030e:	0ff7f793          	andi	a5,a5,255
    80000312:	853e                	mv	a0,a5
    80000314:	e2dff0ef          	jal	ra,80000140 <write>

        /* Continue until we see carriage return */
        if (tmp != '\r') {
    80000318:	fec42783          	lw	a5,-20(s0)
    8000031c:	0007871b          	sext.w	a4,a5
    80000320:	47b5                	li	a5,13
    80000322:	02f70c63          	beq	a4,a5,8000035a <UART_read_int+0x6e>
            tmp -= '0';
    80000326:	fec42783          	lw	a5,-20(s0)
    8000032a:	fd07879b          	addiw	a5,a5,-48
    8000032e:	fef42623          	sw	a5,-20(s0)
            *a = (10 * (*a)) + tmp;
    80000332:	fd843783          	ld	a5,-40(s0)
    80000336:	439c                	lw	a5,0(a5)
    80000338:	873e                	mv	a4,a5
    8000033a:	87ba                	mv	a5,a4
    8000033c:	0027979b          	slliw	a5,a5,0x2
    80000340:	9fb9                	addw	a5,a5,a4
    80000342:	0017979b          	slliw	a5,a5,0x1
    80000346:	2781                	sext.w	a5,a5
    80000348:	fec42703          	lw	a4,-20(s0)
    8000034c:	9fb9                	addw	a5,a5,a4
    8000034e:	0007871b          	sext.w	a4,a5
    80000352:	fd843783          	ld	a5,-40(s0)
    80000356:	c398                	sw	a4,0(a5)
        tmp = read();
    80000358:	b765                	j	80000300 <UART_read_int+0x14>
        } else {
            break;
    8000035a:	0001                	nop
        }
    }
    write('\n'); // Nice printing
    8000035c:	4529                	li	a0,10
    8000035e:	de3ff0ef          	jal	ra,80000140 <write>
}
    80000362:	0001                	nop
    80000364:	70a2                	ld	ra,40(sp)
    80000366:	7402                	ld	s0,32(sp)
    80000368:	6145                	addi	sp,sp,48
    8000036a:	8082                	ret

000000008000036c <UART_add_int>:

/* Add an int value to the print */
void UART_add_int(unsigned int s, char *f) {
    8000036c:	7179                	addi	sp,sp,-48
    8000036e:	f406                	sd	ra,40(sp)
    80000370:	f022                	sd	s0,32(sp)
    80000372:	1800                	addi	s0,sp,48
    80000374:	87aa                	mv	a5,a0
    80000376:	fcb43823          	sd	a1,-48(s0)
    8000037a:	fcf42e23          	sw	a5,-36(s0)
    if (s < 10) {
    8000037e:	fdc42783          	lw	a5,-36(s0)
    80000382:	0007871b          	sext.w	a4,a5
    80000386:	47a5                	li	a5,9
    80000388:	02e7e263          	bltu	a5,a4,800003ac <UART_add_int+0x40>
        strcatc(f, s + '0', 100);
    8000038c:	fdc42783          	lw	a5,-36(s0)
    80000390:	0ff7f793          	andi	a5,a5,255
    80000394:	0307879b          	addiw	a5,a5,48
    80000398:	0ff7f793          	andi	a5,a5,255
    8000039c:	06400613          	li	a2,100
    800003a0:	85be                	mv	a1,a5
    800003a2:	fd043503          	ld	a0,-48(s0)
    800003a6:	6a0000ef          	jal	ra,80000a46 <strcatc>
    } else {
        int s1 = s / 10;
        UART_add_int(s/10, f);
        UART_add_int(s % 10, f);
    }
}
    800003aa:	a83d                	j	800003e8 <UART_add_int+0x7c>
        int s1 = s / 10;
    800003ac:	fdc42703          	lw	a4,-36(s0)
    800003b0:	47a9                	li	a5,10
    800003b2:	02f757bb          	divuw	a5,a4,a5
    800003b6:	2781                	sext.w	a5,a5
    800003b8:	fef42623          	sw	a5,-20(s0)
        UART_add_int(s/10, f);
    800003bc:	fdc42703          	lw	a4,-36(s0)
    800003c0:	47a9                	li	a5,10
    800003c2:	02f757bb          	divuw	a5,a4,a5
    800003c6:	2781                	sext.w	a5,a5
    800003c8:	fd043583          	ld	a1,-48(s0)
    800003cc:	853e                	mv	a0,a5
    800003ce:	f9fff0ef          	jal	ra,8000036c <UART_add_int>
        UART_add_int(s % 10, f);
    800003d2:	fdc42703          	lw	a4,-36(s0)
    800003d6:	47a9                	li	a5,10
    800003d8:	02f777bb          	remuw	a5,a4,a5
    800003dc:	2781                	sext.w	a5,a5
    800003de:	fd043583          	ld	a1,-48(s0)
    800003e2:	853e                	mv	a0,a5
    800003e4:	f89ff0ef          	jal	ra,8000036c <UART_add_int>
}
    800003e8:	0001                	nop
    800003ea:	70a2                	ld	ra,40(sp)
    800003ec:	7402                	ld	s0,32(sp)
    800003ee:	6145                	addi	sp,sp,48
    800003f0:	8082                	ret

00000000800003f2 <UART_add_hex>:

/* Add a hex value to the print */
void UART_add_hex(unsigned int s, char *f) {
    800003f2:	1101                	addi	sp,sp,-32
    800003f4:	ec06                	sd	ra,24(sp)
    800003f6:	e822                	sd	s0,16(sp)
    800003f8:	1000                	addi	s0,sp,32
    800003fa:	87aa                	mv	a5,a0
    800003fc:	feb43023          	sd	a1,-32(s0)
    80000400:	fef42623          	sw	a5,-20(s0)
    if (s < 16) {
    80000404:	fec42783          	lw	a5,-20(s0)
    80000408:	0007871b          	sext.w	a4,a5
    8000040c:	47bd                	li	a5,15
    8000040e:	02e7e063          	bltu	a5,a4,8000042e <UART_add_hex+0x3c>
        strcatc(f, digit_to_hex(s), 100);
    80000412:	fec42783          	lw	a5,-20(s0)
    80000416:	853e                	mv	a0,a5
    80000418:	39a000ef          	jal	ra,800007b2 <digit_to_hex>
    8000041c:	87aa                	mv	a5,a0
    8000041e:	06400613          	li	a2,100
    80000422:	85be                	mv	a1,a5
    80000424:	fe043503          	ld	a0,-32(s0)
    80000428:	61e000ef          	jal	ra,80000a46 <strcatc>
    } else {
        UART_add_hex(s / 16, f);
        UART_add_hex(s % 16, f);
    }
}
    8000042c:	a025                	j	80000454 <UART_add_hex+0x62>
        UART_add_hex(s / 16, f);
    8000042e:	fec42783          	lw	a5,-20(s0)
    80000432:	0047d79b          	srliw	a5,a5,0x4
    80000436:	2781                	sext.w	a5,a5
    80000438:	fe043583          	ld	a1,-32(s0)
    8000043c:	853e                	mv	a0,a5
    8000043e:	fb5ff0ef          	jal	ra,800003f2 <UART_add_hex>
        UART_add_hex(s % 16, f);
    80000442:	fec42783          	lw	a5,-20(s0)
    80000446:	8bbd                	andi	a5,a5,15
    80000448:	2781                	sext.w	a5,a5
    8000044a:	fe043583          	ld	a1,-32(s0)
    8000044e:	853e                	mv	a0,a5
    80000450:	fa3ff0ef          	jal	ra,800003f2 <UART_add_hex>
}
    80000454:	0001                	nop
    80000456:	60e2                	ld	ra,24(sp)
    80000458:	6442                	ld	s0,16(sp)
    8000045a:	6105                	addi	sp,sp,32
    8000045c:	8082                	ret

000000008000045e <printint>:

static char digits[] = "0123456789abcdef";

static void printint(int xx, int base, int sign) {
    8000045e:	7139                	addi	sp,sp,-64
    80000460:	fc06                	sd	ra,56(sp)
    80000462:	f822                	sd	s0,48(sp)
    80000464:	0080                	addi	s0,sp,64
    80000466:	87aa                	mv	a5,a0
    80000468:	86ae                	mv	a3,a1
    8000046a:	8732                	mv	a4,a2
    8000046c:	fcf42623          	sw	a5,-52(s0)
    80000470:	87b6                	mv	a5,a3
    80000472:	fcf42423          	sw	a5,-56(s0)
    80000476:	87ba                	mv	a5,a4
    80000478:	fcf42223          	sw	a5,-60(s0)
    char buf[16];
    int i;
    int x;

    if(sign && (sign = xx < 0))
    8000047c:	fc442783          	lw	a5,-60(s0)
    80000480:	2781                	sext.w	a5,a5
    80000482:	c785                	beqz	a5,800004aa <printint+0x4c>
    80000484:	fcc42783          	lw	a5,-52(s0)
    80000488:	01f7d79b          	srliw	a5,a5,0x1f
    8000048c:	0ff7f793          	andi	a5,a5,255
    80000490:	fcf42223          	sw	a5,-60(s0)
    80000494:	fc442783          	lw	a5,-60(s0)
    80000498:	2781                	sext.w	a5,a5
    8000049a:	cb81                	beqz	a5,800004aa <printint+0x4c>
        x = -xx;
    8000049c:	fcc42783          	lw	a5,-52(s0)
    800004a0:	40f007bb          	negw	a5,a5
    800004a4:	fef42423          	sw	a5,-24(s0)
    800004a8:	a029                	j	800004b2 <printint+0x54>
    else
        x = xx;
    800004aa:	fcc42783          	lw	a5,-52(s0)
    800004ae:	fef42423          	sw	a5,-24(s0)

    i = 0;
    800004b2:	fe042623          	sw	zero,-20(s0)
    do {
        buf[i++] = digits[x % base];
    800004b6:	fe842703          	lw	a4,-24(s0)
    800004ba:	fc842783          	lw	a5,-56(s0)
    800004be:	02f767bb          	remw	a5,a4,a5
    800004c2:	0007871b          	sext.w	a4,a5
    800004c6:	fec42783          	lw	a5,-20(s0)
    800004ca:	0017869b          	addiw	a3,a5,1
    800004ce:	fed42623          	sw	a3,-20(s0)
    800004d2:	00001697          	auipc	a3,0x1
    800004d6:	c3e68693          	addi	a3,a3,-962 # 80001110 <_sidata>
    800004da:	9736                	add	a4,a4,a3
    800004dc:	00074703          	lbu	a4,0(a4)
    800004e0:	ff040693          	addi	a3,s0,-16
    800004e4:	97b6                	add	a5,a5,a3
    800004e6:	fee78423          	sb	a4,-24(a5)
    } while((x /= base) != 0);
    800004ea:	fe842703          	lw	a4,-24(s0)
    800004ee:	fc842783          	lw	a5,-56(s0)
    800004f2:	02f747bb          	divw	a5,a4,a5
    800004f6:	fef42423          	sw	a5,-24(s0)
    800004fa:	fe842783          	lw	a5,-24(s0)
    800004fe:	2781                	sext.w	a5,a5
    80000500:	fbdd                	bnez	a5,800004b6 <printint+0x58>

    if(sign)
    80000502:	fc442783          	lw	a5,-60(s0)
    80000506:	2781                	sext.w	a5,a5
    80000508:	cb8d                	beqz	a5,8000053a <printint+0xdc>
        buf[i++] = '-';
    8000050a:	fec42783          	lw	a5,-20(s0)
    8000050e:	0017871b          	addiw	a4,a5,1
    80000512:	fee42623          	sw	a4,-20(s0)
    80000516:	ff040713          	addi	a4,s0,-16
    8000051a:	97ba                	add	a5,a5,a4
    8000051c:	02d00713          	li	a4,45
    80000520:	fee78423          	sb	a4,-24(a5)

    while(--i >= 0)
    80000524:	a819                	j	8000053a <printint+0xdc>
        write(buf[i]);
    80000526:	fec42783          	lw	a5,-20(s0)
    8000052a:	ff040713          	addi	a4,s0,-16
    8000052e:	97ba                	add	a5,a5,a4
    80000530:	fe87c783          	lbu	a5,-24(a5)
    80000534:	853e                	mv	a0,a5
    80000536:	c0bff0ef          	jal	ra,80000140 <write>
    while(--i >= 0)
    8000053a:	fec42783          	lw	a5,-20(s0)
    8000053e:	37fd                	addiw	a5,a5,-1
    80000540:	fef42623          	sw	a5,-20(s0)
    80000544:	fec42783          	lw	a5,-20(s0)
    80000548:	2781                	sext.w	a5,a5
    8000054a:	fc07dee3          	bgez	a5,80000526 <printint+0xc8>
}
    8000054e:	0001                	nop
    80000550:	0001                	nop
    80000552:	70e2                	ld	ra,56(sp)
    80000554:	7442                	ld	s0,48(sp)
    80000556:	6121                	addi	sp,sp,64
    80000558:	8082                	ret

000000008000055a <printptr>:

static void printptr(int x) {
    8000055a:	7179                	addi	sp,sp,-48
    8000055c:	f406                	sd	ra,40(sp)
    8000055e:	f022                	sd	s0,32(sp)
    80000560:	1800                	addi	s0,sp,48
    80000562:	87aa                	mv	a5,a0
    80000564:	fcf42e23          	sw	a5,-36(s0)
    int i;
    write('0');
    80000568:	03000513          	li	a0,48
    8000056c:	bd5ff0ef          	jal	ra,80000140 <write>
    write('x');
    80000570:	07800513          	li	a0,120
    80000574:	bcdff0ef          	jal	ra,80000140 <write>
    for (i = 0; i < (sizeof(int) * 2); i++, x <<= 4)
    80000578:	fe042623          	sw	zero,-20(s0)
    8000057c:	a81d                	j	800005b2 <printptr+0x58>
        write(digits[x >> (sizeof(int) * 8 - 4)]);
    8000057e:	fdc42783          	lw	a5,-36(s0)
    80000582:	41c7d79b          	sraiw	a5,a5,0x1c
    80000586:	2781                	sext.w	a5,a5
    80000588:	00001717          	auipc	a4,0x1
    8000058c:	b8870713          	addi	a4,a4,-1144 # 80001110 <_sidata>
    80000590:	97ba                	add	a5,a5,a4
    80000592:	0007c783          	lbu	a5,0(a5)
    80000596:	853e                	mv	a0,a5
    80000598:	ba9ff0ef          	jal	ra,80000140 <write>
    for (i = 0; i < (sizeof(int) * 2); i++, x <<= 4)
    8000059c:	fec42783          	lw	a5,-20(s0)
    800005a0:	2785                	addiw	a5,a5,1
    800005a2:	fef42623          	sw	a5,-20(s0)
    800005a6:	fdc42783          	lw	a5,-36(s0)
    800005aa:	0047979b          	slliw	a5,a5,0x4
    800005ae:	fcf42e23          	sw	a5,-36(s0)
    800005b2:	fec42783          	lw	a5,-20(s0)
    800005b6:	873e                	mv	a4,a5
    800005b8:	479d                	li	a5,7
    800005ba:	fce7f2e3          	bgeu	a5,a4,8000057e <printptr+0x24>
}
    800005be:	0001                	nop
    800005c0:	0001                	nop
    800005c2:	70a2                	ld	ra,40(sp)
    800005c4:	7402                	ld	s0,32(sp)
    800005c6:	6145                	addi	sp,sp,48
    800005c8:	8082                	ret

00000000800005ca <UART_printf>:

void UART_printf(char *fmt, ...) {
    800005ca:	7119                	addi	sp,sp,-128
    800005cc:	fc06                	sd	ra,56(sp)
    800005ce:	f822                	sd	s0,48(sp)
    800005d0:	0080                	addi	s0,sp,64
    800005d2:	fca43423          	sd	a0,-56(s0)
    800005d6:	e40c                	sd	a1,8(s0)
    800005d8:	e810                	sd	a2,16(s0)
    800005da:	ec14                	sd	a3,24(s0)
    800005dc:	f018                	sd	a4,32(s0)
    800005de:	f41c                	sd	a5,40(s0)
    800005e0:	03043823          	sd	a6,48(s0)
    800005e4:	03143c23          	sd	a7,56(s0)
    va_list ap;
    int i, c;
    char *s;

    va_start(ap, fmt);
    800005e8:	04040793          	addi	a5,s0,64
    800005ec:	fcf43023          	sd	a5,-64(s0)
    800005f0:	fc043783          	ld	a5,-64(s0)
    800005f4:	fc878793          	addi	a5,a5,-56
    800005f8:	fcf43823          	sd	a5,-48(s0)
    for(i = 0; (c = fmt[i] & 0xff) != 0; i++) {
    800005fc:	fe042623          	sw	zero,-20(s0)
    80000600:	a261                	j	80000788 <UART_printf+0x1be>
        if(c != '%') {
    80000602:	fdc42783          	lw	a5,-36(s0)
    80000606:	0007871b          	sext.w	a4,a5
    8000060a:	02500793          	li	a5,37
    8000060e:	00f70a63          	beq	a4,a5,80000622 <UART_printf+0x58>
            write(c);
    80000612:	fdc42783          	lw	a5,-36(s0)
    80000616:	0ff7f793          	andi	a5,a5,255
    8000061a:	853e                	mv	a0,a5
    8000061c:	b25ff0ef          	jal	ra,80000140 <write>
            continue;
    80000620:	aab9                	j	8000077e <UART_printf+0x1b4>
        }
        c = fmt[++i] & 0xff;
    80000622:	fec42783          	lw	a5,-20(s0)
    80000626:	2785                	addiw	a5,a5,1
    80000628:	fef42623          	sw	a5,-20(s0)
    8000062c:	fec42783          	lw	a5,-20(s0)
    80000630:	fc843703          	ld	a4,-56(s0)
    80000634:	97ba                	add	a5,a5,a4
    80000636:	0007c783          	lbu	a5,0(a5)
    8000063a:	fcf42e23          	sw	a5,-36(s0)
        if(c == 0)
    8000063e:	fdc42783          	lw	a5,-36(s0)
    80000642:	2781                	sext.w	a5,a5
    80000644:	16078163          	beqz	a5,800007a6 <UART_printf+0x1dc>
            break;
        switch(c) {
    80000648:	fdc42783          	lw	a5,-36(s0)
    8000064c:	0007871b          	sext.w	a4,a5
    80000650:	07800793          	li	a5,120
    80000654:	08f70763          	beq	a4,a5,800006e2 <UART_printf+0x118>
    80000658:	fdc42783          	lw	a5,-36(s0)
    8000065c:	0007871b          	sext.w	a4,a5
    80000660:	07800793          	li	a5,120
    80000664:	10e7c163          	blt	a5,a4,80000766 <UART_printf+0x19c>
    80000668:	fdc42783          	lw	a5,-36(s0)
    8000066c:	0007871b          	sext.w	a4,a5
    80000670:	07300793          	li	a5,115
    80000674:	08f70f63          	beq	a4,a5,80000712 <UART_printf+0x148>
    80000678:	fdc42783          	lw	a5,-36(s0)
    8000067c:	0007871b          	sext.w	a4,a5
    80000680:	07300793          	li	a5,115
    80000684:	0ee7c163          	blt	a5,a4,80000766 <UART_printf+0x19c>
    80000688:	fdc42783          	lw	a5,-36(s0)
    8000068c:	0007871b          	sext.w	a4,a5
    80000690:	07000793          	li	a5,112
    80000694:	06f70463          	beq	a4,a5,800006fc <UART_printf+0x132>
    80000698:	fdc42783          	lw	a5,-36(s0)
    8000069c:	0007871b          	sext.w	a4,a5
    800006a0:	07000793          	li	a5,112
    800006a4:	0ce7c163          	blt	a5,a4,80000766 <UART_printf+0x19c>
    800006a8:	fdc42783          	lw	a5,-36(s0)
    800006ac:	0007871b          	sext.w	a4,a5
    800006b0:	02500793          	li	a5,37
    800006b4:	0af70463          	beq	a4,a5,8000075c <UART_printf+0x192>
    800006b8:	fdc42783          	lw	a5,-36(s0)
    800006bc:	0007871b          	sext.w	a4,a5
    800006c0:	06400793          	li	a5,100
    800006c4:	0af71163          	bne	a4,a5,80000766 <UART_printf+0x19c>
            case 'd':
                printint(va_arg(ap, int), 10, 1);
    800006c8:	fd043783          	ld	a5,-48(s0)
    800006cc:	00878713          	addi	a4,a5,8
    800006d0:	fce43823          	sd	a4,-48(s0)
    800006d4:	439c                	lw	a5,0(a5)
    800006d6:	4605                	li	a2,1
    800006d8:	45a9                	li	a1,10
    800006da:	853e                	mv	a0,a5
    800006dc:	d83ff0ef          	jal	ra,8000045e <printint>
                break;
    800006e0:	a879                	j	8000077e <UART_printf+0x1b4>
            case 'x':
                printint(va_arg(ap, int), 16, 1);
    800006e2:	fd043783          	ld	a5,-48(s0)
    800006e6:	00878713          	addi	a4,a5,8
    800006ea:	fce43823          	sd	a4,-48(s0)
    800006ee:	439c                	lw	a5,0(a5)
    800006f0:	4605                	li	a2,1
    800006f2:	45c1                	li	a1,16
    800006f4:	853e                	mv	a0,a5
    800006f6:	d69ff0ef          	jal	ra,8000045e <printint>
                break;
    800006fa:	a051                	j	8000077e <UART_printf+0x1b4>
            case 'p':
                printptr(va_arg(ap, int));
    800006fc:	fd043783          	ld	a5,-48(s0)
    80000700:	00878713          	addi	a4,a5,8
    80000704:	fce43823          	sd	a4,-48(s0)
    80000708:	439c                	lw	a5,0(a5)
    8000070a:	853e                	mv	a0,a5
    8000070c:	e4fff0ef          	jal	ra,8000055a <printptr>
                break;
    80000710:	a0bd                	j	8000077e <UART_printf+0x1b4>
            case 's':
                if((s = va_arg(ap, char*)) == 0)
    80000712:	fd043783          	ld	a5,-48(s0)
    80000716:	00878713          	addi	a4,a5,8
    8000071a:	fce43823          	sd	a4,-48(s0)
    8000071e:	639c                	ld	a5,0(a5)
    80000720:	fef43023          	sd	a5,-32(s0)
    80000724:	fe043783          	ld	a5,-32(s0)
    80000728:	e785                	bnez	a5,80000750 <UART_printf+0x186>
                    s = "(null)";
    8000072a:	00001797          	auipc	a5,0x1
    8000072e:	9ce78793          	addi	a5,a5,-1586 # 800010f8 <_srodata>
    80000732:	fef43023          	sd	a5,-32(s0)
                for(; *s; s++)
    80000736:	a829                	j	80000750 <UART_printf+0x186>
                    write(*s);
    80000738:	fe043783          	ld	a5,-32(s0)
    8000073c:	0007c783          	lbu	a5,0(a5)
    80000740:	853e                	mv	a0,a5
    80000742:	9ffff0ef          	jal	ra,80000140 <write>
                for(; *s; s++)
    80000746:	fe043783          	ld	a5,-32(s0)
    8000074a:	0785                	addi	a5,a5,1
    8000074c:	fef43023          	sd	a5,-32(s0)
    80000750:	fe043783          	ld	a5,-32(s0)
    80000754:	0007c783          	lbu	a5,0(a5)
    80000758:	f3e5                	bnez	a5,80000738 <UART_printf+0x16e>
                break;
    8000075a:	a015                	j	8000077e <UART_printf+0x1b4>
            case '%':
                write('%');
    8000075c:	02500513          	li	a0,37
    80000760:	9e1ff0ef          	jal	ra,80000140 <write>
                break;
    80000764:	a829                	j	8000077e <UART_printf+0x1b4>
            default:
                // Print unknown % sequence to draw attention.
                write('%');
    80000766:	02500513          	li	a0,37
    8000076a:	9d7ff0ef          	jal	ra,80000140 <write>
                write(c);
    8000076e:	fdc42783          	lw	a5,-36(s0)
    80000772:	0ff7f793          	andi	a5,a5,255
    80000776:	853e                	mv	a0,a5
    80000778:	9c9ff0ef          	jal	ra,80000140 <write>
                break;
    8000077c:	0001                	nop
    for(i = 0; (c = fmt[i] & 0xff) != 0; i++) {
    8000077e:	fec42783          	lw	a5,-20(s0)
    80000782:	2785                	addiw	a5,a5,1
    80000784:	fef42623          	sw	a5,-20(s0)
    80000788:	fec42783          	lw	a5,-20(s0)
    8000078c:	fc843703          	ld	a4,-56(s0)
    80000790:	97ba                	add	a5,a5,a4
    80000792:	0007c783          	lbu	a5,0(a5)
    80000796:	fcf42e23          	sw	a5,-36(s0)
    8000079a:	fdc42783          	lw	a5,-36(s0)
    8000079e:	2781                	sext.w	a5,a5
    800007a0:	e60791e3          	bnez	a5,80000602 <UART_printf+0x38>
        }
    }
}
    800007a4:	a011                	j	800007a8 <UART_printf+0x1de>
            break;
    800007a6:	0001                	nop
}
    800007a8:	0001                	nop
    800007aa:	70e2                	ld	ra,56(sp)
    800007ac:	7442                	ld	s0,48(sp)
    800007ae:	6109                	addi	sp,sp,128
    800007b0:	8082                	ret

00000000800007b2 <digit_to_hex>:
#include "math.h"

/* Convert single hex digit value to hex char */
char digit_to_hex(int x) {
    800007b2:	1101                	addi	sp,sp,-32
    800007b4:	ec22                	sd	s0,24(sp)
    800007b6:	1000                	addi	s0,sp,32
    800007b8:	87aa                	mv	a5,a0
    800007ba:	fef42623          	sw	a5,-20(s0)
    if (x < 10) {
    800007be:	fec42783          	lw	a5,-20(s0)
    800007c2:	0007871b          	sext.w	a4,a5
    800007c6:	47a5                	li	a5,9
    800007c8:	00e7cb63          	blt	a5,a4,800007de <digit_to_hex+0x2c>
        return x + '0';
    800007cc:	fec42783          	lw	a5,-20(s0)
    800007d0:	0ff7f793          	andi	a5,a5,255
    800007d4:	0307879b          	addiw	a5,a5,48
    800007d8:	0ff7f793          	andi	a5,a5,255
    800007dc:	a809                	j	800007ee <digit_to_hex+0x3c>
    } else {
        return x - 10 + 'A';
    800007de:	fec42783          	lw	a5,-20(s0)
    800007e2:	0ff7f793          	andi	a5,a5,255
    800007e6:	0377879b          	addiw	a5,a5,55
    800007ea:	0ff7f793          	andi	a5,a5,255
    }
}
    800007ee:	853e                	mv	a0,a5
    800007f0:	6462                	ld	s0,24(sp)
    800007f2:	6105                	addi	sp,sp,32
    800007f4:	8082                	ret

00000000800007f6 <hex_to_digit>:

/* Convert hex char to single hex digit value */
int hex_to_digit(char c) {
    800007f6:	1101                	addi	sp,sp,-32
    800007f8:	ec22                	sd	s0,24(sp)
    800007fa:	1000                	addi	s0,sp,32
    800007fc:	87aa                	mv	a5,a0
    800007fe:	fef407a3          	sb	a5,-17(s0)
    if (c >= '0' && c <= '9') return c - '0';
    80000802:	fef44783          	lbu	a5,-17(s0)
    80000806:	0ff7f713          	andi	a4,a5,255
    8000080a:	02f00793          	li	a5,47
    8000080e:	02e7f163          	bgeu	a5,a4,80000830 <hex_to_digit+0x3a>
    80000812:	fef44783          	lbu	a5,-17(s0)
    80000816:	0ff7f713          	andi	a4,a5,255
    8000081a:	03900793          	li	a5,57
    8000081e:	00e7e963          	bltu	a5,a4,80000830 <hex_to_digit+0x3a>
    80000822:	fef44783          	lbu	a5,-17(s0)
    80000826:	2781                	sext.w	a5,a5
    80000828:	fd07879b          	addiw	a5,a5,-48
    8000082c:	2781                	sext.w	a5,a5
    8000082e:	a085                	j	8000088e <hex_to_digit+0x98>
    else if (c >= 'a' && c <='f') return c - 'a' + 10;
    80000830:	fef44783          	lbu	a5,-17(s0)
    80000834:	0ff7f713          	andi	a4,a5,255
    80000838:	06000793          	li	a5,96
    8000083c:	02e7f163          	bgeu	a5,a4,8000085e <hex_to_digit+0x68>
    80000840:	fef44783          	lbu	a5,-17(s0)
    80000844:	0ff7f713          	andi	a4,a5,255
    80000848:	06600793          	li	a5,102
    8000084c:	00e7e963          	bltu	a5,a4,8000085e <hex_to_digit+0x68>
    80000850:	fef44783          	lbu	a5,-17(s0)
    80000854:	2781                	sext.w	a5,a5
    80000856:	fa97879b          	addiw	a5,a5,-87
    8000085a:	2781                	sext.w	a5,a5
    8000085c:	a80d                	j	8000088e <hex_to_digit+0x98>
    else if (c >= 'A' && c <='F') return  c - 'A' + 10;
    8000085e:	fef44783          	lbu	a5,-17(s0)
    80000862:	0ff7f713          	andi	a4,a5,255
    80000866:	04000793          	li	a5,64
    8000086a:	02e7f163          	bgeu	a5,a4,8000088c <hex_to_digit+0x96>
    8000086e:	fef44783          	lbu	a5,-17(s0)
    80000872:	0ff7f713          	andi	a4,a5,255
    80000876:	04600793          	li	a5,70
    8000087a:	00e7e963          	bltu	a5,a4,8000088c <hex_to_digit+0x96>
    8000087e:	fef44783          	lbu	a5,-17(s0)
    80000882:	2781                	sext.w	a5,a5
    80000884:	fc97879b          	addiw	a5,a5,-55
    80000888:	2781                	sext.w	a5,a5
    8000088a:	a011                	j	8000088e <hex_to_digit+0x98>
    return -1;
    8000088c:	57fd                	li	a5,-1
}
    8000088e:	853e                	mv	a0,a5
    80000890:	6462                	ld	s0,24(sp)
    80000892:	6105                	addi	sp,sp,32
    80000894:	8082                	ret

0000000080000896 <hex_to_int>:

/* Convert hex to int */
int hex_to_int(char* s) {
    80000896:	7179                	addi	sp,sp,-48
    80000898:	f406                	sd	ra,40(sp)
    8000089a:	f022                	sd	s0,32(sp)
    8000089c:	1800                	addi	s0,sp,48
    8000089e:	fca43c23          	sd	a0,-40(s0)
    int val = 0;
    800008a2:	fe042623          	sw	zero,-20(s0)
    while (*s) {
    800008a6:	a091                	j	800008ea <hex_to_int+0x54>
        int c = *s++; 
    800008a8:	fd843783          	ld	a5,-40(s0)
    800008ac:	00178713          	addi	a4,a5,1
    800008b0:	fce43c23          	sd	a4,-40(s0)
    800008b4:	0007c783          	lbu	a5,0(a5)
    800008b8:	fef42423          	sw	a5,-24(s0)

        c = hex_to_digit((char)c);
    800008bc:	fe842783          	lw	a5,-24(s0)
    800008c0:	0ff7f793          	andi	a5,a5,255
    800008c4:	853e                	mv	a0,a5
    800008c6:	f31ff0ef          	jal	ra,800007f6 <hex_to_digit>
    800008ca:	87aa                	mv	a5,a0
    800008cc:	fef42423          	sw	a5,-24(s0)

        /* Insert Binary Representation in Place */
        val = (val << 4) | (c & 0xF);
    800008d0:	fec42783          	lw	a5,-20(s0)
    800008d4:	0047979b          	slliw	a5,a5,0x4
    800008d8:	0007871b          	sext.w	a4,a5
    800008dc:	fe842783          	lw	a5,-24(s0)
    800008e0:	8bbd                	andi	a5,a5,15
    800008e2:	2781                	sext.w	a5,a5
    800008e4:	8fd9                	or	a5,a5,a4
    800008e6:	fef42623          	sw	a5,-20(s0)
    while (*s) {
    800008ea:	fd843783          	ld	a5,-40(s0)
    800008ee:	0007c783          	lbu	a5,0(a5)
    800008f2:	fbdd                	bnez	a5,800008a8 <hex_to_int+0x12>
    }
    return val;
    800008f4:	fec42783          	lw	a5,-20(s0)
}
    800008f8:	853e                	mv	a0,a5
    800008fa:	70a2                	ld	ra,40(sp)
    800008fc:	7402                	ld	s0,32(sp)
    800008fe:	6145                	addi	sp,sp,48
    80000900:	8082                	ret

0000000080000902 <int_to_hex>:

/* Convert int to hex with max 32 bytes */
char* int_to_hex(int x, char *s) {
    80000902:	7139                	addi	sp,sp,-64
    80000904:	fc06                	sd	ra,56(sp)
    80000906:	f822                	sd	s0,48(sp)
    80000908:	f426                	sd	s1,40(sp)
    8000090a:	0080                	addi	s0,sp,64
    8000090c:	87aa                	mv	a5,a0
    8000090e:	fcb43023          	sd	a1,-64(s0)
    80000912:	fcf42623          	sw	a5,-52(s0)
    for (int i = 7; i >= 0; i--) {
    80000916:	479d                	li	a5,7
    80000918:	fcf42e23          	sw	a5,-36(s0)
    8000091c:	a83d                	j	8000095a <int_to_hex+0x58>
        int d = (x & 0xF);
    8000091e:	fcc42783          	lw	a5,-52(s0)
    80000922:	8bbd                	andi	a5,a5,15
    80000924:	fcf42c23          	sw	a5,-40(s0)
        s[i] = digit_to_hex(d);
    80000928:	fdc42783          	lw	a5,-36(s0)
    8000092c:	fc043703          	ld	a4,-64(s0)
    80000930:	00f704b3          	add	s1,a4,a5
    80000934:	fd842783          	lw	a5,-40(s0)
    80000938:	853e                	mv	a0,a5
    8000093a:	e79ff0ef          	jal	ra,800007b2 <digit_to_hex>
    8000093e:	87aa                	mv	a5,a0
    80000940:	00f48023          	sb	a5,0(s1)
        x = x >> 4;
    80000944:	fcc42783          	lw	a5,-52(s0)
    80000948:	4047d79b          	sraiw	a5,a5,0x4
    8000094c:	fcf42623          	sw	a5,-52(s0)
    for (int i = 7; i >= 0; i--) {
    80000950:	fdc42783          	lw	a5,-36(s0)
    80000954:	37fd                	addiw	a5,a5,-1
    80000956:	fcf42e23          	sw	a5,-36(s0)
    8000095a:	fdc42783          	lw	a5,-36(s0)
    8000095e:	2781                	sext.w	a5,a5
    80000960:	fa07dfe3          	bgez	a5,8000091e <int_to_hex+0x1c>
    }

    return s;
    80000964:	fc043783          	ld	a5,-64(s0)
}
    80000968:	853e                	mv	a0,a5
    8000096a:	70e2                	ld	ra,56(sp)
    8000096c:	7442                	ld	s0,48(sp)
    8000096e:	74a2                	ld	s1,40(sp)
    80000970:	6121                	addi	sp,sp,64
    80000972:	8082                	ret

0000000080000974 <strlen>:
#include "string.h"

/* Return string length */
int strlen(const char *s) {
    80000974:	7179                	addi	sp,sp,-48
    80000976:	f422                	sd	s0,40(sp)
    80000978:	1800                	addi	s0,sp,48
    8000097a:	fca43c23          	sd	a0,-40(s0)
    int n;

    for(n = 0; s[n] != 0; n++)
    8000097e:	fe042623          	sw	zero,-20(s0)
    80000982:	a031                	j	8000098e <strlen+0x1a>
    80000984:	fec42783          	lw	a5,-20(s0)
    80000988:	2785                	addiw	a5,a5,1
    8000098a:	fef42623          	sw	a5,-20(s0)
    8000098e:	fec42783          	lw	a5,-20(s0)
    80000992:	fd843703          	ld	a4,-40(s0)
    80000996:	97ba                	add	a5,a5,a4
    80000998:	0007c783          	lbu	a5,0(a5)
    8000099c:	f7e5                	bnez	a5,80000984 <strlen+0x10>
        ;
    return n;
    8000099e:	fec42783          	lw	a5,-20(s0)
}
    800009a2:	853e                	mv	a0,a5
    800009a4:	7422                	ld	s0,40(sp)
    800009a6:	6145                	addi	sp,sp,48
    800009a8:	8082                	ret

00000000800009aa <strcat>:

/* Concatenate src to dest of total length size */
char* strcat(char* dest, const char* src, int size) {
    800009aa:	715d                	addi	sp,sp,-80
    800009ac:	e486                	sd	ra,72(sp)
    800009ae:	e0a2                	sd	s0,64(sp)
    800009b0:	fc26                	sd	s1,56(sp)
    800009b2:	0880                	addi	s0,sp,80
    800009b4:	fca43423          	sd	a0,-56(s0)
    800009b8:	fcb43023          	sd	a1,-64(s0)
    800009bc:	87b2                	mv	a5,a2
    800009be:	faf42e23          	sw	a5,-68(s0)
    /* Check if overflows dest */
    if (strlen(dest) + strlen(src) > size-1) return 0;
    800009c2:	fc843503          	ld	a0,-56(s0)
    800009c6:	fafff0ef          	jal	ra,80000974 <strlen>
    800009ca:	87aa                	mv	a5,a0
    800009cc:	84be                	mv	s1,a5
    800009ce:	fc043503          	ld	a0,-64(s0)
    800009d2:	fa3ff0ef          	jal	ra,80000974 <strlen>
    800009d6:	87aa                	mv	a5,a0
    800009d8:	9fa5                	addw	a5,a5,s1
    800009da:	0007871b          	sext.w	a4,a5
    800009de:	fbc42783          	lw	a5,-68(s0)
    800009e2:	2781                	sext.w	a5,a5
    800009e4:	00f74463          	blt	a4,a5,800009ec <strcat+0x42>
    800009e8:	4781                	li	a5,0
    800009ea:	a881                	j	80000a3a <strcat+0x90>

    char* ptr = dest + strlen(dest);
    800009ec:	fc843503          	ld	a0,-56(s0)
    800009f0:	f85ff0ef          	jal	ra,80000974 <strlen>
    800009f4:	87aa                	mv	a5,a0
    800009f6:	873e                	mv	a4,a5
    800009f8:	fc843783          	ld	a5,-56(s0)
    800009fc:	97ba                	add	a5,a5,a4
    800009fe:	fcf43c23          	sd	a5,-40(s0)

    while (*src != '\0')
    80000a02:	a00d                	j	80000a24 <strcat+0x7a>
        *ptr++ = *src++;
    80000a04:	fc043703          	ld	a4,-64(s0)
    80000a08:	00170793          	addi	a5,a4,1
    80000a0c:	fcf43023          	sd	a5,-64(s0)
    80000a10:	fd843783          	ld	a5,-40(s0)
    80000a14:	00178693          	addi	a3,a5,1
    80000a18:	fcd43c23          	sd	a3,-40(s0)
    80000a1c:	00074703          	lbu	a4,0(a4)
    80000a20:	00e78023          	sb	a4,0(a5)
    while (*src != '\0')
    80000a24:	fc043783          	ld	a5,-64(s0)
    80000a28:	0007c783          	lbu	a5,0(a5)
    80000a2c:	ffe1                	bnez	a5,80000a04 <strcat+0x5a>

    *ptr = '\0';
    80000a2e:	fd843783          	ld	a5,-40(s0)
    80000a32:	00078023          	sb	zero,0(a5)

    return dest;
    80000a36:	fc843783          	ld	a5,-56(s0)
}
    80000a3a:	853e                	mv	a0,a5
    80000a3c:	60a6                	ld	ra,72(sp)
    80000a3e:	6406                	ld	s0,64(sp)
    80000a40:	74e2                	ld	s1,56(sp)
    80000a42:	6161                	addi	sp,sp,80
    80000a44:	8082                	ret

0000000080000a46 <strcatc>:

/* Concatenate char src to destination of total length size */
char* strcatc(char* dest, char src, int size) {
    80000a46:	7179                	addi	sp,sp,-48
    80000a48:	f406                	sd	ra,40(sp)
    80000a4a:	f022                	sd	s0,32(sp)
    80000a4c:	1800                	addi	s0,sp,48
    80000a4e:	fca43c23          	sd	a0,-40(s0)
    80000a52:	87ae                	mv	a5,a1
    80000a54:	8732                	mv	a4,a2
    80000a56:	fcf40ba3          	sb	a5,-41(s0)
    80000a5a:	87ba                	mv	a5,a4
    80000a5c:	fcf42823          	sw	a5,-48(s0)
    /* Check if overflows dest*/
    if (strlen(dest) + 1 >= size-1) return 0;
    80000a60:	fd843503          	ld	a0,-40(s0)
    80000a64:	f11ff0ef          	jal	ra,80000974 <strlen>
    80000a68:	87aa                	mv	a5,a0
    80000a6a:	2785                	addiw	a5,a5,1
    80000a6c:	0007871b          	sext.w	a4,a5
    80000a70:	fd042783          	lw	a5,-48(s0)
    80000a74:	37fd                	addiw	a5,a5,-1
    80000a76:	2781                	sext.w	a5,a5
    80000a78:	00f74463          	blt	a4,a5,80000a80 <strcatc+0x3a>
    80000a7c:	4781                	li	a5,0
    80000a7e:	a825                	j	80000ab6 <strcatc+0x70>

    /* Add char onto end */
    char* p = dest + strlen(dest);
    80000a80:	fd843503          	ld	a0,-40(s0)
    80000a84:	ef1ff0ef          	jal	ra,80000974 <strlen>
    80000a88:	87aa                	mv	a5,a0
    80000a8a:	873e                	mv	a4,a5
    80000a8c:	fd843783          	ld	a5,-40(s0)
    80000a90:	97ba                	add	a5,a5,a4
    80000a92:	fef43423          	sd	a5,-24(s0)
    *p++ = src;
    80000a96:	fe843783          	ld	a5,-24(s0)
    80000a9a:	00178713          	addi	a4,a5,1
    80000a9e:	fee43423          	sd	a4,-24(s0)
    80000aa2:	fd744703          	lbu	a4,-41(s0)
    80000aa6:	00e78023          	sb	a4,0(a5)
    *p = '\0';
    80000aaa:	fe843783          	ld	a5,-24(s0)
    80000aae:	00078023          	sb	zero,0(a5)

    return dest;
    80000ab2:	fd843783          	ld	a5,-40(s0)
}
    80000ab6:	853e                	mv	a0,a5
    80000ab8:	70a2                	ld	ra,40(sp)
    80000aba:	7402                	ld	s0,32(sp)
    80000abc:	6145                	addi	sp,sp,48
    80000abe:	8082                	ret

0000000080000ac0 <strncpy>:

/* Copy string from src to dest of total length size */
char* strncpy(char* dest, const char* src, int num, int size) {
    80000ac0:	7139                	addi	sp,sp,-64
    80000ac2:	fc06                	sd	ra,56(sp)
    80000ac4:	f822                	sd	s0,48(sp)
    80000ac6:	0080                	addi	s0,sp,64
    80000ac8:	fca43c23          	sd	a0,-40(s0)
    80000acc:	fcb43823          	sd	a1,-48(s0)
    80000ad0:	87b2                	mv	a5,a2
    80000ad2:	8736                	mv	a4,a3
    80000ad4:	fcf42623          	sw	a5,-52(s0)
    80000ad8:	87ba                	mv	a5,a4
    80000ada:	fcf42423          	sw	a5,-56(s0)
    /* Return if no memory is allocated to the dest or dest overflows */
    if (dest == 0) return 0;
    80000ade:	fd843783          	ld	a5,-40(s0)
    80000ae2:	e399                	bnez	a5,80000ae8 <strncpy+0x28>
    80000ae4:	4781                	li	a5,0
    80000ae6:	a0b5                	j	80000b52 <strncpy+0x92>
    if (strlen(src) >= size-1) return 0;
    80000ae8:	fd043503          	ld	a0,-48(s0)
    80000aec:	e89ff0ef          	jal	ra,80000974 <strlen>
    80000af0:	87aa                	mv	a5,a0
    80000af2:	873e                	mv	a4,a5
    80000af4:	fc842783          	lw	a5,-56(s0)
    80000af8:	37fd                	addiw	a5,a5,-1
    80000afa:	2781                	sext.w	a5,a5
    80000afc:	00f74463          	blt	a4,a5,80000b04 <strncpy+0x44>
    80000b00:	4781                	li	a5,0
    80000b02:	a881                	j	80000b52 <strncpy+0x92>

    /* Copy over string */
    char* ptr = dest;
    80000b04:	fd843783          	ld	a5,-40(s0)
    80000b08:	fef43423          	sd	a5,-24(s0)
    while (*src && num--) {
    80000b0c:	a00d                	j	80000b2e <strncpy+0x6e>
        *dest++ = *src++;
    80000b0e:	fd043703          	ld	a4,-48(s0)
    80000b12:	00170793          	addi	a5,a4,1
    80000b16:	fcf43823          	sd	a5,-48(s0)
    80000b1a:	fd843783          	ld	a5,-40(s0)
    80000b1e:	00178693          	addi	a3,a5,1
    80000b22:	fcd43c23          	sd	a3,-40(s0)
    80000b26:	00074703          	lbu	a4,0(a4)
    80000b2a:	00e78023          	sb	a4,0(a5)
    while (*src && num--) {
    80000b2e:	fd043783          	ld	a5,-48(s0)
    80000b32:	0007c783          	lbu	a5,0(a5)
    80000b36:	cb81                	beqz	a5,80000b46 <strncpy+0x86>
    80000b38:	fcc42783          	lw	a5,-52(s0)
    80000b3c:	fff7871b          	addiw	a4,a5,-1
    80000b40:	fce42623          	sw	a4,-52(s0)
    80000b44:	f7e9                	bnez	a5,80000b0e <strncpy+0x4e>
    }
    *dest = '\0';
    80000b46:	fd843783          	ld	a5,-40(s0)
    80000b4a:	00078023          	sb	zero,0(a5)

    return ptr;
    80000b4e:	fe843783          	ld	a5,-24(s0)
}
    80000b52:	853e                	mv	a0,a5
    80000b54:	70e2                	ld	ra,56(sp)
    80000b56:	7442                	ld	s0,48(sp)
    80000b58:	6121                	addi	sp,sp,64
    80000b5a:	8082                	ret

0000000080000b5c <strcmp>:

/* Boolean string equals, returns 0 if true, 1 if false */
int strcmp(const char *s1, const char *s2) {
    80000b5c:	1101                	addi	sp,sp,-32
    80000b5e:	ec22                	sd	s0,24(sp)
    80000b60:	1000                	addi	s0,sp,32
    80000b62:	fea43423          	sd	a0,-24(s0)
    80000b66:	feb43023          	sd	a1,-32(s0)
    while((*s1!='\0') || (*s2!='\0')) {
    80000b6a:	a099                	j	80000bb0 <strcmp+0x54>
        if(*s1 > *s2) return 0;
    80000b6c:	fe843783          	ld	a5,-24(s0)
    80000b70:	0007c703          	lbu	a4,0(a5)
    80000b74:	fe043783          	ld	a5,-32(s0)
    80000b78:	0007c783          	lbu	a5,0(a5)
    80000b7c:	00e7f463          	bgeu	a5,a4,80000b84 <strcmp+0x28>
    80000b80:	4781                	li	a5,0
    80000b82:	a091                	j	80000bc6 <strcmp+0x6a>
        if(*s1 < *s2) return 0;
    80000b84:	fe843783          	ld	a5,-24(s0)
    80000b88:	0007c703          	lbu	a4,0(a5)
    80000b8c:	fe043783          	ld	a5,-32(s0)
    80000b90:	0007c783          	lbu	a5,0(a5)
    80000b94:	00f77463          	bgeu	a4,a5,80000b9c <strcmp+0x40>
    80000b98:	4781                	li	a5,0
    80000b9a:	a035                	j	80000bc6 <strcmp+0x6a>
        s1++;
    80000b9c:	fe843783          	ld	a5,-24(s0)
    80000ba0:	0785                	addi	a5,a5,1
    80000ba2:	fef43423          	sd	a5,-24(s0)
        s2++;
    80000ba6:	fe043783          	ld	a5,-32(s0)
    80000baa:	0785                	addi	a5,a5,1
    80000bac:	fef43023          	sd	a5,-32(s0)
    while((*s1!='\0') || (*s2!='\0')) {
    80000bb0:	fe843783          	ld	a5,-24(s0)
    80000bb4:	0007c783          	lbu	a5,0(a5)
    80000bb8:	fbd5                	bnez	a5,80000b6c <strcmp+0x10>
    80000bba:	fe043783          	ld	a5,-32(s0)
    80000bbe:	0007c783          	lbu	a5,0(a5)
    80000bc2:	f7cd                	bnez	a5,80000b6c <strcmp+0x10>
    }
    return 1;
    80000bc4:	4785                	li	a5,1
}
    80000bc6:	853e                	mv	a0,a5
    80000bc8:	6462                	ld	s0,24(sp)
    80000bca:	6105                	addi	sp,sp,32
    80000bcc:	8082                	ret

0000000080000bce <svc_read>:
#include "scanf.h"
#include "printf.h"
#include "UART.h"

char svc_read(char *c) {
    80000bce:	1101                	addi	sp,sp,-32
    80000bd0:	ec06                	sd	ra,24(sp)
    80000bd2:	e822                	sd	s0,16(sp)
    80000bd4:	1000                	addi	s0,sp,32
    80000bd6:	fea43423          	sd	a0,-24(s0)
    // for now use read
    return read();
    80000bda:	da0ff0ef          	jal	ra,8000017a <read>
    80000bde:	87aa                	mv	a5,a0

    /*asm volatile ("MOV R0, %0" : : "r" (c));*/
    /*asm volatile ("PUSH {LR}");*/
    /*asm volatile ("svc 1");*/
    /*asm volatile ("POP {LR}");*/
}
    80000be0:	853e                	mv	a0,a5
    80000be2:	60e2                	ld	ra,24(sp)
    80000be4:	6442                	ld	s0,16(sp)
    80000be6:	6105                	addi	sp,sp,32
    80000be8:	8082                	ret

0000000080000bea <scanf>:

void scanf(char *buf, int count) {
    80000bea:	7179                	addi	sp,sp,-48
    80000bec:	f406                	sd	ra,40(sp)
    80000bee:	f022                	sd	s0,32(sp)
    80000bf0:	1800                	addi	s0,sp,48
    80000bf2:	fca43c23          	sd	a0,-40(s0)
    80000bf6:	87ae                	mv	a5,a1
    80000bf8:	fcf42a23          	sw	a5,-44(s0)
    for (int i = 0; i < count; i++) {
    80000bfc:	fe042623          	sw	zero,-20(s0)
    80000c00:	a0bd                	j	80000c6e <scanf+0x84>
        svc_read(&buf[i]);
    80000c02:	fec42783          	lw	a5,-20(s0)
    80000c06:	fd843703          	ld	a4,-40(s0)
    80000c0a:	97ba                	add	a5,a5,a4
    80000c0c:	853e                	mv	a0,a5
    80000c0e:	fc1ff0ef          	jal	ra,80000bce <svc_read>
        printf("%c", buf[i]);      // Echo the output
    80000c12:	fec42783          	lw	a5,-20(s0)
    80000c16:	fd843703          	ld	a4,-40(s0)
    80000c1a:	97ba                	add	a5,a5,a4
    80000c1c:	0007c783          	lbu	a5,0(a5)
    80000c20:	2781                	sext.w	a5,a5
    80000c22:	85be                	mv	a1,a5
    80000c24:	00000517          	auipc	a0,0x0
    80000c28:	4dc50513          	addi	a0,a0,1244 # 80001100 <_srodata+0x8>
    80000c2c:	1e4000ef          	jal	ra,80000e10 <printf>
        
        /* Continue until we see carriage return */
        if (buf[i] == '\r') {
    80000c30:	fec42783          	lw	a5,-20(s0)
    80000c34:	fd843703          	ld	a4,-40(s0)
    80000c38:	97ba                	add	a5,a5,a4
    80000c3a:	0007c783          	lbu	a5,0(a5)
    80000c3e:	873e                	mv	a4,a5
    80000c40:	47b5                	li	a5,13
    80000c42:	02f71163          	bne	a4,a5,80000c64 <scanf+0x7a>
            buf[i] = '\0';         // Terminate string with Null character.
    80000c46:	fec42783          	lw	a5,-20(s0)
    80000c4a:	fd843703          	ld	a4,-40(s0)
    80000c4e:	97ba                	add	a5,a5,a4
    80000c50:	00078023          	sb	zero,0(a5)
            printf("%c", '\n');    // Nice printing.
    80000c54:	45a9                	li	a1,10
    80000c56:	00000517          	auipc	a0,0x0
    80000c5a:	4aa50513          	addi	a0,a0,1194 # 80001100 <_srodata+0x8>
    80000c5e:	1b2000ef          	jal	ra,80000e10 <printf>
            return;
    80000c62:	a82d                	j	80000c9c <scanf+0xb2>
    for (int i = 0; i < count; i++) {
    80000c64:	fec42783          	lw	a5,-20(s0)
    80000c68:	2785                	addiw	a5,a5,1
    80000c6a:	fef42623          	sw	a5,-20(s0)
    80000c6e:	fec42703          	lw	a4,-20(s0)
    80000c72:	fd442783          	lw	a5,-44(s0)
    80000c76:	2701                	sext.w	a4,a4
    80000c78:	2781                	sext.w	a5,a5
    80000c7a:	f8f744e3          	blt	a4,a5,80000c02 <scanf+0x18>
        }
    }
    buf[count-1] = '\0';           // Terminate String with Null character.
    80000c7e:	fd442783          	lw	a5,-44(s0)
    80000c82:	17fd                	addi	a5,a5,-1
    80000c84:	fd843703          	ld	a4,-40(s0)
    80000c88:	97ba                	add	a5,a5,a4
    80000c8a:	00078023          	sb	zero,0(a5)
    printf("%c", '\n');            // Nice printing
    80000c8e:	45a9                	li	a1,10
    80000c90:	00000517          	auipc	a0,0x0
    80000c94:	47050513          	addi	a0,a0,1136 # 80001100 <_srodata+0x8>
    80000c98:	178000ef          	jal	ra,80000e10 <printf>
}
    80000c9c:	70a2                	ld	ra,40(sp)
    80000c9e:	7402                	ld	s0,32(sp)
    80000ca0:	6145                	addi	sp,sp,48
    80000ca2:	8082                	ret

0000000080000ca4 <printint>:
#include "UART.h"
#include "math.h"

static char digits[] = "0123456789abcdef";

static void printint(int xx, int base, int sign) {
    80000ca4:	7139                	addi	sp,sp,-64
    80000ca6:	fc06                	sd	ra,56(sp)
    80000ca8:	f822                	sd	s0,48(sp)
    80000caa:	0080                	addi	s0,sp,64
    80000cac:	87aa                	mv	a5,a0
    80000cae:	86ae                	mv	a3,a1
    80000cb0:	8732                	mv	a4,a2
    80000cb2:	fcf42623          	sw	a5,-52(s0)
    80000cb6:	87b6                	mv	a5,a3
    80000cb8:	fcf42423          	sw	a5,-56(s0)
    80000cbc:	87ba                	mv	a5,a4
    80000cbe:	fcf42223          	sw	a5,-60(s0)
    char buf[16];
    int i;
    int x;

    if(sign && (sign = xx < 0))
    80000cc2:	fc442783          	lw	a5,-60(s0)
    80000cc6:	2781                	sext.w	a5,a5
    80000cc8:	c785                	beqz	a5,80000cf0 <printint+0x4c>
    80000cca:	fcc42783          	lw	a5,-52(s0)
    80000cce:	01f7d79b          	srliw	a5,a5,0x1f
    80000cd2:	0ff7f793          	andi	a5,a5,255
    80000cd6:	fcf42223          	sw	a5,-60(s0)
    80000cda:	fc442783          	lw	a5,-60(s0)
    80000cde:	2781                	sext.w	a5,a5
    80000ce0:	cb81                	beqz	a5,80000cf0 <printint+0x4c>
        x = -xx;
    80000ce2:	fcc42783          	lw	a5,-52(s0)
    80000ce6:	40f007bb          	negw	a5,a5
    80000cea:	fef42423          	sw	a5,-24(s0)
    80000cee:	a029                	j	80000cf8 <printint+0x54>
    else
        x = xx;
    80000cf0:	fcc42783          	lw	a5,-52(s0)
    80000cf4:	fef42423          	sw	a5,-24(s0)

    i = 0;
    80000cf8:	fe042623          	sw	zero,-20(s0)
    do {
        buf[i++] = digits[x % base];
    80000cfc:	fe842703          	lw	a4,-24(s0)
    80000d00:	fc842783          	lw	a5,-56(s0)
    80000d04:	02f767bb          	remw	a5,a4,a5
    80000d08:	0007871b          	sext.w	a4,a5
    80000d0c:	fec42783          	lw	a5,-20(s0)
    80000d10:	0017869b          	addiw	a3,a5,1
    80000d14:	fed42623          	sw	a3,-20(s0)
    80000d18:	00000697          	auipc	a3,0x0
    80000d1c:	41068693          	addi	a3,a3,1040 # 80001128 <digits>
    80000d20:	9736                	add	a4,a4,a3
    80000d22:	00074703          	lbu	a4,0(a4)
    80000d26:	ff040693          	addi	a3,s0,-16
    80000d2a:	97b6                	add	a5,a5,a3
    80000d2c:	fee78423          	sb	a4,-24(a5)
    } while((x /= base) != 0);
    80000d30:	fe842703          	lw	a4,-24(s0)
    80000d34:	fc842783          	lw	a5,-56(s0)
    80000d38:	02f747bb          	divw	a5,a4,a5
    80000d3c:	fef42423          	sw	a5,-24(s0)
    80000d40:	fe842783          	lw	a5,-24(s0)
    80000d44:	2781                	sext.w	a5,a5
    80000d46:	fbdd                	bnez	a5,80000cfc <printint+0x58>

    if(sign)
    80000d48:	fc442783          	lw	a5,-60(s0)
    80000d4c:	2781                	sext.w	a5,a5
    80000d4e:	cb8d                	beqz	a5,80000d80 <printint+0xdc>
        buf[i++] = '-';
    80000d50:	fec42783          	lw	a5,-20(s0)
    80000d54:	0017871b          	addiw	a4,a5,1
    80000d58:	fee42623          	sw	a4,-20(s0)
    80000d5c:	ff040713          	addi	a4,s0,-16
    80000d60:	97ba                	add	a5,a5,a4
    80000d62:	02d00713          	li	a4,45
    80000d66:	fee78423          	sb	a4,-24(a5)

    while(--i >= 0)
    80000d6a:	a819                	j	80000d80 <printint+0xdc>
        write(buf[i]);
    80000d6c:	fec42783          	lw	a5,-20(s0)
    80000d70:	ff040713          	addi	a4,s0,-16
    80000d74:	97ba                	add	a5,a5,a4
    80000d76:	fe87c783          	lbu	a5,-24(a5)
    80000d7a:	853e                	mv	a0,a5
    80000d7c:	bc4ff0ef          	jal	ra,80000140 <write>
    while(--i >= 0)
    80000d80:	fec42783          	lw	a5,-20(s0)
    80000d84:	37fd                	addiw	a5,a5,-1
    80000d86:	fef42623          	sw	a5,-20(s0)
    80000d8a:	fec42783          	lw	a5,-20(s0)
    80000d8e:	2781                	sext.w	a5,a5
    80000d90:	fc07dee3          	bgez	a5,80000d6c <printint+0xc8>
}
    80000d94:	0001                	nop
    80000d96:	0001                	nop
    80000d98:	70e2                	ld	ra,56(sp)
    80000d9a:	7442                	ld	s0,48(sp)
    80000d9c:	6121                	addi	sp,sp,64
    80000d9e:	8082                	ret

0000000080000da0 <printptr>:

static void printptr(int x) {
    80000da0:	7179                	addi	sp,sp,-48
    80000da2:	f406                	sd	ra,40(sp)
    80000da4:	f022                	sd	s0,32(sp)
    80000da6:	1800                	addi	s0,sp,48
    80000da8:	87aa                	mv	a5,a0
    80000daa:	fcf42e23          	sw	a5,-36(s0)
    int i;
    write('0');
    80000dae:	03000513          	li	a0,48
    80000db2:	b8eff0ef          	jal	ra,80000140 <write>
    write('x');
    80000db6:	07800513          	li	a0,120
    80000dba:	b86ff0ef          	jal	ra,80000140 <write>
    for (i = 0; i < (sizeof(int) * 2); i++, x <<= 4)
    80000dbe:	fe042623          	sw	zero,-20(s0)
    80000dc2:	a81d                	j	80000df8 <printptr+0x58>
        write(digits[x >> (sizeof(int) * 8 - 4)]);
    80000dc4:	fdc42783          	lw	a5,-36(s0)
    80000dc8:	41c7d79b          	sraiw	a5,a5,0x1c
    80000dcc:	2781                	sext.w	a5,a5
    80000dce:	00000717          	auipc	a4,0x0
    80000dd2:	35a70713          	addi	a4,a4,858 # 80001128 <digits>
    80000dd6:	97ba                	add	a5,a5,a4
    80000dd8:	0007c783          	lbu	a5,0(a5)
    80000ddc:	853e                	mv	a0,a5
    80000dde:	b62ff0ef          	jal	ra,80000140 <write>
    for (i = 0; i < (sizeof(int) * 2); i++, x <<= 4)
    80000de2:	fec42783          	lw	a5,-20(s0)
    80000de6:	2785                	addiw	a5,a5,1
    80000de8:	fef42623          	sw	a5,-20(s0)
    80000dec:	fdc42783          	lw	a5,-36(s0)
    80000df0:	0047979b          	slliw	a5,a5,0x4
    80000df4:	fcf42e23          	sw	a5,-36(s0)
    80000df8:	fec42783          	lw	a5,-20(s0)
    80000dfc:	873e                	mv	a4,a5
    80000dfe:	479d                	li	a5,7
    80000e00:	fce7f2e3          	bgeu	a5,a4,80000dc4 <printptr+0x24>
}
    80000e04:	0001                	nop
    80000e06:	0001                	nop
    80000e08:	70a2                	ld	ra,40(sp)
    80000e0a:	7402                	ld	s0,32(sp)
    80000e0c:	6145                	addi	sp,sp,48
    80000e0e:	8082                	ret

0000000080000e10 <printf>:

/* printf formats and prints a string */
/* TODO: Replace with svc_print, merge together into one string */
void printf(char *fmt, ...) {
    80000e10:	7119                	addi	sp,sp,-128
    80000e12:	fc06                	sd	ra,56(sp)
    80000e14:	f822                	sd	s0,48(sp)
    80000e16:	0080                	addi	s0,sp,64
    80000e18:	fca43423          	sd	a0,-56(s0)
    80000e1c:	e40c                	sd	a1,8(s0)
    80000e1e:	e810                	sd	a2,16(s0)
    80000e20:	ec14                	sd	a3,24(s0)
    80000e22:	f018                	sd	a4,32(s0)
    80000e24:	f41c                	sd	a5,40(s0)
    80000e26:	03043823          	sd	a6,48(s0)
    80000e2a:	03143c23          	sd	a7,56(s0)
    va_list ap;
    int i, c;
    char *s;

    va_start(ap, fmt);
    80000e2e:	04040793          	addi	a5,s0,64
    80000e32:	fcf43023          	sd	a5,-64(s0)
    80000e36:	fc043783          	ld	a5,-64(s0)
    80000e3a:	fc878793          	addi	a5,a5,-56
    80000e3e:	fcf43823          	sd	a5,-48(s0)
    for(i = 0; (c = fmt[i] & 0xff) != 0; i++) {
    80000e42:	fe042623          	sw	zero,-20(s0)
    80000e46:	a261                	j	80000fce <printf+0x1be>
        if(c != '%') {
    80000e48:	fdc42783          	lw	a5,-36(s0)
    80000e4c:	0007871b          	sext.w	a4,a5
    80000e50:	02500793          	li	a5,37
    80000e54:	00f70a63          	beq	a4,a5,80000e68 <printf+0x58>
            write(c);
    80000e58:	fdc42783          	lw	a5,-36(s0)
    80000e5c:	0ff7f793          	andi	a5,a5,255
    80000e60:	853e                	mv	a0,a5
    80000e62:	adeff0ef          	jal	ra,80000140 <write>
            continue;
    80000e66:	aab9                	j	80000fc4 <printf+0x1b4>
        }
        c = fmt[++i] & 0xff;
    80000e68:	fec42783          	lw	a5,-20(s0)
    80000e6c:	2785                	addiw	a5,a5,1
    80000e6e:	fef42623          	sw	a5,-20(s0)
    80000e72:	fec42783          	lw	a5,-20(s0)
    80000e76:	fc843703          	ld	a4,-56(s0)
    80000e7a:	97ba                	add	a5,a5,a4
    80000e7c:	0007c783          	lbu	a5,0(a5)
    80000e80:	fcf42e23          	sw	a5,-36(s0)
        if(c == 0)
    80000e84:	fdc42783          	lw	a5,-36(s0)
    80000e88:	2781                	sext.w	a5,a5
    80000e8a:	16078163          	beqz	a5,80000fec <printf+0x1dc>
            break;
        switch(c) {
    80000e8e:	fdc42783          	lw	a5,-36(s0)
    80000e92:	0007871b          	sext.w	a4,a5
    80000e96:	07800793          	li	a5,120
    80000e9a:	08f70763          	beq	a4,a5,80000f28 <printf+0x118>
    80000e9e:	fdc42783          	lw	a5,-36(s0)
    80000ea2:	0007871b          	sext.w	a4,a5
    80000ea6:	07800793          	li	a5,120
    80000eaa:	10e7c163          	blt	a5,a4,80000fac <printf+0x19c>
    80000eae:	fdc42783          	lw	a5,-36(s0)
    80000eb2:	0007871b          	sext.w	a4,a5
    80000eb6:	07300793          	li	a5,115
    80000eba:	08f70f63          	beq	a4,a5,80000f58 <printf+0x148>
    80000ebe:	fdc42783          	lw	a5,-36(s0)
    80000ec2:	0007871b          	sext.w	a4,a5
    80000ec6:	07300793          	li	a5,115
    80000eca:	0ee7c163          	blt	a5,a4,80000fac <printf+0x19c>
    80000ece:	fdc42783          	lw	a5,-36(s0)
    80000ed2:	0007871b          	sext.w	a4,a5
    80000ed6:	07000793          	li	a5,112
    80000eda:	06f70463          	beq	a4,a5,80000f42 <printf+0x132>
    80000ede:	fdc42783          	lw	a5,-36(s0)
    80000ee2:	0007871b          	sext.w	a4,a5
    80000ee6:	07000793          	li	a5,112
    80000eea:	0ce7c163          	blt	a5,a4,80000fac <printf+0x19c>
    80000eee:	fdc42783          	lw	a5,-36(s0)
    80000ef2:	0007871b          	sext.w	a4,a5
    80000ef6:	02500793          	li	a5,37
    80000efa:	0af70463          	beq	a4,a5,80000fa2 <printf+0x192>
    80000efe:	fdc42783          	lw	a5,-36(s0)
    80000f02:	0007871b          	sext.w	a4,a5
    80000f06:	06400793          	li	a5,100
    80000f0a:	0af71163          	bne	a4,a5,80000fac <printf+0x19c>
            case 'd':
                printint(va_arg(ap, int), 10, 1);
    80000f0e:	fd043783          	ld	a5,-48(s0)
    80000f12:	00878713          	addi	a4,a5,8
    80000f16:	fce43823          	sd	a4,-48(s0)
    80000f1a:	439c                	lw	a5,0(a5)
    80000f1c:	4605                	li	a2,1
    80000f1e:	45a9                	li	a1,10
    80000f20:	853e                	mv	a0,a5
    80000f22:	d83ff0ef          	jal	ra,80000ca4 <printint>
                break;
    80000f26:	a879                	j	80000fc4 <printf+0x1b4>
            case 'x':
                printint(va_arg(ap, int), 16, 1);
    80000f28:	fd043783          	ld	a5,-48(s0)
    80000f2c:	00878713          	addi	a4,a5,8
    80000f30:	fce43823          	sd	a4,-48(s0)
    80000f34:	439c                	lw	a5,0(a5)
    80000f36:	4605                	li	a2,1
    80000f38:	45c1                	li	a1,16
    80000f3a:	853e                	mv	a0,a5
    80000f3c:	d69ff0ef          	jal	ra,80000ca4 <printint>
                break;
    80000f40:	a051                	j	80000fc4 <printf+0x1b4>
            case 'p':
                printptr(va_arg(ap, int));
    80000f42:	fd043783          	ld	a5,-48(s0)
    80000f46:	00878713          	addi	a4,a5,8
    80000f4a:	fce43823          	sd	a4,-48(s0)
    80000f4e:	439c                	lw	a5,0(a5)
    80000f50:	853e                	mv	a0,a5
    80000f52:	e4fff0ef          	jal	ra,80000da0 <printptr>
                break;
    80000f56:	a0bd                	j	80000fc4 <printf+0x1b4>
            case 's':
                if((s = va_arg(ap, char*)) == 0)
    80000f58:	fd043783          	ld	a5,-48(s0)
    80000f5c:	00878713          	addi	a4,a5,8
    80000f60:	fce43823          	sd	a4,-48(s0)
    80000f64:	639c                	ld	a5,0(a5)
    80000f66:	fef43023          	sd	a5,-32(s0)
    80000f6a:	fe043783          	ld	a5,-32(s0)
    80000f6e:	e785                	bnez	a5,80000f96 <printf+0x186>
                    s = "(null)";
    80000f70:	00000797          	auipc	a5,0x0
    80000f74:	19878793          	addi	a5,a5,408 # 80001108 <_srodata+0x10>
    80000f78:	fef43023          	sd	a5,-32(s0)
                for(; *s; s++)
    80000f7c:	a829                	j	80000f96 <printf+0x186>
                    write(*s);
    80000f7e:	fe043783          	ld	a5,-32(s0)
    80000f82:	0007c783          	lbu	a5,0(a5)
    80000f86:	853e                	mv	a0,a5
    80000f88:	9b8ff0ef          	jal	ra,80000140 <write>
                for(; *s; s++)
    80000f8c:	fe043783          	ld	a5,-32(s0)
    80000f90:	0785                	addi	a5,a5,1
    80000f92:	fef43023          	sd	a5,-32(s0)
    80000f96:	fe043783          	ld	a5,-32(s0)
    80000f9a:	0007c783          	lbu	a5,0(a5)
    80000f9e:	f3e5                	bnez	a5,80000f7e <printf+0x16e>
                break;
    80000fa0:	a015                	j	80000fc4 <printf+0x1b4>
            case '%':
                write('%');
    80000fa2:	02500513          	li	a0,37
    80000fa6:	99aff0ef          	jal	ra,80000140 <write>
                break;
    80000faa:	a829                	j	80000fc4 <printf+0x1b4>
            default:
                // Print unknown % sequence to draw attention.
                write('%');
    80000fac:	02500513          	li	a0,37
    80000fb0:	990ff0ef          	jal	ra,80000140 <write>
                write(c);
    80000fb4:	fdc42783          	lw	a5,-36(s0)
    80000fb8:	0ff7f793          	andi	a5,a5,255
    80000fbc:	853e                	mv	a0,a5
    80000fbe:	982ff0ef          	jal	ra,80000140 <write>
                break;
    80000fc2:	0001                	nop
    for(i = 0; (c = fmt[i] & 0xff) != 0; i++) {
    80000fc4:	fec42783          	lw	a5,-20(s0)
    80000fc8:	2785                	addiw	a5,a5,1
    80000fca:	fef42623          	sw	a5,-20(s0)
    80000fce:	fec42783          	lw	a5,-20(s0)
    80000fd2:	fc843703          	ld	a4,-56(s0)
    80000fd6:	97ba                	add	a5,a5,a4
    80000fd8:	0007c783          	lbu	a5,0(a5)
    80000fdc:	fcf42e23          	sw	a5,-36(s0)
    80000fe0:	fdc42783          	lw	a5,-36(s0)
    80000fe4:	2781                	sext.w	a5,a5
    80000fe6:	e60791e3          	bnez	a5,80000e48 <printf+0x38>
        }
    }
}
    80000fea:	a011                	j	80000fee <printf+0x1de>
            break;
    80000fec:	0001                	nop
}
    80000fee:	0001                	nop
    80000ff0:	70e2                	ld	ra,56(sp)
    80000ff2:	7442                	ld	s0,48(sp)
    80000ff4:	6109                	addi	sp,sp,128
    80000ff6:	8082                	ret

0000000080000ff8 <svc_print>:

/* Use an svc call to print a char* */
void svc_print(char *c, int size) {
    80000ff8:	1101                	addi	sp,sp,-32
    80000ffa:	ec22                	sd	s0,24(sp)
    80000ffc:	1000                	addi	s0,sp,32
    80000ffe:	fea43423          	sd	a0,-24(s0)
    80001002:	87ae                	mv	a5,a1
    80001004:	fef42223          	sw	a5,-28(s0)
    /*asm volatile ("MOV R0, %0": : "r" (c));*/
    /*asm volatile ("MOV R1, %0": : "r" (size));*/
    /*asm volatile ("PUSH {LR}");*/
    /*asm volatile ("svc 0");*/
    /*asm volatile ("POP {LR}");*/
}
    80001008:	0001                	nop
    8000100a:	6462                	ld	s0,24(sp)
    8000100c:	6105                	addi	sp,sp,32
    8000100e:	8082                	ret

0000000080001010 <add_int>:

/* Add an int value to the print */
void add_int(unsigned int s, char *f) {
    80001010:	1101                	addi	sp,sp,-32
    80001012:	ec06                	sd	ra,24(sp)
    80001014:	e822                	sd	s0,16(sp)
    80001016:	1000                	addi	s0,sp,32
    80001018:	87aa                	mv	a5,a0
    8000101a:	feb43023          	sd	a1,-32(s0)
    8000101e:	fef42623          	sw	a5,-20(s0)
    if (s < 10) {
    80001022:	fec42783          	lw	a5,-20(s0)
    80001026:	0007871b          	sext.w	a4,a5
    8000102a:	47a5                	li	a5,9
    8000102c:	02e7e263          	bltu	a5,a4,80001050 <add_int+0x40>
        strcatc(f, s + '0', 100);
    80001030:	fec42783          	lw	a5,-20(s0)
    80001034:	0ff7f793          	andi	a5,a5,255
    80001038:	0307879b          	addiw	a5,a5,48
    8000103c:	0ff7f793          	andi	a5,a5,255
    80001040:	06400613          	li	a2,100
    80001044:	85be                	mv	a1,a5
    80001046:	fe043503          	ld	a0,-32(s0)
    8000104a:	9fdff0ef          	jal	ra,80000a46 <strcatc>
    } else {
        add_int(s / 10, f);
        add_int(s % 10, f);
    }
}
    8000104e:	a03d                	j	8000107c <add_int+0x6c>
        add_int(s / 10, f);
    80001050:	fec42703          	lw	a4,-20(s0)
    80001054:	47a9                	li	a5,10
    80001056:	02f757bb          	divuw	a5,a4,a5
    8000105a:	2781                	sext.w	a5,a5
    8000105c:	fe043583          	ld	a1,-32(s0)
    80001060:	853e                	mv	a0,a5
    80001062:	fafff0ef          	jal	ra,80001010 <add_int>
        add_int(s % 10, f);
    80001066:	fec42703          	lw	a4,-20(s0)
    8000106a:	47a9                	li	a5,10
    8000106c:	02f777bb          	remuw	a5,a4,a5
    80001070:	2781                	sext.w	a5,a5
    80001072:	fe043583          	ld	a1,-32(s0)
    80001076:	853e                	mv	a0,a5
    80001078:	f99ff0ef          	jal	ra,80001010 <add_int>
}
    8000107c:	0001                	nop
    8000107e:	60e2                	ld	ra,24(sp)
    80001080:	6442                	ld	s0,16(sp)
    80001082:	6105                	addi	sp,sp,32
    80001084:	8082                	ret

0000000080001086 <add_hex>:

/* Add a hex value to the print */
void add_hex(unsigned int s, char *f) {
    80001086:	1101                	addi	sp,sp,-32
    80001088:	ec06                	sd	ra,24(sp)
    8000108a:	e822                	sd	s0,16(sp)
    8000108c:	1000                	addi	s0,sp,32
    8000108e:	87aa                	mv	a5,a0
    80001090:	feb43023          	sd	a1,-32(s0)
    80001094:	fef42623          	sw	a5,-20(s0)
    if (s < 16) {
    80001098:	fec42783          	lw	a5,-20(s0)
    8000109c:	0007871b          	sext.w	a4,a5
    800010a0:	47bd                	li	a5,15
    800010a2:	02e7e063          	bltu	a5,a4,800010c2 <add_hex+0x3c>
        strcatc(f, digit_to_hex(s), 100);
    800010a6:	fec42783          	lw	a5,-20(s0)
    800010aa:	853e                	mv	a0,a5
    800010ac:	f06ff0ef          	jal	ra,800007b2 <digit_to_hex>
    800010b0:	87aa                	mv	a5,a0
    800010b2:	06400613          	li	a2,100
    800010b6:	85be                	mv	a1,a5
    800010b8:	fe043503          	ld	a0,-32(s0)
    800010bc:	98bff0ef          	jal	ra,80000a46 <strcatc>
    } else {
        add_hex(s / 16, f);
        add_hex(s % 16, f);
    }
}
    800010c0:	a025                	j	800010e8 <add_hex+0x62>
        add_hex(s / 16, f);
    800010c2:	fec42783          	lw	a5,-20(s0)
    800010c6:	0047d79b          	srliw	a5,a5,0x4
    800010ca:	2781                	sext.w	a5,a5
    800010cc:	fe043583          	ld	a1,-32(s0)
    800010d0:	853e                	mv	a0,a5
    800010d2:	fb5ff0ef          	jal	ra,80001086 <add_hex>
        add_hex(s % 16, f);
    800010d6:	fec42783          	lw	a5,-20(s0)
    800010da:	8bbd                	andi	a5,a5,15
    800010dc:	2781                	sext.w	a5,a5
    800010de:	fe043583          	ld	a1,-32(s0)
    800010e2:	853e                	mv	a0,a5
    800010e4:	fa3ff0ef          	jal	ra,80001086 <add_hex>
}
    800010e8:	0001                	nop
    800010ea:	60e2                	ld	ra,24(sp)
    800010ec:	6442                	ld	s0,16(sp)
    800010ee:	6105                	addi	sp,sp,32
    800010f0:	8082                	ret
	...

Disassembly of section .rodata:

00000000800010f8 <_srodata>:
    800010f8:	6e28                	ld	a0,88(a2)
    800010fa:	6c75                	lui	s8,0x1d
    800010fc:	296c                	fld	fa1,208(a0)
    800010fe:	0000                	unimp
    80001100:	6325                	lui	t1,0x9
    80001102:	0000                	unimp
    80001104:	0000                	unimp
    80001106:	0000                	unimp
    80001108:	6e28                	ld	a0,88(a2)
    8000110a:	6c75                	lui	s8,0x1d
    8000110c:	296c                	fld	fa1,208(a0)
	...

Disassembly of section .data:

0000000080001110 <_sdata>:
    80001110:	3130                	fld	fa2,96(a0)
    80001112:	3332                	fld	ft6,296(sp)
    80001114:	3534                	fld	fa3,104(a0)
    80001116:	3736                	fld	fa4,360(sp)
    80001118:	3938                	fld	fa4,112(a0)
    8000111a:	6261                	lui	tp,0x18
    8000111c:	66656463          	bltu	a0,t1,80001784 <_edata+0x648>
	...

0000000080001128 <digits>:
static char digits[] = "0123456789abcdef";
    80001128:	3130                	fld	fa2,96(a0)
    8000112a:	3332                	fld	ft6,296(sp)
    8000112c:	3534                	fld	fa3,104(a0)
    8000112e:	3736                	fld	fa4,360(sp)
    80001130:	3938                	fld	fa4,112(a0)
    80001132:	6261                	lui	tp,0x18
    80001134:	66656463          	bltu	a0,t1,8000179c <_edata+0x660>
    80001138:	0000                	unimp
	...

Disassembly of section .riscv.attributes:

0000000000000000 <.riscv.attributes>:
   0:	3441                	addiw	s0,s0,-16
   2:	0000                	unimp
   4:	7200                	ld	s0,32(a2)
   6:	7369                	lui	t1,0xffffa
   8:	01007663          	bgeu	zero,a6,14 <_stack_size-0xfec>
   c:	002a                	c.slli	zero,0xa
   e:	0000                	unimp
  10:	1004                	addi	s1,sp,32
  12:	7205                	lui	tp,0xfffe1
  14:	3676                	fld	fa2,376(sp)
  16:	6934                	ld	a3,80(a0)
  18:	7032                	0x7032
  1a:	5f30                	lw	a2,120(a4)
  1c:	326d                	addiw	tp,tp,-5
  1e:	3070                	fld	fa2,224(s0)
  20:	615f 7032 5f30      	0x5f307032615f
  26:	3266                	fld	ft4,120(sp)
  28:	3070                	fld	fa2,224(s0)
  2a:	645f 7032 5f30      	0x5f307032645f
  30:	30703263          	0x30703263
	...

Disassembly of section .comment:

0000000000000000 <.comment>:
   0:	3a434347          	fmsub.d	ft6,ft6,ft4,ft7,rmm
   4:	2820                	fld	fs0,80(s0)
   6:	29554e47          	fmsub.s	ft8,fa0,fs5,ft5,rmm
   a:	3920                	fld	fs0,112(a0)
   c:	322e                	fld	ft4,232(sp)
   e:	302e                	fld	ft0,232(sp)
	...

Disassembly of section .debug_line:

0000000000000000 <.debug_line>:
       0:	0044                	addi	s1,sp,4
       2:	0000                	unimp
       4:	00200003          	lb	zero,2(zero) # 2 <_stack_size-0xffe>
       8:	0000                	unimp
       a:	0101                	addi	sp,sp,0
       c:	000d0efb          	0xd0efb
      10:	0101                	addi	sp,sp,0
      12:	0101                	addi	sp,sp,0
      14:	0000                	unimp
      16:	0100                	addi	s0,sp,128
      18:	0000                	unimp
      1a:	0001                	nop
      1c:	72617473          	csrrci	s0,0x726,2
      20:	7574                	ld	a3,232(a0)
      22:	2e70                	fld	fa2,216(a2)
      24:	00000073          	ecall
      28:	0000                	unimp
      2a:	0900                	addi	s0,sp,144
      2c:	0002                	c.slli64	zero
      2e:	0000                	unimp
      30:	0080                	addi	s0,sp,64
      32:	0000                	unimp
      34:	1700                	addi	s0,sp,928
      36:	08090103          	lb	sp,128(s2)
      3a:	0100                	addi	s0,sp,128
      3c:	04090203          	lb	tp,64(s2)
      40:	0100                	addi	s0,sp,128
      42:	0209                	addi	tp,tp,2
      44:	0000                	unimp
      46:	0101                	addi	sp,sp,0
      48:	003a                	c.slli	zero,0xe
      4a:	0000                	unimp
      4c:	00220003          	lb	zero,2(tp) # fffffffffffe1002 <_estack+0xffffffff7ffdeec2>
      50:	0000                	unimp
      52:	0101                	addi	sp,sp,0
      54:	000d0efb          	0xd0efb
      58:	0101                	addi	sp,sp,0
      5a:	0101                	addi	sp,sp,0
      5c:	0000                	unimp
      5e:	0100                	addi	s0,sp,128
      60:	0000                	unimp
      62:	0001                	nop
      64:	6e72656b          	0x6e72656b
      68:	6c65                	lui	s8,0x19
      6a:	6576                	ld	a0,344(sp)
      6c:	00732e63          	0x732e63
      70:	0000                	unimp
      72:	0000                	unimp
      74:	0900                	addi	s0,sp,144
      76:	1002                	c.slli	zero,0x20
      78:	0000                	unimp
      7a:	0080                	addi	s0,sp,64
      7c:	0000                	unimp
      7e:	1a00                	addi	s0,sp,304
      80:	0209                	addi	tp,tp,2
      82:	0000                	unimp
      84:	0101                	addi	sp,sp,0
      86:	0168                	addi	a0,sp,140
      88:	0000                	unimp
      8a:	008e0003          	lb	zero,8(t3)
      8e:	0000                	unimp
      90:	0101                	addi	sp,sp,0
      92:	000d0efb          	0xd0efb
      96:	0101                	addi	sp,sp,0
      98:	0101                	addi	sp,sp,0
      9a:	0000                	unimp
      9c:	0100                	addi	s0,sp,128
      9e:	0000                	unimp
      a0:	2f01                	sext.w	t5,t5
      a2:	7375                	lui	t1,0xffffd
      a4:	2f72                	fld	ft10,280(sp)
      a6:	6f6c                	ld	a1,216(a4)
      a8:	2f6c6163          	bltu	s8,s6,38a <_stack_size-0xc76>
      ac:	6c6c6543          	0x6c6c6543
      b0:	7261                	lui	tp,0xffff8
      b2:	7369722f          	0x7369722f
      b6:	672d7663          	bgeu	s10,s2,722 <_stack_size-0x8de>
      ba:	756e                	ld	a0,248(sp)
      bc:	742d                	lui	s0,0xfffeb
      be:	636c6f6f          	jal	t5,c66f4 <_stack_size+0xc56f4>
      c2:	6168                	ld	a0,192(a0)
      c4:	6e69                	lui	t3,0x1a
      c6:	756e672f          	0x756e672f
      ca:	62696c2f          	0x62696c2f
      ce:	6363672f          	0x6363672f
      d2:	7369722f          	0x7369722f
      d6:	34367663          	bgeu	a2,gp,422 <_stack_size-0xbde>
      da:	752d                	lui	a0,0xfffeb
      dc:	6b6e                	ld	s6,216(sp)
      de:	6f6e                	ld	t5,216(sp)
      e0:	652d6e77          	0x652d6e77
      e4:	666c                	ld	a1,200(a2)
      e6:	322e392f          	0x322e392f
      ea:	302e                	fld	ft0,232(sp)
      ec:	636e692f          	0x636e692f
      f0:	756c                	ld	a1,232(a0)
      f2:	6564                	ld	s1,200(a0)
      f4:	0000                	unimp
      f6:	6972                	ld	s2,280(sp)
      f8:	2e766373          	csrrsi	t1,0x2e7,12
      fc:	0068                	addi	a0,sp,12
      fe:	0000                	unimp
     100:	6b00                	ld	s0,16(a4)
     102:	7265                	lui	tp,0xffff9
     104:	656e                	ld	a0,216(sp)
     106:	2e6c                	fld	fa1,216(a2)
     108:	00000063          	beqz	zero,108 <_stack_size-0xef8>
     10c:	7300                	ld	s0,32(a4)
     10e:	6474                	ld	a3,200(s0)
     110:	6e69                	lui	t3,0x1a
     112:	2d74                	fld	fa3,216(a0)
     114:	2e636367          	0x2e636367
     118:	0068                	addi	a0,sp,12
     11a:	0001                	nop
     11c:	0000                	unimp
     11e:	2405                	addiw	s0,s0,1
     120:	0900                	addi	s0,sp,144
     122:	1202                	slli	tp,tp,0x20
     124:	0000                	unimp
     126:	0080                	addi	s0,sp,64
     128:	0000                	unimp
     12a:	0300                	addi	s0,sp,384
     12c:	0114                	addi	a3,sp,128
     12e:	0305                	addi	t1,t1,1
     130:	06090203          	lb	tp,96(s2)
     134:	0100                	addi	s0,sp,128
     136:	0a05                	addi	s4,s4,1
     138:	08090103          	lb	sp,128(s2)
     13c:	0100                	addi	s0,sp,128
     13e:	0105                	addi	sp,sp,1
     140:	04090103          	lb	sp,64(s2)
     144:	0100                	addi	s0,sp,128
     146:	2b05                	addiw	s6,s6,1
     148:	08090203          	lb	tp,128(s2)
     14c:	0100                	addi	s0,sp,128
     14e:	0305                	addi	t1,t1,1
     150:	0a090103          	lb	sp,160(s2)
     154:	0100                	addi	s0,sp,128
     156:	0105                	addi	sp,sp,1
     158:	08090103          	lb	sp,128(s2)
     15c:	0100                	addi	s0,sp,128
     15e:	2805                	addiw	a6,a6,1
     160:	08090503          	lb	a0,128(s2)
     164:	0100                	addi	s0,sp,128
     166:	0305                	addi	t1,t1,1
     168:	0a090103          	lb	sp,160(s2)
     16c:	0100                	addi	s0,sp,128
     16e:	0105                	addi	sp,sp,1
     170:	08090103          	lb	sp,128(s2)
     174:	0100                	addi	s0,sp,128
     176:	2905                	addiw	s2,s2,1
     178:	0900eb03          	lwu	s6,144(ra)
     17c:	0008                	0x8
     17e:	0501                	addi	a0,a0,0
     180:	09010303          	lb	t1,144(sp)
     184:	000a                	c.slli	zero,0x2
     186:	0501                	addi	a0,a0,0
     188:	0301                	addi	t1,t1,0
     18a:	0901                	addi	s2,s2,0
     18c:	0008                	0x8
     18e:	0401                	addi	s0,s0,0
     190:	0502                	c.slli64	a0
     192:	030d                	addi	t1,t1,3
     194:	7efa                	ld	t4,440(sp)
     196:	0809                	addi	a6,a6,2
     198:	0100                	addi	s0,sp,128
     19a:	0505                	addi	a0,a0,1
     19c:	08090203          	lb	tp,128(s2)
     1a0:	0100                	addi	s0,sp,128
     1a2:	1705                	addi	a4,a4,-31
     1a4:	04090303          	lb	t1,64(s2)
     1a8:	0100                	addi	s0,sp,128
     1aa:	0705                	addi	a4,a4,1
     1ac:	08090103          	lb	sp,128(s2)
     1b0:	0100                	addi	s0,sp,128
     1b2:	0505                	addi	a0,a0,1
     1b4:	10090203          	lb	tp,256(s2)
     1b8:	0100                	addi	s0,sp,128
     1ba:	08090403          	lb	s0,128(s2)
     1be:	0100                	addi	s0,sp,128
     1c0:	0e090303          	lb	t1,224(s2)
     1c4:	0100                	addi	s0,sp,128
     1c6:	0e090303          	lb	t1,224(s2)
     1ca:	0100                	addi	s0,sp,128
     1cc:	0105                	addi	sp,sp,1
     1ce:	04090a03          	lb	s4,64(s2)
     1d2:	0100                	addi	s0,sp,128
     1d4:	0d05                	addi	s10,s10,1
     1d6:	0a090203          	lb	tp,160(s2)
     1da:	0100                	addi	s0,sp,128
     1dc:	0505                	addi	a0,a0,1
     1de:	06090203          	lb	tp,96(s2)
     1e2:	0100                	addi	s0,sp,128
     1e4:	0105                	addi	sp,sp,1
     1e6:	04090103          	lb	sp,64(s2)
     1ea:	0100                	addi	s0,sp,128
     1ec:	0809                	addi	a6,a6,2
     1ee:	0000                	unimp
     1f0:	0101                	addi	sp,sp,0
     1f2:	05ed                	addi	a1,a1,27
     1f4:	0000                	unimp
     1f6:	007d0003          	lb	zero,7(s10)
     1fa:	0000                	unimp
     1fc:	0101                	addi	sp,sp,0
     1fe:	000d0efb          	0xd0efb
     202:	0101                	addi	sp,sp,0
     204:	0101                	addi	sp,sp,0
     206:	0000                	unimp
     208:	0100                	addi	s0,sp,128
     20a:	0000                	unimp
     20c:	2f01                	sext.w	t5,t5
     20e:	7375                	lui	t1,0xffffd
     210:	2f72                	fld	ft10,280(sp)
     212:	6f6c                	ld	a1,216(a4)
     214:	2f6c6163          	bltu	s8,s6,4f6 <_stack_size-0xb0a>
     218:	6c6c6543          	0x6c6c6543
     21c:	7261                	lui	tp,0xffff8
     21e:	7369722f          	0x7369722f
     222:	672d7663          	bgeu	s10,s2,88e <_stack_size-0x772>
     226:	756e                	ld	a0,248(sp)
     228:	742d                	lui	s0,0xfffeb
     22a:	636c6f6f          	jal	t5,c6860 <_stack_size+0xc5860>
     22e:	6168                	ld	a0,192(a0)
     230:	6e69                	lui	t3,0x1a
     232:	756e672f          	0x756e672f
     236:	62696c2f          	0x62696c2f
     23a:	6363672f          	0x6363672f
     23e:	7369722f          	0x7369722f
     242:	34367663          	bgeu	a2,gp,58e <_stack_size-0xa72>
     246:	752d                	lui	a0,0xfffeb
     248:	6b6e                	ld	s6,216(sp)
     24a:	6f6e                	ld	t5,216(sp)
     24c:	652d6e77          	0x652d6e77
     250:	666c                	ld	a1,200(a2)
     252:	322e392f          	0x322e392f
     256:	302e                	fld	ft0,232(sp)
     258:	636e692f          	0x636e692f
     25c:	756c                	ld	a1,232(a0)
     25e:	6564                	ld	s1,200(a0)
     260:	0000                	unimp
     262:	4155                	li	sp,21
     264:	5452                	lw	s0,52(sp)
     266:	632e                	ld	t1,200(sp)
     268:	0000                	unimp
     26a:	0000                	unimp
     26c:	61647473          	csrrci	s0,0x616,8
     270:	6772                	ld	a4,280(sp)
     272:	682e                	ld	a6,200(sp)
     274:	0100                	addi	s0,sp,128
     276:	0000                	unimp
     278:	0500                	addi	s0,sp,640
     27a:	0011                	c.nop	4
     27c:	0209                	addi	tp,tp,2
     27e:	00e2                	slli	ra,ra,0x18
     280:	8000                	0x8000
     282:	0000                	unimp
     284:	0000                	unimp
     286:	05011f03          	lh	t5,80(sp)
     28a:	0305                	addi	t1,t1,1
     28c:	0902                	c.slli64	s2
     28e:	0006                	c.slli	zero,0x1
     290:	0301                	addi	t1,t1,0
     292:	000a0903          	lb	s2,0(s4)
     296:	0301                	addi	t1,t1,0
     298:	000e0903          	lb	s2,0(t3) # 1a000 <_stack_size+0x19000>
     29c:	0301                	addi	t1,t1,0
     29e:	000a0903          	lb	s2,0(s4)
     2a2:	0301                	addi	t1,t1,0
     2a4:	0904                	addi	s1,sp,144
     2a6:	000a                	c.slli	zero,0x2
     2a8:	0301                	addi	t1,t1,0
     2aa:	000c0903          	lb	s2,0(s8) # 19000 <_stack_size+0x18000>
     2ae:	0301                	addi	t1,t1,0
     2b0:	000c0903          	lb	s2,0(s8)
     2b4:	0501                	addi	a0,a0,0
     2b6:	0301                	addi	t1,t1,0
     2b8:	0901                	addi	s2,s2,0
     2ba:	000c                	0xc
     2bc:	0501                	addi	a0,a0,0
     2be:	0314                	addi	a3,sp,384
     2c0:	00080903          	lb	s2,0(a6)
     2c4:	0501                	addi	a0,a0,0
     2c6:	030a                	slli	t1,t1,0x2
     2c8:	0902                	c.slli64	s2
     2ca:	000c                	0xc
     2cc:	0501                	addi	a0,a0,0
     2ce:	000c                	0xc
     2d0:	0402                	c.slli64	s0
     2d2:	0301                	addi	t1,t1,0
     2d4:	0900                	addi	s0,sp,144
     2d6:	0002                	c.slli64	zero
     2d8:	0501                	addi	a0,a0,0
     2da:	0019                	c.nop	6
     2dc:	0402                	c.slli64	s0
     2de:	0301                	addi	t1,t1,0
     2e0:	0900                	addi	s0,sp,144
     2e2:	000e                	c.slli	zero,0x3
     2e4:	0501                	addi	a0,a0,0
     2e6:	000a                	c.slli	zero,0x2
     2e8:	0402                	c.slli64	s0
     2ea:	0301                	addi	t1,t1,0
     2ec:	0900                	addi	s0,sp,144
     2ee:	0008                	0x8
     2f0:	0501                	addi	a0,a0,0
     2f2:	0305                	addi	t1,t1,1
     2f4:	0902                	c.slli64	s2
     2f6:	0002                	c.slli64	zero
     2f8:	0501                	addi	a0,a0,0
     2fa:	0301                	addi	t1,t1,0
     2fc:	0901                	addi	s2,s2,0
     2fe:	000c                	0xc
     300:	0501                	addi	a0,a0,0
     302:	030d                	addi	t1,t1,3
     304:	0904                	addi	s1,sp,144
     306:	0008                	0x8
     308:	0501                	addi	a0,a0,0
     30a:	0308                	addi	a0,sp,384
     30c:	0901                	addi	s2,s2,0
     30e:	0006                	c.slli	zero,0x1
     310:	0501                	addi	a0,a0,0
     312:	0315                	addi	t1,t1,5
     314:	0900                	addi	s0,sp,144
     316:	000e                	c.slli	zero,0x3
     318:	0501                	addi	a0,a0,0
     31a:	09000307          	0x9000307
     31e:	0006                	c.slli	zero,0x1
     320:	0501                	addi	a0,a0,0
     322:	0310                	addi	a2,sp,384
     324:	0902                	c.slli64	s2
     326:	0002                	c.slli64	zero
     328:	0301                	addi	t1,t1,0
     32a:	0902                	c.slli64	s2
     32c:	000e                	c.slli	zero,0x3
     32e:	0501                	addi	a0,a0,0
     330:	0301                	addi	t1,t1,0
     332:	0902                	c.slli64	s2
     334:	0004                	0x4
     336:	0501                	addi	a0,a0,0
     338:	032e                	slli	t1,t1,0xb
     33a:	0902                	c.slli64	s2
     33c:	0008                	0x8
     33e:	0501                	addi	a0,a0,0
     340:	030e                	slli	t1,t1,0x3
     342:	0901                	addi	s2,s2,0
     344:	0012                	c.slli	zero,0x4
     346:	0501                	addi	a0,a0,0
     348:	0305                	addi	t1,t1,1
     34a:	0900                	addi	s0,sp,144
     34c:	0004                	0x4
     34e:	0501                	addi	a0,a0,0
     350:	0009                	c.nop	2
     352:	0402                	c.slli64	s0
     354:	09010303          	lb	t1,144(sp)
     358:	0002                	c.slli64	zero
     35a:	0501                	addi	a0,a0,0
     35c:	000a                	c.slli	zero,0x2
     35e:	0402                	c.slli64	s0
     360:	09010303          	lb	t1,144(sp)
     364:	000e                	c.slli	zero,0x3
     366:	0501                	addi	a0,a0,0
     368:	0020                	addi	s0,sp,8
     36a:	0402                	c.slli64	s0
     36c:	097e0303          	lb	t1,151(t3)
     370:	000a                	c.slli	zero,0x2
     372:	0501                	addi	a0,a0,0
     374:	0005                	c.nop	1
     376:	0402                	c.slli64	s0
     378:	0301                	addi	t1,t1,0
     37a:	0900                	addi	s0,sp,144
     37c:	000a                	c.slli	zero,0x2
     37e:	0501                	addi	a0,a0,0
     380:	0301                	addi	t1,t1,0
     382:	0904                	addi	s1,sp,144
     384:	0010                	0x10
     386:	0501                	addi	a0,a0,0
     388:	0324                	addi	s1,sp,392
     38a:	0902                	c.slli64	s2
     38c:	000c                	0xc
     38e:	0501                	addi	a0,a0,0
     390:	0901030b          	0x901030b
     394:	000c                	0xc
     396:	0501                	addi	a0,a0,0
     398:	0309                	addi	t1,t1,2
     39a:	0901                	addi	s2,s2,0
     39c:	0002                	c.slli64	zero
     39e:	0501                	addi	a0,a0,0
     3a0:	030a                	slli	t1,t1,0x2
     3a2:	0901                	addi	s2,s2,0
     3a4:	000e                	c.slli	zero,0x3
     3a6:	0501                	addi	a0,a0,0
     3a8:	030c                	addi	a1,sp,384
     3aa:	097e                	slli	s2,s2,0x1f
     3ac:	000a                	c.slli	zero,0x2
     3ae:	0501                	addi	a0,a0,0
     3b0:	0900030b          	0x900030b
     3b4:	0008                	0x8
     3b6:	0501                	addi	a0,a0,0
     3b8:	0301                	addi	t1,t1,0
     3ba:	0904                	addi	s1,sp,144
     3bc:	0002                	c.slli64	zero
     3be:	0501                	addi	a0,a0,0
     3c0:	032a                	slli	t1,t1,0xa
     3c2:	0902                	c.slli64	s2
     3c4:	000c                	0xc
     3c6:	0501                	addi	a0,a0,0
     3c8:	030e                	slli	t1,t1,0x3
     3ca:	0901                	addi	s2,s2,0
     3cc:	0014                	0x14
     3ce:	0501                	addi	a0,a0,0
     3d0:	0305                	addi	t1,t1,1
     3d2:	0900                	addi	s0,sp,144
     3d4:	0004                	0x4
     3d6:	0501                	addi	a0,a0,0
     3d8:	030c                	addi	a1,sp,384
     3da:	0901                	addi	s2,s2,0
     3dc:	0002                	c.slli64	zero
     3de:	0501                	addi	a0,a0,0
     3e0:	0312                	slli	t1,t1,0x4
     3e2:	0900                	addi	s0,sp,144
     3e4:	000c                	0xc
     3e6:	0501                	addi	a0,a0,0
     3e8:	0310                	addi	a2,sp,384
     3ea:	0900                	addi	s0,sp,144
     3ec:	0006                	c.slli	zero,0x1
     3ee:	0501                	addi	a0,a0,0
     3f0:	0312                	slli	t1,t1,0x4
     3f2:	0901                	addi	s2,s2,0
     3f4:	0004                	0x4
     3f6:	0501                	addi	a0,a0,0
     3f8:	0309                	addi	t1,t1,2
     3fa:	0900                	addi	s0,sp,144
     3fc:	000a                	c.slli	zero,0x2
     3fe:	0501                	addi	a0,a0,0
     400:	0310                	addi	a2,sp,384
     402:	000a0903          	lb	s2,0(s4)
     406:	0501                	addi	a0,a0,0
     408:	030c                	addi	a1,sp,384
     40a:	0900                	addi	s0,sp,144
     40c:	000e                	c.slli	zero,0x3
     40e:	0501                	addi	a0,a0,0
     410:	0310                	addi	a2,sp,384
     412:	0901                	addi	s2,s2,0
     414:	0008                	0x8
     416:	0501                	addi	a0,a0,0
     418:	0314                	addi	a3,sp,384
     41a:	0900                	addi	s0,sp,144
     41c:	000a                	c.slli	zero,0x2
     41e:	0501                	addi	a0,a0,0
     420:	030d                	addi	t1,t1,3
     422:	0901                	addi	s2,s2,0
     424:	0004                	0x4
     426:	0301                	addi	t1,t1,0
     428:	0901                	addi	s2,s2,0
     42a:	0006                	c.slli	zero,0x1
     42c:	0501                	addi	a0,a0,0
     42e:	0021                	c.nop	8
     430:	0402                	c.slli64	s0
     432:	0302                	c.slli64	t1
     434:	0978                	addi	a4,sp,156
     436:	0002                	c.slli64	zero
     438:	0501                	addi	a0,a0,0
     43a:	0005                	c.nop	1
     43c:	0402                	c.slli64	s0
     43e:	0301                	addi	t1,t1,0
     440:	0900                	addi	s0,sp,144
     442:	000a                	c.slli	zero,0x2
     444:	0501                	addi	a0,a0,0
     446:	0308                	addi	a0,sp,384
     448:	0010090b          	0x10090b
     44c:	0501                	addi	a0,a0,0
     44e:	0312                	slli	t1,t1,0x4
     450:	0900                	addi	s0,sp,144
     452:	000c                	0xc
     454:	0501                	addi	a0,a0,0
     456:	0305                	addi	t1,t1,1
     458:	0901                	addi	s2,s2,0
     45a:	0004                	0x4
     45c:	0501                	addi	a0,a0,0
     45e:	0301                	addi	t1,t1,0
     460:	0901                	addi	s2,s2,0
     462:	0006                	c.slli	zero,0x1
     464:	0501                	addi	a0,a0,0
     466:	0325                	addi	t1,t1,9
     468:	0902                	c.slli64	s2
     46a:	000a                	c.slli	zero,0x2
     46c:	0501                	addi	a0,a0,0
     46e:	0308                	addi	a0,sp,384
     470:	0901                	addi	s2,s2,0
     472:	000c                	0xc
     474:	0501                	addi	a0,a0,0
     476:	0903030f          	0x903030f
     47a:	0008                	0x8
     47c:	0501                	addi	a0,a0,0
     47e:	030d                	addi	t1,t1,3
     480:	0900                	addi	s0,sp,144
     482:	0006                	c.slli	zero,0x1
     484:	0501                	addi	a0,a0,0
     486:	0309                	addi	t1,t1,2
     488:	0901                	addi	s2,s2,0
     48a:	0004                	0x4
     48c:	0501                	addi	a0,a0,0
     48e:	030c                	addi	a1,sp,384
     490:	000e0903          	lb	s2,0(t3)
     494:	0501                	addi	a0,a0,0
     496:	0311                	addi	t1,t1,4
     498:	0901                	addi	s2,s2,0
     49a:	000e                	c.slli	zero,0x3
     49c:	0501                	addi	a0,a0,0
     49e:	0319                	addi	t1,t1,6
     4a0:	0901                	addi	s2,s2,0
     4a2:	000c                	0xc
     4a4:	0501                	addi	a0,a0,0
     4a6:	0316                	slli	t1,t1,0x5
     4a8:	0900                	addi	s0,sp,144
     4aa:	0006                	c.slli	zero,0x1
     4ac:	0501                	addi	a0,a0,0
     4ae:	031e                	slli	t1,t1,0x7
     4b0:	0900                	addi	s0,sp,144
     4b2:	0010                	0x10
     4b4:	0501                	addi	a0,a0,0
     4b6:	0310                	addi	a2,sp,384
     4b8:	0900                	addi	s0,sp,144
     4ba:	000a                	c.slli	zero,0x2
     4bc:	0501                	addi	a0,a0,0
     4be:	030d                	addi	t1,t1,3
     4c0:	097a                	slli	s2,s2,0x1e
     4c2:	0006                	c.slli	zero,0x1
     4c4:	0301                	addi	t1,t1,0
     4c6:	0908                	addi	a0,sp,144
     4c8:	0002                	c.slli64	zero
     4ca:	0501                	addi	a0,a0,0
     4cc:	0305                	addi	t1,t1,1
     4ce:	00020903          	lb	s2,0(tp) # ffffffffffff8000 <_estack+0xffffffff7fff5ec0>
     4d2:	0501                	addi	a0,a0,0
     4d4:	0301                	addi	t1,t1,0
     4d6:	0901                	addi	s2,s2,0
     4d8:	0006                	c.slli	zero,0x1
     4da:	0501                	addi	a0,a0,0
     4dc:	032c                	addi	a1,sp,392
     4de:	000a0903          	lb	s2,0(s4)
     4e2:	0501                	addi	a0,a0,0
     4e4:	0308                	addi	a0,sp,384
     4e6:	0901                	addi	s2,s2,0
     4e8:	0012                	c.slli	zero,0x4
     4ea:	0501                	addi	a0,a0,0
     4ec:	0309                	addi	t1,t1,2
     4ee:	0901                	addi	s2,s2,0
     4f0:	000e                	c.slli	zero,0x3
     4f2:	0501                	addi	a0,a0,0
     4f4:	0301                	addi	t1,t1,0
     4f6:	0906                	slli	s2,s2,0x1
     4f8:	001e                	c.slli	zero,0x7
     4fa:	0501                	addi	a0,a0,0
     4fc:	0314                	addi	a3,sp,384
     4fe:	097c                	addi	a5,sp,156
     500:	0002                	c.slli64	zero
     502:	0501                	addi	a0,a0,0
     504:	030d                	addi	t1,t1,3
     506:	0900                	addi	s0,sp,144
     508:	000c                	0xc
     50a:	0501                	addi	a0,a0,0
     50c:	0309                	addi	t1,t1,2
     50e:	0901                	addi	s2,s2,0
     510:	0004                	0x4
     512:	0301                	addi	t1,t1,0
     514:	0901                	addi	s2,s2,0
     516:	0016                	c.slli	zero,0x5
     518:	0501                	addi	a0,a0,0
     51a:	0301                	addi	t1,t1,0
     51c:	0902                	c.slli64	s2
     51e:	0016                	c.slli	zero,0x5
     520:	0501                	addi	a0,a0,0
     522:	032c                	addi	a1,sp,392
     524:	000a0903          	lb	s2,0(s4)
     528:	0501                	addi	a0,a0,0
     52a:	0308                	addi	a0,sp,384
     52c:	0901                	addi	s2,s2,0
     52e:	0012                	c.slli	zero,0x4
     530:	0501                	addi	a0,a0,0
     532:	0309                	addi	t1,t1,2
     534:	0901                	addi	s2,s2,0
     536:	000e                	c.slli	zero,0x3
     538:	0501                	addi	a0,a0,0
     53a:	0301                	addi	t1,t1,0
     53c:	0905                	addi	s2,s2,1
     53e:	001a                	c.slli	zero,0x6
     540:	0501                	addi	a0,a0,0
     542:	0309                	addi	t1,t1,2
     544:	097d                	addi	s2,s2,31
     546:	0002                	c.slli64	zero
     548:	0301                	addi	t1,t1,0
     54a:	0901                	addi	s2,s2,0
     54c:	0014                	0x14
     54e:	0501                	addi	a0,a0,0
     550:	0301                	addi	t1,t1,0
     552:	0902                	c.slli64	s2
     554:	0012                	c.slli	zero,0x4
     556:	0501                	addi	a0,a0,0
     558:	0332                	slli	t1,t1,0xc
     55a:	0904                	addi	s1,sp,144
     55c:	000a                	c.slli	zero,0x2
     55e:	0501                	addi	a0,a0,0
     560:	09050307          	0x9050307
     564:	001e                	c.slli	zero,0x7
     566:	0501                	addi	a0,a0,0
     568:	0402001b          	addiw	zero,tp,64
     56c:	0301                	addi	t1,t1,0
     56e:	0900                	addi	s0,sp,144
     570:	0008                	0x8
     572:	0501                	addi	a0,a0,0
     574:	0016                	c.slli	zero,0x5
     576:	0402                	c.slli64	s0
     578:	0301                	addi	t1,t1,0
     57a:	0900                	addi	s0,sp,144
     57c:	000c                	0xc
     57e:	0501                	addi	a0,a0,0
     580:	000d                	c.nop	3
     582:	0402                	c.slli64	s0
     584:	0301                	addi	t1,t1,0
     586:	0900                	addi	s0,sp,144
     588:	0004                	0x4
     58a:	0501                	addi	a0,a0,0
     58c:	0901030b          	0x901030b
     590:	0008                	0x8
     592:	0301                	addi	t1,t1,0
     594:	0902                	c.slli64	s2
     596:	000e                	c.slli	zero,0x3
     598:	0501                	addi	a0,a0,0
     59a:	09020307          	0x9020307
     59e:	0008                	0x8
     5a0:	0501                	addi	a0,a0,0
     5a2:	001d                	c.nop	7
     5a4:	0402                	c.slli64	s0
     5a6:	0301                	addi	t1,t1,0
     5a8:	0902                	c.slli64	s2
     5aa:	0004                	0x4
     5ac:	0501                	addi	a0,a0,0
     5ae:	000e                	c.slli	zero,0x3
     5b0:	0402                	c.slli64	s0
     5b2:	0301                	addi	t1,t1,0
     5b4:	0900                	addi	s0,sp,144
     5b6:	0010                	0x10
     5b8:	0501                	addi	a0,a0,0
     5ba:	001a                	c.slli	zero,0x6
     5bc:	0402                	c.slli64	s0
     5be:	0301                	addi	t1,t1,0
     5c0:	0900                	addi	s0,sp,144
     5c2:	000c                	0xc
     5c4:	0501                	addi	a0,a0,0
     5c6:	0012                	c.slli	zero,0x4
     5c8:	0402                	c.slli64	s0
     5ca:	0301                	addi	t1,t1,0
     5cc:	0900                	addi	s0,sp,144
     5ce:	000e                	c.slli	zero,0x3
     5d0:	0501                	addi	a0,a0,0
     5d2:	0010                	0x10
     5d4:	0402                	c.slli64	s0
     5d6:	0301                	addi	t1,t1,0
     5d8:	0901                	addi	s2,s2,0
     5da:	000a                	c.slli	zero,0x2
     5dc:	0501                	addi	a0,a0,0
     5de:	0005                	c.nop	1
     5e0:	0402                	c.slli64	s0
     5e2:	0301                	addi	t1,t1,0
     5e4:	0900                	addi	s0,sp,144
     5e6:	0010                	0x10
     5e8:	0501                	addi	a0,a0,0
     5ea:	09020307          	0x9020307
     5ee:	0008                	0x8
     5f0:	0501                	addi	a0,a0,0
     5f2:	030e                	slli	t1,t1,0x3
     5f4:	0901                	addi	s2,s2,0
     5f6:	0008                	0x8
     5f8:	0501                	addi	a0,a0,0
     5fa:	0312                	slli	t1,t1,0x4
     5fc:	0900                	addi	s0,sp,144
     5fe:	000c                	0xc
     600:	0501                	addi	a0,a0,0
     602:	030a                	slli	t1,t1,0x2
     604:	0902                	c.slli64	s2
     606:	000e                	c.slli	zero,0x3
     608:	0501                	addi	a0,a0,0
     60a:	0309                	addi	t1,t1,2
     60c:	0901                	addi	s2,s2,0
     60e:	0002                	c.slli64	zero
     610:	0501                	addi	a0,a0,0
     612:	030a                	slli	t1,t1,0x2
     614:	097f                	0x97f
     616:	0014                	0x14
     618:	0501                	addi	a0,a0,0
     61a:	0301                	addi	t1,t1,0
     61c:	0902                	c.slli64	s2
     61e:	0014                	0x14
     620:	0501                	addi	a0,a0,0
     622:	031d                	addi	t1,t1,7
     624:	0902                	c.slli64	s2
     626:	000c                	0xc
     628:	0501                	addi	a0,a0,0
     62a:	0305                	addi	t1,t1,1
     62c:	0902                	c.slli64	s2
     62e:	000e                	c.slli	zero,0x3
     630:	0301                	addi	t1,t1,0
     632:	0901                	addi	s2,s2,0
     634:	0008                	0x8
     636:	0501                	addi	a0,a0,0
     638:	030c                	addi	a1,sp,384
     63a:	0901                	addi	s2,s2,0
     63c:	0008                	0x8
     63e:	0501                	addi	a0,a0,0
     640:	0305                	addi	t1,t1,1
     642:	0900                	addi	s0,sp,144
     644:	0004                	0x4
     646:	0501                	addi	a0,a0,0
     648:	0018                	0x18
     64a:	0402                	c.slli64	s0
     64c:	09010303          	lb	t1,144(sp)
     650:	0002                	c.slli64	zero
     652:	0501                	addi	a0,a0,0
     654:	0009                	c.nop	2
     656:	0402                	c.slli64	s0
     658:	09000303          	lb	t1,144(zero) # 90 <_stack_size-0xf70>
     65c:	000a                	c.slli	zero,0x2
     65e:	0501                	addi	a0,a0,0
     660:	0029                	c.nop	10
     662:	0402                	c.slli64	s0
     664:	097f0303          	lb	t1,151(t5)
     668:	0014                	0x14
     66a:	0501                	addi	a0,a0,0
     66c:	0402002f          	0x402002f
     670:	09000303          	lb	t1,144(zero) # 90 <_stack_size-0xf70>
     674:	000a                	c.slli	zero,0x2
     676:	0501                	addi	a0,a0,0
     678:	04020013          	addi	zero,tp,64 # 40 <_stack_size-0xfc0>
     67c:	0301                	addi	t1,t1,0
     67e:	0900                	addi	s0,sp,144
     680:	000c                	0xc
     682:	0501                	addi	a0,a0,0
     684:	0005                	c.nop	1
     686:	0402                	c.slli64	s0
     688:	0301                	addi	t1,t1,0
     68a:	0900                	addi	s0,sp,144
     68c:	0004                	0x4
     68e:	0501                	addi	a0,a0,0
     690:	0301                	addi	t1,t1,0
     692:	0902                	c.slli64	s2
     694:	0008                	0x8
     696:	0501                	addi	a0,a0,0
     698:	0322                	slli	t1,t1,0x8
     69a:	0902                	c.slli64	s2
     69c:	000c                	0xc
     69e:	0501                	addi	a0,a0,0
     6a0:	0305                	addi	t1,t1,1
     6a2:	0905                	addi	s2,s2,1
     6a4:	001e                	c.slli	zero,0x7
     6a6:	0501                	addi	a0,a0,0
     6a8:	0901030b          	0x901030b
     6ac:	0014                	0x14
     6ae:	0501                	addi	a0,a0,0
     6b0:	0305                	addi	t1,t1,1
     6b2:	0900                	addi	s0,sp,144
     6b4:	0004                	0x4
     6b6:	0501                	addi	a0,a0,0
     6b8:	0901030b          	0x901030b
     6bc:	0002                	c.slli64	zero
     6be:	0501                	addi	a0,a0,0
     6c0:	030d                	addi	t1,t1,3
     6c2:	0901                	addi	s2,s2,0
     6c4:	0010                	0x10
     6c6:	0301                	addi	t1,t1,0
     6c8:	0901                	addi	s2,s2,0
     6ca:	000e                	c.slli	zero,0x3
     6cc:	0501                	addi	a0,a0,0
     6ce:	0902030b          	0x902030b
     6d2:	0002                	c.slli64	zero
     6d4:	0501                	addi	a0,a0,0
     6d6:	0311                	addi	t1,t1,4
     6d8:	0900                	addi	s0,sp,144
     6da:	000a                	c.slli	zero,0x2
     6dc:	0501                	addi	a0,a0,0
     6de:	0310                	addi	a2,sp,384
     6e0:	0900                	addi	s0,sp,144
     6e2:	0004                	0x4
     6e4:	0501                	addi	a0,a0,0
     6e6:	0900030b          	0x900030b
     6ea:	000a                	c.slli	zero,0x2
     6ec:	0301                	addi	t1,t1,0
     6ee:	0901                	addi	s2,s2,0
     6f0:	0004                	0x4
     6f2:	0501                	addi	a0,a0,0
     6f4:	0309                	addi	t1,t1,2
     6f6:	0902                	c.slli64	s2
     6f8:	000a                	c.slli	zero,0x2
     6fa:	0501                	addi	a0,a0,0
     6fc:	0311                	addi	t1,t1,4
     6fe:	0902                	c.slli64	s2
     700:	0080                	addi	s0,sp,64
     702:	0301                	addi	t1,t1,0
     704:	0901                	addi	s2,s2,0
     706:	0018                	0x18
     708:	0301                	addi	t1,t1,0
     70a:	0902                	c.slli64	s2
     70c:	0002                	c.slli64	zero
     70e:	0301                	addi	t1,t1,0
     710:	0901                	addi	s2,s2,0
     712:	0018                	0x18
     714:	0301                	addi	t1,t1,0
     716:	0902                	c.slli64	s2
     718:	0002                	c.slli64	zero
     71a:	0301                	addi	t1,t1,0
     71c:	0901                	addi	s2,s2,0
     71e:	0014                	0x14
     720:	0501                	addi	a0,a0,0
     722:	09020317          	auipc	t1,0x9020
     726:	0002                	c.slli64	zero
     728:	0501                	addi	a0,a0,0
     72a:	09000313          	li	t1,144
     72e:	0012                	c.slli	zero,0x4
     730:	0501                	addi	a0,a0,0
     732:	09010317          	auipc	t1,0x9010
     736:	0006                	c.slli	zero,0x1
     738:	0501                	addi	a0,a0,0
     73a:	0311                	addi	t1,t1,4
     73c:	0901                	addi	s2,s2,0
     73e:	000c                	0xc
     740:	0501                	addi	a0,a0,0
     742:	0015                	c.nop	5
     744:	0402                	c.slli64	s0
     746:	0302                	c.slli64	t1
     748:	0901                	addi	s2,s2,0
     74a:	0002                	c.slli64	zero
     74c:	0501                	addi	a0,a0,0
     74e:	001c                	0x1c
     750:	0402                	c.slli64	s0
     752:	0302                	c.slli64	t1
     754:	097f                	0x97f
     756:	000e                	c.slli	zero,0x3
     758:	0501                	addi	a0,a0,0
     75a:	04020017          	auipc	zero,0x4020
     75e:	0301                	addi	t1,t1,0
     760:	0900                	addi	s0,sp,144
     762:	000a                	c.slli	zero,0x2
     764:	0501                	addi	a0,a0,0
     766:	0011                	c.nop	4
     768:	0402                	c.slli64	s0
     76a:	0301                	addi	t1,t1,0
     76c:	0900                	addi	s0,sp,144
     76e:	0008                	0x8
     770:	0301                	addi	t1,t1,0
     772:	0902                	c.slli64	s2
     774:	0002                	c.slli64	zero
     776:	0301                	addi	t1,t1,0
     778:	0902                	c.slli64	s2
     77a:	0002                	c.slli64	zero
     77c:	0301                	addi	t1,t1,0
     77e:	0901                	addi	s2,s2,0
     780:	0008                	0x8
     782:	0301                	addi	t1,t1,0
     784:	00020903          	lb	s2,0(tp) # 0 <_stack_size-0x1000>
     788:	0301                	addi	t1,t1,0
     78a:	0901                	addi	s2,s2,0
     78c:	0008                	0x8
     78e:	0301                	addi	t1,t1,0
     790:	0901                	addi	s2,s2,0
     792:	000e                	c.slli	zero,0x3
     794:	0501                	addi	a0,a0,0
     796:	0402002b          	0x402002b
     79a:	0302                	c.slli64	t1
     79c:	0961                	addi	s2,s2,24
     79e:	0002                	c.slli64	zero
     7a0:	0501                	addi	a0,a0,0
     7a2:	0018                	0x18
     7a4:	0402                	c.slli64	s0
     7a6:	0301                	addi	t1,t1,0
     7a8:	0900                	addi	s0,sp,144
     7aa:	000a                	c.slli	zero,0x2
     7ac:	0501                	addi	a0,a0,0
     7ae:	04020013          	addi	zero,tp,64 # 40 <_stack_size-0xfc0>
     7b2:	0301                	addi	t1,t1,0
     7b4:	0900                	addi	s0,sp,144
     7b6:	000e                	c.slli	zero,0x3
     7b8:	0501                	addi	a0,a0,0
     7ba:	0005                	c.nop	1
     7bc:	0402                	c.slli64	s0
     7be:	0301                	addi	t1,t1,0
     7c0:	0900                	addi	s0,sp,144
     7c2:	0004                	0x4
     7c4:	0501                	addi	a0,a0,0
     7c6:	0301                	addi	t1,t1,0
     7c8:	0922                	slli	s2,s2,0x8
     7ca:	000a                	c.slli	zero,0x2
     7cc:	0501                	addi	a0,a0,0
     7ce:	030d                	addi	t1,t1,3
     7d0:	0965                	addi	s2,s2,25
     7d2:	0002                	c.slli64	zero
     7d4:	0501                	addi	a0,a0,0
     7d6:	0301                	addi	t1,t1,0
     7d8:	0002091b          	sext.w	s2,tp
     7dc:	0901                	addi	s2,s2,0
     7de:	000a                	c.slli	zero,0x2
     7e0:	0100                	addi	s0,sp,128
     7e2:	b901                	j	3f2 <_stack_size-0xc0e>
     7e4:	0001                	nop
     7e6:	0300                	addi	s0,sp,384
     7e8:	1d00                	addi	s0,sp,688
     7ea:	0000                	unimp
     7ec:	0100                	addi	s0,sp,128
     7ee:	fb01                	bnez	a4,6fe <_stack_size-0x902>
     7f0:	0d0e                	slli	s10,s10,0x3
     7f2:	0100                	addi	s0,sp,128
     7f4:	0101                	addi	sp,sp,0
     7f6:	0001                	nop
     7f8:	0000                	unimp
     7fa:	0001                	nop
     7fc:	0100                	addi	s0,sp,128
     7fe:	6d00                	ld	s0,24(a0)
     800:	7461                	lui	s0,0xffff8
     802:	2e68                	fld	fa0,216(a2)
     804:	00000063          	beqz	zero,804 <_stack_size-0x7fc>
     808:	0000                	unimp
     80a:	1a05                	addi	s4,s4,-31
     80c:	0900                	addi	s0,sp,144
     80e:	b202                	fsd	ft0,288(sp)
     810:	00800007          	0x800007
     814:	0000                	unimp
     816:	1500                	addi	s0,sp,672
     818:	0805                	addi	a6,a6,1
     81a:	0c090103          	lb	sp,192(s2)
     81e:	0100                	addi	s0,sp,128
     820:	1205                	addi	tp,tp,-31
     822:	0e090103          	lb	sp,224(s2)
     826:	0100                	addi	s0,sp,128
     828:	1705                	addi	a4,a4,-31
     82a:	12090203          	lb	tp,288(s2)
     82e:	0100                	addi	s0,sp,128
     830:	0105                	addi	sp,sp,1
     832:	10090203          	lb	tp,256(s2)
     836:	0100                	addi	s0,sp,128
     838:	1a05                	addi	s4,s4,-31
     83a:	08090303          	lb	t1,128(s2)
     83e:	0100                	addi	s0,sp,128
     840:	0805                	addi	a6,a6,1
     842:	0c090103          	lb	sp,192(s2)
     846:	0100                	addi	s0,sp,128
     848:	1205                	addi	tp,tp,-31
     84a:	0200                	addi	s0,sp,256
     84c:	0104                	addi	s1,sp,128
     84e:	10090003          	lb	zero,256(s2)
     852:	0100                	addi	s0,sp,128
     854:	2805                	addiw	a6,a6,1
     856:	0200                	addi	s0,sp,256
     858:	0204                	addi	s1,sp,256
     85a:	10090003          	lb	zero,256(s2)
     85e:	0100                	addi	s0,sp,128
     860:	0d05                	addi	s10,s10,1
     862:	0e090103          	lb	sp,224(s2)
     866:	0100                	addi	s0,sp,128
     868:	1705                	addi	a4,a4,-31
     86a:	0200                	addi	s0,sp,256
     86c:	0104                	addi	s1,sp,128
     86e:	10090003          	lb	zero,256(s2)
     872:	0100                	addi	s0,sp,128
     874:	3205                	addiw	tp,tp,-31
     876:	0200                	addi	s0,sp,256
     878:	0204                	addi	s1,sp,256
     87a:	10090003          	lb	zero,256(s2)
     87e:	0100                	addi	s0,sp,128
     880:	0d05                	addi	s10,s10,1
     882:	0e090103          	lb	sp,224(s2)
     886:	0100                	addi	s0,sp,128
     888:	1705                	addi	a4,a4,-31
     88a:	0200                	addi	s0,sp,256
     88c:	0104                	addi	s1,sp,128
     88e:	10090003          	lb	zero,256(s2)
     892:	0100                	addi	s0,sp,128
     894:	3305                	addiw	t1,t1,-31
     896:	0200                	addi	s0,sp,256
     898:	0204                	addi	s1,sp,256
     89a:	10090003          	lb	zero,256(s2)
     89e:	0100                	addi	s0,sp,128
     8a0:	0c05                	addi	s8,s8,1
     8a2:	0e090103          	lb	sp,224(s2)
     8a6:	0100                	addi	s0,sp,128
     8a8:	0105                	addi	sp,sp,1
     8aa:	02090103          	lb	sp,32(s2)
     8ae:	0100                	addi	s0,sp,128
     8b0:	1905                	addi	s2,s2,-31
     8b2:	08090303          	lb	t1,128(s2)
     8b6:	0100                	addi	s0,sp,128
     8b8:	0905                	addi	s2,s2,1
     8ba:	0c090103          	lb	sp,192(s2)
     8be:	0100                	addi	s0,sp,128
     8c0:	0b05                	addi	s6,s6,1
     8c2:	04090103          	lb	sp,64(s2)
     8c6:	0100                	addi	s0,sp,128
     8c8:	1305                	addi	t1,t1,-31
     8ca:	02090103          	lb	sp,32(s2)
     8ce:	0100                	addi	s0,sp,128
     8d0:	1105                	addi	sp,sp,-31
     8d2:	0c090003          	lb	zero,192(s2)
     8d6:	0100                	addi	s0,sp,128
     8d8:	0d05                	addi	s10,s10,1
     8da:	04090003          	lb	zero,64(s2)
     8de:	0100                	addi	s0,sp,128
     8e0:	04090203          	lb	tp,64(s2)
     8e4:	0100                	addi	s0,sp,128
     8e6:	1405                	addi	s0,s0,-31
     8e8:	14090303          	lb	t1,320(s2)
     8ec:	0100                	addi	s0,sp,128
     8ee:	1f05                	addi	t5,t5,-31
     8f0:	0c090003          	lb	zero,192(s2)
     8f4:	0100                	addi	s0,sp,128
     8f6:	0d05                	addi	s10,s10,1
     8f8:	08090003          	lb	zero,128(s2)
     8fc:	0100                	addi	s0,sp,128
     8fe:	0c05                	addi	s8,s8,1
     900:	06097a03          	0x6097a03
     904:	0100                	addi	s0,sp,128
     906:	0b05                	addi	s6,s6,1
     908:	08090003          	lb	zero,128(s2)
     90c:	0100                	addi	s0,sp,128
     90e:	0c05                	addi	s8,s8,1
     910:	02090803          	lb	a6,32(s2)
     914:	0100                	addi	s0,sp,128
     916:	0105                	addi	sp,sp,1
     918:	04090103          	lb	sp,64(s2)
     91c:	0100                	addi	s0,sp,128
     91e:	2205                	addiw	tp,tp,1
     920:	0a090303          	lb	t1,160(s2)
     924:	0100                	addi	s0,sp,128
     926:	0e05                	addi	t3,t3,1
     928:	14090103          	lb	sp,320(s2)
     92c:	0100                	addi	s0,sp,128
     92e:	0505                	addi	a0,a0,1
     930:	06090003          	lb	zero,96(s2)
     934:	0100                	addi	s0,sp,128
     936:	0d05                	addi	s10,s10,1
     938:	0200                	addi	s0,sp,256
     93a:	0304                	addi	s1,sp,384
     93c:	02090103          	lb	sp,32(s2)
     940:	0100                	addi	s0,sp,128
     942:	0a05                	addi	s4,s4,1
     944:	0200                	addi	s0,sp,256
     946:	0304                	addi	s1,sp,384
     948:	0a090103          	lb	sp,160(s2)
     94c:	0100                	addi	s0,sp,128
     94e:	1005                	c.nop	-31
     950:	0200                	addi	s0,sp,256
     952:	0304                	addi	s1,sp,384
     954:	0c090003          	lb	zero,192(s2)
     958:	0100                	addi	s0,sp,128
     95a:	0e05                	addi	t3,t3,1
     95c:	0200                	addi	s0,sp,256
     95e:	0304                	addi	s1,sp,384
     960:	0c090003          	lb	zero,192(s2)
     964:	0100                	addi	s0,sp,128
     966:	0b05                	addi	s6,s6,1
     968:	0200                	addi	s0,sp,256
     96a:	0304                	addi	s1,sp,384
     96c:	04090103          	lb	sp,64(s2)
     970:	0100                	addi	s0,sp,128
     972:	1e05                	addi	t3,t3,-31
     974:	0200                	addi	s0,sp,256
     976:	0304                	addi	s1,sp,384
     978:	0c097d03          	0xc097d03
     97c:	0100                	addi	s0,sp,128
     97e:	0505                	addi	a0,a0,1
     980:	0200                	addi	s0,sp,256
     982:	0104                	addi	s1,sp,128
     984:	0a090003          	lb	zero,160(s2)
     988:	0100                	addi	s0,sp,128
     98a:	0c05                	addi	s8,s8,1
     98c:	0a090603          	lb	a2,160(s2)
     990:	0100                	addi	s0,sp,128
     992:	0105                	addi	sp,sp,1
     994:	04090103          	lb	sp,64(s2)
     998:	0100                	addi	s0,sp,128
     99a:	0c09                	addi	s8,s8,2
     99c:	0000                	unimp
     99e:	0101                	addi	sp,sp,0
     9a0:	000002c7          	fmsub.s	ft5,ft0,ft0,ft0,rne
     9a4:	001f0003          	lb	zero,1(t5)
     9a8:	0000                	unimp
     9aa:	0101                	addi	sp,sp,0
     9ac:	000d0efb          	0xd0efb
     9b0:	0101                	addi	sp,sp,0
     9b2:	0101                	addi	sp,sp,0
     9b4:	0000                	unimp
     9b6:	0100                	addi	s0,sp,128
     9b8:	0000                	unimp
     9ba:	0001                	nop
     9bc:	69727473          	csrrci	s0,0x697,4
     9c0:	676e                	ld	a4,216(sp)
     9c2:	632e                	ld	t1,200(sp)
     9c4:	0000                	unimp
     9c6:	0000                	unimp
     9c8:	0500                	addi	s0,sp,640
     9ca:	0209001b          	addiw	zero,s2,32
     9ce:	0974                	addi	a3,sp,156
     9d0:	8000                	0x8000
     9d2:	0000                	unimp
     9d4:	0000                	unimp
     9d6:	0515                	addi	a0,a0,5
     9d8:	0903030b          	0x903030b
     9dc:	000a                	c.slli	zero,0x2
     9de:	0501                	addi	a0,a0,0
     9e0:	0305                	addi	t1,t1,1
     9e2:	0900                	addi	s0,sp,144
     9e4:	0004                	0x4
     9e6:	0501                	addi	a0,a0,0
     9e8:	001c                	0x1c
     9ea:	0402                	c.slli64	s0
     9ec:	09000303          	lb	t1,144(zero) # 90 <_stack_size-0xf70>
     9f0:	0002                	c.slli64	zero
     9f2:	0501                	addi	a0,a0,0
     9f4:	0011                	c.nop	4
     9f6:	0402                	c.slli64	s0
     9f8:	0301                	addi	t1,t1,0
     9fa:	0900                	addi	s0,sp,144
     9fc:	000a                	c.slli	zero,0x2
     9fe:	0501                	addi	a0,a0,0
     a00:	0005                	c.nop	1
     a02:	0402                	c.slli64	s0
     a04:	0301                	addi	t1,t1,0
     a06:	0900                	addi	s0,sp,144
     a08:	000e                	c.slli	zero,0x3
     a0a:	0501                	addi	a0,a0,0
     a0c:	030c                	addi	a1,sp,384
     a0e:	0902                	c.slli64	s2
     a10:	0002                	c.slli64	zero
     a12:	0501                	addi	a0,a0,0
     a14:	0301                	addi	t1,t1,0
     a16:	0901                	addi	s2,s2,0
     a18:	0004                	0x4
     a1a:	0501                	addi	a0,a0,0
     a1c:	0335                	addi	t1,t1,13
     a1e:	00080903          	lb	s2,0(a6)
     a22:	0501                	addi	a0,a0,0
     a24:	0309                	addi	t1,t1,2
     a26:	0902                	c.slli64	s2
     a28:	0018                	0x18
     a2a:	0501                	addi	a0,a0,0
     a2c:	0318                	addi	a4,sp,384
     a2e:	0900                	addi	s0,sp,144
     a30:	000c                	0xc
     a32:	0501                	addi	a0,a0,0
     a34:	0316                	slli	t1,t1,0x5
     a36:	0900                	addi	s0,sp,144
     a38:	000a                	c.slli	zero,0x2
     a3a:	0501                	addi	a0,a0,0
     a3c:	0308                	addi	a0,sp,384
     a3e:	0900                	addi	s0,sp,144
     a40:	0006                	c.slli	zero,0x1
     a42:	0501                	addi	a0,a0,0
     a44:	0035                	c.nop	13
     a46:	0402                	c.slli64	s0
     a48:	0301                	addi	t1,t1,0
     a4a:	0900                	addi	s0,sp,144
     a4c:	000a                	c.slli	zero,0x2
     a4e:	0501                	addi	a0,a0,0
     a50:	0318                	addi	a4,sp,384
     a52:	0902                	c.slli64	s2
     a54:	0004                	0x4
     a56:	0501                	addi	a0,a0,0
     a58:	0900030b          	0x900030b
     a5c:	000c                	0xc
     a5e:	0301                	addi	t1,t1,0
     a60:	0902                	c.slli64	s2
     a62:	000a                	c.slli	zero,0x2
     a64:	0501                	addi	a0,a0,0
     a66:	0316                	slli	t1,t1,0x5
     a68:	0901                	addi	s2,s2,0
     a6a:	0002                	c.slli64	zero
     a6c:	0501                	addi	a0,a0,0
     a6e:	030d                	addi	t1,t1,3
     a70:	0900                	addi	s0,sp,144
     a72:	000c                	0xc
     a74:	0501                	addi	a0,a0,0
     a76:	0312                	slli	t1,t1,0x4
     a78:	0900                	addi	s0,sp,144
     a7a:	000c                	0xc
     a7c:	0501                	addi	a0,a0,0
     a7e:	0310                	addi	a2,sp,384
     a80:	0900                	addi	s0,sp,144
     a82:	0004                	0x4
     a84:	0501                	addi	a0,a0,0
     a86:	030c                	addi	a1,sp,384
     a88:	097f                	0x97f
     a8a:	0004                	0x4
     a8c:	0501                	addi	a0,a0,0
     a8e:	0900030b          	0x900030b
     a92:	0008                	0x8
     a94:	0501                	addi	a0,a0,0
     a96:	030a                	slli	t1,t1,0x2
     a98:	00020903          	lb	s2,0(tp) # 0 <_stack_size-0x1000>
     a9c:	0501                	addi	a0,a0,0
     a9e:	030c                	addi	a1,sp,384
     aa0:	0902                	c.slli64	s2
     aa2:	0008                	0x8
     aa4:	0501                	addi	a0,a0,0
     aa6:	0301                	addi	t1,t1,0
     aa8:	0901                	addi	s2,s2,0
     aaa:	0004                	0x4
     aac:	0501                	addi	a0,a0,0
     aae:	0903032f          	0x903032f
     ab2:	000c                	0xc
     ab4:	0501                	addi	a0,a0,0
     ab6:	0309                	addi	t1,t1,2
     ab8:	0902                	c.slli64	s2
     aba:	001a                	c.slli	zero,0x6
     abc:	0501                	addi	a0,a0,0
     abe:	0316                	slli	t1,t1,0x5
     ac0:	0900                	addi	s0,sp,144
     ac2:	000a                	c.slli	zero,0x2
     ac4:	0501                	addi	a0,a0,0
     ac6:	0321                	addi	t1,t1,8
     ac8:	0900                	addi	s0,sp,144
     aca:	0006                	c.slli	zero,0x1
     acc:	0501                	addi	a0,a0,0
     ace:	0308                	addi	a0,sp,384
     ad0:	0900                	addi	s0,sp,144
     ad2:	0008                	0x8
     ad4:	0501                	addi	a0,a0,0
     ad6:	002c                	addi	a1,sp,8
     ad8:	0402                	c.slli64	s0
     ada:	0301                	addi	t1,t1,0
     adc:	0900                	addi	s0,sp,144
     ade:	0004                	0x4
     ae0:	0501                	addi	a0,a0,0
     ae2:	0316                	slli	t1,t1,0x5
     ae4:	00040903          	lb	s2,0(s0) # ffffffffffff8000 <_estack+0xffffffff7fff5ec0>
     ae8:	0501                	addi	a0,a0,0
     aea:	0900030b          	0x900030b
     aee:	000c                	0xc
     af0:	0501                	addi	a0,a0,0
     af2:	09010307          	0x9010307
     af6:	000a                	c.slli	zero,0x2
     af8:	0501                	addi	a0,a0,0
     afa:	030a                	slli	t1,t1,0x2
     afc:	0900                	addi	s0,sp,144
     afe:	000c                	0xc
     b00:	0501                	addi	a0,a0,0
     b02:	0308                	addi	a0,sp,384
     b04:	0901                	addi	s2,s2,0
     b06:	0008                	0x8
     b08:	0501                	addi	a0,a0,0
     b0a:	030c                	addi	a1,sp,384
     b0c:	0902                	c.slli64	s2
     b0e:	0008                	0x8
     b10:	0501                	addi	a0,a0,0
     b12:	0301                	addi	t1,t1,0
     b14:	0901                	addi	s2,s2,0
     b16:	0004                	0x4
     b18:	0501                	addi	a0,a0,0
     b1a:	0903033f 0501000a 	0x501000a0903033f
     b22:	0308                	addi	a0,sp,384
     b24:	0902                	c.slli64	s2
     b26:	001e                	c.slli	zero,0x7
     b28:	0501                	addi	a0,a0,0
     b2a:	0402001b          	addiw	zero,tp,64
     b2e:	0301                	addi	t1,t1,0
     b30:	0900                	addi	s0,sp,144
     b32:	0006                	c.slli	zero,0x1
     b34:	0501                	addi	a0,a0,0
     b36:	0309                	addi	t1,t1,2
     b38:	0901                	addi	s2,s2,0
     b3a:	0004                	0x4
     b3c:	0501                	addi	a0,a0,0
     b3e:	031c                	addi	a5,sp,384
     b40:	0900                	addi	s0,sp,144
     b42:	000c                	0xc
     b44:	0501                	addi	a0,a0,0
     b46:	0308                	addi	a0,sp,384
     b48:	0900                	addi	s0,sp,144
     b4a:	0008                	0x8
     b4c:	0501                	addi	a0,a0,0
     b4e:	04020027          	0x4020027
     b52:	0301                	addi	t1,t1,0
     b54:	0900                	addi	s0,sp,144
     b56:	0004                	0x4
     b58:	0501                	addi	a0,a0,0
     b5a:	0903030b          	0x903030b
     b5e:	0004                	0x4
     b60:	0301                	addi	t1,t1,0
     b62:	0901                	addi	s2,s2,0
     b64:	0008                	0x8
     b66:	0501                	addi	a0,a0,0
     b68:	09010317          	auipc	t1,0x9010
     b6c:	0002                	c.slli64	zero
     b6e:	0501                	addi	a0,a0,0
     b70:	030e                	slli	t1,t1,0x3
     b72:	0900                	addi	s0,sp,144
     b74:	000c                	0xc
     b76:	0501                	addi	a0,a0,0
     b78:	09000313          	li	t1,144
     b7c:	000c                	0xc
     b7e:	0501                	addi	a0,a0,0
     b80:	0311                	addi	t1,t1,4
     b82:	0900                	addi	s0,sp,144
     b84:	0004                	0x4
     b86:	0501                	addi	a0,a0,0
     b88:	030c                	addi	a1,sp,384
     b8a:	097f                	0x97f
     b8c:	0004                	0x4
     b8e:	0501                	addi	a0,a0,0
     b90:	0900030b          	0x900030b
     b94:	0008                	0x8
     b96:	0501                	addi	a0,a0,0
     b98:	04020017          	auipc	zero,0x4020
     b9c:	0301                	addi	t1,t1,0
     b9e:	0900                	addi	s0,sp,144
     ba0:	0002                	c.slli64	zero
     ba2:	0501                	addi	a0,a0,0
     ba4:	0011                	c.nop	4
     ba6:	0402                	c.slli64	s0
     ba8:	0301                	addi	t1,t1,0
     baa:	0900                	addi	s0,sp,144
     bac:	000c                	0xc
     bae:	0501                	addi	a0,a0,0
     bb0:	0903030b          	0x903030b
     bb4:	0002                	c.slli64	zero
     bb6:	0501                	addi	a0,a0,0
     bb8:	030c                	addi	a1,sp,384
     bba:	0902                	c.slli64	s2
     bbc:	0008                	0x8
     bbe:	0501                	addi	a0,a0,0
     bc0:	0301                	addi	t1,t1,0
     bc2:	0901                	addi	s2,s2,0
     bc4:	0004                	0x4
     bc6:	0501                	addi	a0,a0,0
     bc8:	032c                	addi	a1,sp,392
     bca:	000a0903          	lb	s2,0(s4)
     bce:	0501                	addi	a0,a0,0
     bd0:	030a                	slli	t1,t1,0x2
     bd2:	0901                	addi	s2,s2,0
     bd4:	000e                	c.slli	zero,0x3
     bd6:	0501                	addi	a0,a0,0
     bd8:	030c                	addi	a1,sp,384
     bda:	0901                	addi	s2,s2,0
     bdc:	0002                	c.slli64	zero
     bde:	0501                	addi	a0,a0,0
     be0:	0312                	slli	t1,t1,0x4
     be2:	0900                	addi	s0,sp,144
     be4:	0008                	0x8
     be6:	0501                	addi	a0,a0,0
     be8:	0900030b          	0x900030b
     bec:	0008                	0x8
     bee:	0501                	addi	a0,a0,0
     bf0:	001e                	c.slli	zero,0x7
     bf2:	0402                	c.slli64	s0
     bf4:	0301                	addi	t1,t1,0
     bf6:	0900                	addi	s0,sp,144
     bf8:	0004                	0x4
     bfa:	0501                	addi	a0,a0,0
     bfc:	030c                	addi	a1,sp,384
     bfe:	0901                	addi	s2,s2,0
     c00:	0004                	0x4
     c02:	0501                	addi	a0,a0,0
     c04:	0312                	slli	t1,t1,0x4
     c06:	0900                	addi	s0,sp,144
     c08:	0008                	0x8
     c0a:	0501                	addi	a0,a0,0
     c0c:	0900030b          	0x900030b
     c10:	0008                	0x8
     c12:	0501                	addi	a0,a0,0
     c14:	001e                	c.slli	zero,0x7
     c16:	0402                	c.slli64	s0
     c18:	0301                	addi	t1,t1,0
     c1a:	0900                	addi	s0,sp,144
     c1c:	0004                	0x4
     c1e:	0501                	addi	a0,a0,0
     c20:	0901030b          	0x901030b
     c24:	0004                	0x4
     c26:	0301                	addi	t1,t1,0
     c28:	0901                	addi	s2,s2,0
     c2a:	000a                	c.slli	zero,0x2
     c2c:	0501                	addi	a0,a0,0
     c2e:	030c                	addi	a1,sp,384
     c30:	097c                	addi	a5,sp,156
     c32:	000a                	c.slli	zero,0x2
     c34:	0501                	addi	a0,a0,0
     c36:	030a                	slli	t1,t1,0x2
     c38:	0900                	addi	s0,sp,144
     c3a:	0008                	0x8
     c3c:	0501                	addi	a0,a0,0
     c3e:	0402001b          	addiw	zero,tp,64
     c42:	0301                	addi	t1,t1,0
     c44:	0900                	addi	s0,sp,144
     c46:	0002                	c.slli64	zero
     c48:	0501                	addi	a0,a0,0
     c4a:	04020017          	auipc	zero,0x4020
     c4e:	0301                	addi	t1,t1,0
     c50:	0900                	addi	s0,sp,144
     c52:	0008                	0x8
     c54:	0501                	addi	a0,a0,0
     c56:	030c                	addi	a1,sp,384
     c58:	0906                	slli	s2,s2,0x1
     c5a:	0002                	c.slli64	zero
     c5c:	0501                	addi	a0,a0,0
     c5e:	0301                	addi	t1,t1,0
     c60:	0901                	addi	s2,s2,0
     c62:	0002                	c.slli64	zero
     c64:	0901                	addi	s2,s2,0
     c66:	0008                	0x8
     c68:	0100                	addi	s0,sp,128
     c6a:	de01                	beqz	a2,b82 <_stack_size-0x47e>
     c6c:	0000                	unimp
     c6e:	0300                	addi	s0,sp,384
     c70:	1e00                	addi	s0,sp,816
     c72:	0000                	unimp
     c74:	0100                	addi	s0,sp,128
     c76:	fb01                	bnez	a4,b86 <_stack_size-0x47a>
     c78:	0d0e                	slli	s10,s10,0x3
     c7a:	0100                	addi	s0,sp,128
     c7c:	0101                	addi	sp,sp,0
     c7e:	0001                	nop
     c80:	0000                	unimp
     c82:	0001                	nop
     c84:	0100                	addi	s0,sp,128
     c86:	7300                	ld	s0,32(a4)
     c88:	666e6163          	bltu	t3,t1,12ea <_stack_size+0x2ea>
     c8c:	632e                	ld	t1,200(sp)
     c8e:	0000                	unimp
     c90:	0000                	unimp
     c92:	0500                	addi	s0,sp,640
     c94:	0018                	0x18
     c96:	0209                	addi	tp,tp,2
     c98:	0bce                	slli	s7,s7,0x13
     c9a:	8000                	0x8000
     c9c:	0000                	unimp
     c9e:	0000                	unimp
     ca0:	0516                	slli	a0,a0,0x5
     ca2:	030c                	addi	a1,sp,384
     ca4:	0902                	c.slli64	s2
     ca6:	000c                	0xc
     ca8:	0501                	addi	a0,a0,0
     caa:	0301                	addi	t1,t1,0
     cac:	0906                	slli	s2,s2,0x1
     cae:	0006                	c.slli	zero,0x1
     cb0:	0501                	addi	a0,a0,0
     cb2:	0322                	slli	t1,t1,0x8
     cb4:	0902                	c.slli64	s2
     cb6:	000a                	c.slli	zero,0x2
     cb8:	0501                	addi	a0,a0,0
     cba:	030e                	slli	t1,t1,0x3
     cbc:	0901                	addi	s2,s2,0
     cbe:	0012                	c.slli	zero,0x4
     cc0:	0501                	addi	a0,a0,0
     cc2:	0305                	addi	t1,t1,1
     cc4:	0900                	addi	s0,sp,144
     cc6:	0004                	0x4
     cc8:	0501                	addi	a0,a0,0
     cca:	0309                	addi	t1,t1,2
     ccc:	0901                	addi	s2,s2,0
     cce:	0002                	c.slli64	zero
     cd0:	0501                	addi	a0,a0,0
     cd2:	0319                	addi	t1,t1,6
     cd4:	0901                	addi	s2,s2,0
     cd6:	0010                	0x10
     cd8:	0501                	addi	a0,a0,0
     cda:	0309                	addi	t1,t1,2
     cdc:	0900                	addi	s0,sp,144
     cde:	000e                	c.slli	zero,0x3
     ce0:	0501                	addi	a0,a0,0
     ce2:	0310                	addi	a2,sp,384
     ce4:	00100903          	lb	s2,1(zero) # 1 <_stack_size-0xfff>
     ce8:	0501                	addi	a0,a0,0
     cea:	030c                	addi	a1,sp,384
     cec:	0900                	addi	s0,sp,144
     cee:	000e                	c.slli	zero,0x3
     cf0:	0501                	addi	a0,a0,0
     cf2:	0310                	addi	a2,sp,384
     cf4:	0901                	addi	s2,s2,0
     cf6:	0008                	0x8
     cf8:	0501                	addi	a0,a0,0
     cfa:	0314                	addi	a3,sp,384
     cfc:	0900                	addi	s0,sp,144
     cfe:	000a                	c.slli	zero,0x2
     d00:	0501                	addi	a0,a0,0
     d02:	030d                	addi	t1,t1,3
     d04:	0901                	addi	s2,s2,0
     d06:	0004                	0x4
     d08:	0301                	addi	t1,t1,0
     d0a:	0901                	addi	s2,s2,0
     d0c:	000e                	c.slli	zero,0x3
     d0e:	0501                	addi	a0,a0,0
     d10:	0021                	c.nop	8
     d12:	0402                	c.slli64	s0
     d14:	0302                	c.slli64	t1
     d16:	0978                	addi	a4,sp,156
     d18:	0002                	c.slli64	zero
     d1a:	0501                	addi	a0,a0,0
     d1c:	0005                	c.nop	1
     d1e:	0402                	c.slli64	s0
     d20:	0301                	addi	t1,t1,0
     d22:	0900                	addi	s0,sp,144
     d24:	000a                	c.slli	zero,0x2
     d26:	0501                	addi	a0,a0,0
     d28:	0308                	addi	a0,sp,384
     d2a:	0010090b          	0x10090b
     d2e:	0501                	addi	a0,a0,0
     d30:	0312                	slli	t1,t1,0x4
     d32:	0900                	addi	s0,sp,144
     d34:	000c                	0xc
     d36:	0501                	addi	a0,a0,0
     d38:	0305                	addi	t1,t1,1
     d3a:	0901                	addi	s2,s2,0
     d3c:	0004                	0x4
     d3e:	0501                	addi	a0,a0,0
     d40:	0301                	addi	t1,t1,0
     d42:	0901                	addi	s2,s2,0
     d44:	000e                	c.slli	zero,0x3
     d46:	0901                	addi	s2,s2,0
     d48:	0008                	0x8
     d4a:	0100                	addi	s0,sp,128
     d4c:	9301                	srli	a4,a4,0x20
     d4e:	03000003          	lb	zero,48(zero) # 30 <_stack_size-0xfd0>
     d52:	7f00                	ld	s0,56(a4)
     d54:	0000                	unimp
     d56:	0100                	addi	s0,sp,128
     d58:	fb01                	bnez	a4,c68 <_stack_size-0x398>
     d5a:	0d0e                	slli	s10,s10,0x3
     d5c:	0100                	addi	s0,sp,128
     d5e:	0101                	addi	sp,sp,0
     d60:	0001                	nop
     d62:	0000                	unimp
     d64:	0001                	nop
     d66:	0100                	addi	s0,sp,128
     d68:	7273752f          	0x7273752f
     d6c:	636f6c2f          	0x636f6c2f
     d70:	6c61                	lui	s8,0x18
     d72:	6c65432f          	0x6c65432f
     d76:	616c                	ld	a1,192(a0)
     d78:	2f72                	fld	ft10,280(sp)
     d7a:	6972                	ld	s2,280(sp)
     d7c:	2d766373          	csrrsi	t1,0x2d7,12
     d80:	2d756e67          	0x2d756e67
     d84:	6f74                	ld	a3,216(a4)
     d86:	68636c6f          	jal	s8,3740c <_stack_size+0x3640c>
     d8a:	6961                	lui	s2,0x18
     d8c:	2f6e                	fld	ft10,216(sp)
     d8e:	2f756e67          	0x2f756e67
     d92:	696c                	ld	a1,208(a0)
     d94:	2f62                	fld	ft10,24(sp)
     d96:	2f636367          	0x2f636367
     d9a:	6972                	ld	s2,280(sp)
     d9c:	36766373          	csrrsi	t1,0x367,12
     da0:	2d34                	fld	fa3,88(a0)
     da2:	6e75                	lui	t3,0x1d
     da4:	776f6e6b          	0x776f6e6b
     da8:	2d6e                	fld	fs10,216(sp)
     daa:	6c65                	lui	s8,0x19
     dac:	2f66                	fld	ft10,88(sp)
     dae:	2e39                	addiw	t3,t3,14
     db0:	2e32                	fld	ft8,264(sp)
     db2:	2f30                	fld	fa2,88(a4)
     db4:	6e69                	lui	t3,0x1a
     db6:	64756c63          	bltu	a0,t2,140e <_stack_size+0x40e>
     dba:	0065                	c.nop	25
     dbc:	7000                	ld	s0,32(s0)
     dbe:	6972                	ld	s2,280(sp)
     dc0:	746e                	ld	s0,248(sp)
     dc2:	2e66                	fld	ft8,88(sp)
     dc4:	00000063          	beqz	zero,dc4 <_stack_size-0x23c>
     dc8:	7300                	ld	s0,32(a4)
     dca:	6474                	ld	a3,200(s0)
     dcc:	7261                	lui	tp,0xffff8
     dce:	00682e67          	0x682e67
     dd2:	0001                	nop
     dd4:	0000                	unimp
     dd6:	3205                	addiw	tp,tp,-31
     dd8:	0900                	addi	s0,sp,144
     dda:	a402                	fsd	ft0,8(sp)
     ddc:	000c                	0xc
     dde:	0080                	addi	s0,sp,64
     de0:	0000                	unimp
     de2:	1a00                	addi	s0,sp,304
     de4:	0705                	addi	a4,a4,1
     de6:	1e090503          	lb	a0,480(s2) # 181e0 <_stack_size+0x171e0>
     dea:	0100                	addi	s0,sp,128
     dec:	1b05                	addi	s6,s6,-31
     dee:	0200                	addi	s0,sp,256
     df0:	0104                	addi	s1,sp,128
     df2:	08090003          	lb	zero,128(s2)
     df6:	0100                	addi	s0,sp,128
     df8:	1605                	addi	a2,a2,-31
     dfa:	0200                	addi	s0,sp,256
     dfc:	0104                	addi	s1,sp,128
     dfe:	0c090003          	lb	zero,192(s2)
     e02:	0100                	addi	s0,sp,128
     e04:	0d05                	addi	s10,s10,1
     e06:	0200                	addi	s0,sp,256
     e08:	0104                	addi	s1,sp,128
     e0a:	04090003          	lb	zero,64(s2)
     e0e:	0100                	addi	s0,sp,128
     e10:	0b05                	addi	s6,s6,1
     e12:	08090103          	lb	sp,128(s2)
     e16:	0100                	addi	s0,sp,128
     e18:	0e090203          	lb	tp,224(s2)
     e1c:	0100                	addi	s0,sp,128
     e1e:	0705                	addi	a4,a4,1
     e20:	08090203          	lb	tp,128(s2)
     e24:	0100                	addi	s0,sp,128
     e26:	1d05                	addi	s10,s10,-31
     e28:	0200                	addi	s0,sp,256
     e2a:	0104                	addi	s1,sp,128
     e2c:	04090203          	lb	tp,64(s2)
     e30:	0100                	addi	s0,sp,128
     e32:	0e05                	addi	t3,t3,1
     e34:	0200                	addi	s0,sp,256
     e36:	0104                	addi	s1,sp,128
     e38:	10090003          	lb	zero,256(s2)
     e3c:	0100                	addi	s0,sp,128
     e3e:	1a05                	addi	s4,s4,-31
     e40:	0200                	addi	s0,sp,256
     e42:	0104                	addi	s1,sp,128
     e44:	0c090003          	lb	zero,192(s2)
     e48:	0100                	addi	s0,sp,128
     e4a:	1205                	addi	tp,tp,-31
     e4c:	0200                	addi	s0,sp,256
     e4e:	0104                	addi	s1,sp,128
     e50:	0e090003          	lb	zero,224(s2)
     e54:	0100                	addi	s0,sp,128
     e56:	1005                	c.nop	-31
     e58:	0200                	addi	s0,sp,256
     e5a:	0104                	addi	s1,sp,128
     e5c:	0a090103          	lb	sp,160(s2)
     e60:	0100                	addi	s0,sp,128
     e62:	0505                	addi	a0,a0,1
     e64:	0200                	addi	s0,sp,256
     e66:	0104                	addi	s1,sp,128
     e68:	10090003          	lb	zero,256(s2)
     e6c:	0100                	addi	s0,sp,128
     e6e:	0705                	addi	a4,a4,1
     e70:	08090203          	lb	tp,128(s2)
     e74:	0100                	addi	s0,sp,128
     e76:	0e05                	addi	t3,t3,1
     e78:	08090103          	lb	sp,128(s2)
     e7c:	0100                	addi	s0,sp,128
     e7e:	1205                	addi	tp,tp,-31
     e80:	0c090003          	lb	zero,192(s2)
     e84:	0100                	addi	s0,sp,128
     e86:	0a05                	addi	s4,s4,1
     e88:	0e090203          	lb	tp,224(s2)
     e8c:	0100                	addi	s0,sp,128
     e8e:	0905                	addi	s2,s2,1
     e90:	02090103          	lb	sp,32(s2)
     e94:	0100                	addi	s0,sp,128
     e96:	0a05                	addi	s4,s4,1
     e98:	14097f03          	0x14097f03
     e9c:	0100                	addi	s0,sp,128
     e9e:	0105                	addi	sp,sp,1
     ea0:	14090203          	lb	tp,320(s2)
     ea4:	0100                	addi	s0,sp,128
     ea6:	1d05                	addi	s10,s10,-31
     ea8:	0c090203          	lb	tp,192(s2)
     eac:	0100                	addi	s0,sp,128
     eae:	0505                	addi	a0,a0,1
     eb0:	0e090203          	lb	tp,224(s2)
     eb4:	0100                	addi	s0,sp,128
     eb6:	08090103          	lb	sp,128(s2)
     eba:	0100                	addi	s0,sp,128
     ebc:	0c05                	addi	s8,s8,1
     ebe:	08090103          	lb	sp,128(s2)
     ec2:	0100                	addi	s0,sp,128
     ec4:	0505                	addi	a0,a0,1
     ec6:	04090003          	lb	zero,64(s2)
     eca:	0100                	addi	s0,sp,128
     ecc:	1805                	addi	a6,a6,-31
     ece:	0200                	addi	s0,sp,256
     ed0:	0304                	addi	s1,sp,384
     ed2:	02090103          	lb	sp,32(s2)
     ed6:	0100                	addi	s0,sp,128
     ed8:	0905                	addi	s2,s2,1
     eda:	0200                	addi	s0,sp,256
     edc:	0304                	addi	s1,sp,384
     ede:	0a090003          	lb	zero,160(s2)
     ee2:	0100                	addi	s0,sp,128
     ee4:	2905                	addiw	s2,s2,1
     ee6:	0200                	addi	s0,sp,256
     ee8:	0304                	addi	s1,sp,384
     eea:	14097f03          	0x14097f03
     eee:	0100                	addi	s0,sp,128
     ef0:	2f05                	addiw	t5,t5,1
     ef2:	0200                	addi	s0,sp,256
     ef4:	0304                	addi	s1,sp,384
     ef6:	0a090003          	lb	zero,160(s2)
     efa:	0100                	addi	s0,sp,128
     efc:	1305                	addi	t1,t1,-31
     efe:	0200                	addi	s0,sp,256
     f00:	0104                	addi	s1,sp,128
     f02:	0c090003          	lb	zero,192(s2)
     f06:	0100                	addi	s0,sp,128
     f08:	0505                	addi	a0,a0,1
     f0a:	0200                	addi	s0,sp,256
     f0c:	0104                	addi	s1,sp,128
     f0e:	04090003          	lb	zero,64(s2)
     f12:	0100                	addi	s0,sp,128
     f14:	0105                	addi	sp,sp,1
     f16:	08090203          	lb	tp,128(s2)
     f1a:	0100                	addi	s0,sp,128
     f1c:	1d05                	addi	s10,s10,-31
     f1e:	0c090403          	lb	s0,192(s2)
     f22:	0100                	addi	s0,sp,128
     f24:	0505                	addi	a0,a0,1
     f26:	1e090503          	lb	a0,480(s2)
     f2a:	0100                	addi	s0,sp,128
     f2c:	0b05                	addi	s6,s6,1
     f2e:	14090103          	lb	sp,320(s2)
     f32:	0100                	addi	s0,sp,128
     f34:	0505                	addi	a0,a0,1
     f36:	04090003          	lb	zero,64(s2)
     f3a:	0100                	addi	s0,sp,128
     f3c:	0b05                	addi	s6,s6,1
     f3e:	02090103          	lb	sp,32(s2)
     f42:	0100                	addi	s0,sp,128
     f44:	0d05                	addi	s10,s10,1
     f46:	10090103          	lb	sp,256(s2)
     f4a:	0100                	addi	s0,sp,128
     f4c:	0e090103          	lb	sp,224(s2)
     f50:	0100                	addi	s0,sp,128
     f52:	0b05                	addi	s6,s6,1
     f54:	02090203          	lb	tp,32(s2)
     f58:	0100                	addi	s0,sp,128
     f5a:	1105                	addi	sp,sp,-31
     f5c:	0a090003          	lb	zero,160(s2)
     f60:	0100                	addi	s0,sp,128
     f62:	1005                	c.nop	-31
     f64:	04090003          	lb	zero,64(s2)
     f68:	0100                	addi	s0,sp,128
     f6a:	0b05                	addi	s6,s6,1
     f6c:	0a090003          	lb	zero,160(s2)
     f70:	0100                	addi	s0,sp,128
     f72:	04090103          	lb	sp,64(s2)
     f76:	0100                	addi	s0,sp,128
     f78:	0905                	addi	s2,s2,1
     f7a:	0a090203          	lb	tp,160(s2)
     f7e:	0100                	addi	s0,sp,128
     f80:	1105                	addi	sp,sp,-31
     f82:	80090203          	lb	tp,-2048(s2)
     f86:	0100                	addi	s0,sp,128
     f88:	18090103          	lb	sp,384(s2)
     f8c:	0100                	addi	s0,sp,128
     f8e:	02090203          	lb	tp,32(s2)
     f92:	0100                	addi	s0,sp,128
     f94:	18090103          	lb	sp,384(s2)
     f98:	0100                	addi	s0,sp,128
     f9a:	02090203          	lb	tp,32(s2)
     f9e:	0100                	addi	s0,sp,128
     fa0:	14090103          	lb	sp,320(s2)
     fa4:	0100                	addi	s0,sp,128
     fa6:	1705                	addi	a4,a4,-31
     fa8:	02090203          	lb	tp,32(s2)
     fac:	0100                	addi	s0,sp,128
     fae:	1305                	addi	t1,t1,-31
     fb0:	12090003          	lb	zero,288(s2)
     fb4:	0100                	addi	s0,sp,128
     fb6:	1705                	addi	a4,a4,-31
     fb8:	06090103          	lb	sp,96(s2)
     fbc:	0100                	addi	s0,sp,128
     fbe:	1105                	addi	sp,sp,-31
     fc0:	0c090103          	lb	sp,192(s2)
     fc4:	0100                	addi	s0,sp,128
     fc6:	1505                	addi	a0,a0,-31
     fc8:	0200                	addi	s0,sp,256
     fca:	0204                	addi	s1,sp,256
     fcc:	02090103          	lb	sp,32(s2)
     fd0:	0100                	addi	s0,sp,128
     fd2:	1c05                	addi	s8,s8,-31
     fd4:	0200                	addi	s0,sp,256
     fd6:	0204                	addi	s1,sp,256
     fd8:	0e097f03          	0xe097f03
     fdc:	0100                	addi	s0,sp,128
     fde:	1705                	addi	a4,a4,-31
     fe0:	0200                	addi	s0,sp,256
     fe2:	0104                	addi	s1,sp,128
     fe4:	0a090003          	lb	zero,160(s2)
     fe8:	0100                	addi	s0,sp,128
     fea:	1105                	addi	sp,sp,-31
     fec:	0200                	addi	s0,sp,256
     fee:	0104                	addi	s1,sp,128
     ff0:	08090003          	lb	zero,128(s2)
     ff4:	0100                	addi	s0,sp,128
     ff6:	02090203          	lb	tp,32(s2)
     ffa:	0100                	addi	s0,sp,128
     ffc:	02090203          	lb	tp,32(s2)
    1000:	0100                	addi	s0,sp,128
    1002:	08090103          	lb	sp,128(s2)
    1006:	0100                	addi	s0,sp,128
    1008:	02090303          	lb	t1,32(s2)
    100c:	0100                	addi	s0,sp,128
    100e:	08090103          	lb	sp,128(s2)
    1012:	0100                	addi	s0,sp,128
    1014:	0e090103          	lb	sp,224(s2)
    1018:	0100                	addi	s0,sp,128
    101a:	2b05                	addiw	s6,s6,1
    101c:	0200                	addi	s0,sp,256
    101e:	0204                	addi	s1,sp,256
    1020:	02096103          	lwu	sp,32(s2)
    1024:	0100                	addi	s0,sp,128
    1026:	1805                	addi	a6,a6,-31
    1028:	0200                	addi	s0,sp,256
    102a:	0104                	addi	s1,sp,128
    102c:	0a090003          	lb	zero,160(s2)
    1030:	0100                	addi	s0,sp,128
    1032:	1305                	addi	t1,t1,-31
    1034:	0200                	addi	s0,sp,256
    1036:	0104                	addi	s1,sp,128
    1038:	0e090003          	lb	zero,224(s2)
    103c:	0100                	addi	s0,sp,128
    103e:	0505                	addi	a0,a0,1
    1040:	0200                	addi	s0,sp,256
    1042:	0104                	addi	s1,sp,128
    1044:	04090003          	lb	zero,64(s2)
    1048:	0100                	addi	s0,sp,128
    104a:	0105                	addi	sp,sp,1
    104c:	0a092203          	lw	tp,160(s2)
    1050:	0100                	addi	s0,sp,128
    1052:	0d05                	addi	s10,s10,1
    1054:	02096503          	lwu	a0,32(s2)
    1058:	0100                	addi	s0,sp,128
    105a:	0105                	addi	sp,sp,1
    105c:	02091b03          	lh	s6,32(s2)
    1060:	0100                	addi	s0,sp,128
    1062:	2305                	addiw	t1,t1,1
    1064:	0a090303          	lb	t1,160(s2)
    1068:	0100                	addi	s0,sp,128
    106a:	0105                	addi	sp,sp,1
    106c:	10090603          	lb	a2,256(s2)
    1070:	0100                	addi	s0,sp,128
    1072:	2705                	addiw	a4,a4,1
    1074:	08090303          	lb	t1,128(s2)
    1078:	0100                	addi	s0,sp,128
    107a:	0805                	addi	a6,a6,1
    107c:	12090103          	lb	sp,288(s2)
    1080:	0100                	addi	s0,sp,128
    1082:	0905                	addi	s2,s2,1
    1084:	0e090103          	lb	sp,224(s2)
    1088:	0100                	addi	s0,sp,128
    108a:	0105                	addi	sp,sp,1
    108c:	1e090503          	lb	a0,480(s2)
    1090:	0100                	addi	s0,sp,128
    1092:	0905                	addi	s2,s2,1
    1094:	02097d03          	0x2097d03
    1098:	0100                	addi	s0,sp,128
    109a:	16090103          	lb	sp,352(s2)
    109e:	0100                	addi	s0,sp,128
    10a0:	0105                	addi	sp,sp,1
    10a2:	16090203          	lb	tp,352(s2)
    10a6:	0100                	addi	s0,sp,128
    10a8:	2705                	addiw	a4,a4,1
    10aa:	0a090303          	lb	t1,160(s2)
    10ae:	0100                	addi	s0,sp,128
    10b0:	0805                	addi	a6,a6,1
    10b2:	12090103          	lb	sp,288(s2)
    10b6:	0100                	addi	s0,sp,128
    10b8:	0905                	addi	s2,s2,1
    10ba:	0e090103          	lb	sp,224(s2)
    10be:	0100                	addi	s0,sp,128
    10c0:	0105                	addi	sp,sp,1
    10c2:	1a090503          	lb	a0,416(s2)
    10c6:	0100                	addi	s0,sp,128
    10c8:	0905                	addi	s2,s2,1
    10ca:	02097d03          	0x2097d03
    10ce:	0100                	addi	s0,sp,128
    10d0:	14090103          	lb	sp,320(s2)
    10d4:	0100                	addi	s0,sp,128
    10d6:	0105                	addi	sp,sp,1
    10d8:	12090203          	lb	tp,288(s2)
    10dc:	0100                	addi	s0,sp,128
    10de:	0a09                	addi	s4,s4,2
    10e0:	0000                	unimp
    10e2:	0101                	addi	sp,sp,0

Disassembly of section .debug_info:

0000000000000000 <.debug_info>:
   0:	002a                	c.slli	zero,0xa
   2:	0000                	unimp
   4:	0002                	c.slli64	zero
   6:	0000                	unimp
   8:	0000                	unimp
   a:	0108                	addi	a0,sp,128
   c:	0000                	unimp
   e:	0000                	unimp
  10:	0000                	unimp
  12:	8000                	0x8000
  14:	0000                	unimp
  16:	0000                	unimp
  18:	000e                	c.slli	zero,0x3
  1a:	8000                	0x8000
	...
  24:	000a                	c.slli	zero,0x2
  26:	0000                	unimp
  28:	003d                	c.nop	15
  2a:	0000                	unimp
  2c:	8001                	c.srli64	s0
  2e:	002a                	c.slli	zero,0xa
  30:	0000                	unimp
  32:	0002                	c.slli64	zero
  34:	0014                	0x14
  36:	0000                	unimp
  38:	0108                	addi	a0,sp,128
  3a:	0048                	addi	a0,sp,4
  3c:	0000                	unimp
  3e:	0010                	0x10
  40:	8000                	0x8000
  42:	0000                	unimp
  44:	0000                	unimp
  46:	0012                	c.slli	zero,0x4
  48:	8000                	0x8000
  4a:	0000                	unimp
  4c:	0000                	unimp
  4e:	0049                	c.nop	18
  50:	0000                	unimp
  52:	000a                	c.slli	zero,0x2
  54:	0000                	unimp
  56:	003d                	c.nop	15
  58:	0000                	unimp
  5a:	8001                	c.srli64	s0
  5c:	0164                	addi	s1,sp,140
  5e:	0000                	unimp
  60:	0004                	0x4
  62:	0028                	addi	a0,sp,8
  64:	0000                	unimp
  66:	0108                	addi	a0,sp,128
  68:	00ae                	slli	ra,ra,0xb
  6a:	0000                	unimp
  6c:	550c                	lw	a1,40(a0)
  6e:	0000                	unimp
  70:	0a00                	addi	s0,sp,272
  72:	0000                	unimp
  74:	1200                	addi	s0,sp,288
  76:	0000                	unimp
  78:	0080                	addi	s0,sp,64
  7a:	0000                	unimp
  7c:	d000                	sw	s0,32(s0)
  7e:	0000                	unimp
  80:	0000                	unimp
  82:	0000                	unimp
  84:	8600                	0x8600
  86:	0000                	unimp
  88:	0200                	addi	s0,sp,256
  8a:	0601                	addi	a2,a2,0
  8c:	006e                	c.slli	zero,0x1b
  8e:	0000                	unimp
  90:	0202                	c.slli64	tp
  92:	1805                	addi	a6,a6,-31
  94:	0001                	nop
  96:	0300                	addi	s0,sp,384
  98:	0504                	addi	s1,sp,640
  9a:	6e69                	lui	t3,0x1a
  9c:	0074                	addi	a3,sp,12
  9e:	0802                	c.slli64	a6
  a0:	2205                	addiw	tp,tp,1
  a2:	0001                	nop
  a4:	0200                	addi	s0,sp,256
  a6:	0801                	addi	a6,a6,0
  a8:	006c                	addi	a1,sp,12
  aa:	0000                	unimp
  ac:	0202                	c.slli64	tp
  ae:	00008c07          	0x8c07
  b2:	0200                	addi	s0,sp,256
  b4:	0704                	addi	s1,sp,896
  b6:	007f                	0x7f
  b8:	0000                	unimp
  ba:	5e04                	lw	s1,56(a2)
  bc:	0000                	unimp
  be:	0300                	addi	s0,sp,384
  c0:	006a1937          	lui	s2,0x6a1
  c4:	0000                	unimp
  c6:	0802                	c.slli64	a6
  c8:	00007a07          	0x7a07
  cc:	0500                	addi	s0,sp,640
  ce:	00000067          	jr	zero # 0 <_stack_size-0x1000>
  d2:	2902                	fld	fs2,0(sp)
  d4:	d006                	sw	ra,32(sp)
  d6:	0000                	unimp
  d8:	0080                	addi	s0,sp,64
  da:	0000                	unimp
  dc:	1200                	addi	s0,sp,288
  de:	0000                	unimp
  e0:	0000                	unimp
  e2:	0000                	unimp
  e4:	0100                	addi	s0,sp,128
  e6:	069c                	addi	a5,sp,832
  e8:	009f 0000 0b02      	0xb020000009f
  ee:	7a06                	ld	s4,96(sp)
  f0:	0000                	unimp
  f2:	0080                	addi	s0,sp,64
  f4:	0000                	unimp
  f6:	5600                	lw	s0,40(a2)
  f8:	0000                	unimp
  fa:	0000                	unimp
  fc:	0000                	unimp
  fe:	0100                	addi	s0,sp,128
 100:	b79c                	fsd	fa5,40(a5)
 102:	0000                	unimp
 104:	0700                	addi	s0,sp,896
 106:	0078                	addi	a4,sp,12
 108:	1002                	c.slli	zero,0x20
 10a:	00006a13          	ori	s4,zero,0
 10e:	0200                	addi	s0,sp,256
 110:	6891                	lui	a7,0x4
 112:	0800                	addi	s0,sp,16
 114:	0000012b          	0x12b
 118:	8f01                	sub	a4,a4,s0
 11a:	6015                	c.lui	zero,0x5
 11c:	0000                	unimp
 11e:	0080                	addi	s0,sp,64
 120:	0000                	unimp
 122:	1a00                	addi	s0,sp,304
 124:	0000                	unimp
 126:	0000                	unimp
 128:	0000                	unimp
 12a:	0100                	addi	s0,sp,128
 12c:	e39c                	sd	a5,0(a5)
 12e:	0000                	unimp
 130:	0900                	addi	s0,sp,144
 132:	0078                	addi	a4,sp,12
 134:	8f01                	sub	a4,a4,s0
 136:	5e26                	lw	t3,104(sp)
 138:	0000                	unimp
 13a:	0200                	addi	s0,sp,256
 13c:	6891                	lui	a7,0x4
 13e:	0800                	addi	s0,sp,16
 140:	00000133          	add	sp,zero,zero
 144:	2201                	sext.w	tp,tp
 146:	4615                	li	a2,5
 148:	0000                	unimp
 14a:	0080                	addi	s0,sp,64
 14c:	0000                	unimp
 14e:	1a00                	addi	s0,sp,304
 150:	0000                	unimp
 152:	0000                	unimp
 154:	0000                	unimp
 156:	0100                	addi	s0,sp,128
 158:	0f9c                	addi	a5,sp,976
 15a:	0001                	nop
 15c:	0900                	addi	s0,sp,144
 15e:	0078                	addi	a4,sp,12
 160:	2201                	sext.w	tp,tp
 162:	5e25                	li	t3,-23
 164:	0000                	unimp
 166:	0200                	addi	s0,sp,256
 168:	6891                	lui	a7,0x4
 16a:	0800                	addi	s0,sp,16
 16c:	00a4                	addi	s1,sp,72
 16e:	0000                	unimp
 170:	1b01                	addi	s6,s6,-32
 172:	2c15                	addiw	s8,s8,5
 174:	0000                	unimp
 176:	0080                	addi	s0,sp,64
 178:	0000                	unimp
 17a:	1a00                	addi	s0,sp,304
 17c:	0000                	unimp
 17e:	0000                	unimp
 180:	0000                	unimp
 182:	0100                	addi	s0,sp,128
 184:	3b9c                	fld	fa5,48(a5)
 186:	0001                	nop
 188:	0900                	addi	s0,sp,144
 18a:	0078                	addi	a4,sp,12
 18c:	1b01                	addi	s6,s6,-32
 18e:	5e28                	lw	a0,120(a2)
 190:	0000                	unimp
 192:	0200                	addi	s0,sp,256
 194:	6891                	lui	a7,0x4
 196:	0a00                	addi	s0,sp,272
 198:	010e                	slli	sp,sp,0x3
 19a:	0000                	unimp
 19c:	1501                	addi	a0,a0,-32
 19e:	5e18                	lw	a4,56(a2)
 1a0:	0000                	unimp
 1a2:	1200                	addi	s0,sp,288
 1a4:	0000                	unimp
 1a6:	0080                	addi	s0,sp,64
 1a8:	0000                	unimp
 1aa:	1a00                	addi	s0,sp,304
 1ac:	0000                	unimp
 1ae:	0000                	unimp
 1b0:	0000                	unimp
 1b2:	0100                	addi	s0,sp,128
 1b4:	079c                	addi	a5,sp,960
 1b6:	0078                	addi	a4,sp,12
 1b8:	1601                	addi	a2,a2,-32
 1ba:	5e0c                	lw	a1,56(a2)
 1bc:	0000                	unimp
 1be:	0200                	addi	s0,sp,256
 1c0:	6891                	lui	a7,0x4
 1c2:	0000                	unimp
 1c4:	03da                	slli	t2,t2,0x16
 1c6:	0000                	unimp
 1c8:	0004                	0x4
 1ca:	000000e7          	jalr	zero # 0 <_stack_size-0x1000>
 1ce:	0108                	addi	a0,sp,128
 1d0:	00ae                	slli	ra,ra,0xb
 1d2:	0000                	unimp
 1d4:	a20c                	fsd	fa1,0(a2)
 1d6:	0001                	nop
 1d8:	0a00                	addi	s0,sp,272
 1da:	0000                	unimp
 1dc:	e200                	sd	s0,0(a2)
 1de:	0000                	unimp
 1e0:	0080                	addi	s0,sp,64
 1e2:	0000                	unimp
 1e4:	d000                	sw	s0,32(s0)
 1e6:	0006                	c.slli	zero,0x1
 1e8:	0000                	unimp
 1ea:	0000                	unimp
 1ec:	f200                	sd	s0,32(a2)
 1ee:	0001                	nop
 1f0:	0200                	addi	s0,sp,256
 1f2:	0171                	addi	sp,sp,28
 1f4:	0000                	unimp
 1f6:	2802                	fld	fa6,0(sp)
 1f8:	0000391b          	0x391b
 1fc:	0300                	addi	s0,sp,384
 1fe:	5608                	lw	a0,40(a2)
 200:	0001                	nop
 202:	0200                	addi	s0,sp,256
 204:	0178                	addi	a4,sp,140
 206:	0000                	unimp
 208:	6302                	ld	t1,0(sp)
 20a:	2d18                	fld	fa4,24(a0)
 20c:	0000                	unimp
 20e:	0400                	addi	s0,sp,512
 210:	0704                	addi	s1,sp,896
 212:	007f                	0x7f
 214:	0000                	unimp
 216:	6905                	lui	s2,0x1
 218:	0000                	unimp
 21a:	6200                	ld	s0,0(a2)
 21c:	0000                	unimp
 21e:	0600                	addi	s0,sp,768
 220:	0062                	c.slli	zero,0x18
 222:	0000                	unimp
 224:	0010                	0x10
 226:	0804                	addi	s1,sp,16
 228:	00007a07          	0x7a07
 22c:	0400                	addi	s0,sp,512
 22e:	0801                	addi	a6,a6,0
 230:	0075                	c.nop	29
 232:	0000                	unimp
 234:	00006907          	0x6907
 238:	0800                	addi	s0,sp,16
 23a:	01bd                	addi	gp,gp,15
 23c:	0000                	unimp
 23e:	9001                	srli	s0,s0,0x20
 240:	520d                	li	tp,-29
 242:	0000                	unimp
 244:	0900                	addi	s0,sp,144
 246:	00111003          	lh	zero,1(sp)
 24a:	0080                	addi	s0,sp,64
 24c:	0000                	unimp
 24e:	0900                	addi	s0,sp,144
 250:	01dd                	addi	gp,gp,23
 252:	0000                	unimp
 254:	b001                	j	fffffffffffffa54 <_estack+0xffffffff7fffd914>
 256:	ca06                	sw	ra,20(sp)
 258:	0005                	c.nop	1
 25a:	0080                	addi	s0,sp,64
 25c:	0000                	unimp
 25e:	e800                	sd	s0,16(s0)
 260:	0001                	nop
 262:	0000                	unimp
 264:	0000                	unimp
 266:	0100                	addi	s0,sp,128
 268:	f49c                	sd	a5,40(s1)
 26a:	0000                	unimp
 26c:	0a00                	addi	s0,sp,272
 26e:	6d66                	ld	s10,88(sp)
 270:	0074                	addi	a3,sp,12
 272:	b001                	j	fffffffffffffa72 <_estack+0xffffffff7fffd932>
 274:	f418                	sd	a4,40(s0)
 276:	0000                	unimp
 278:	0300                	addi	s0,sp,384
 27a:	8891                	andi	s1,s1,4
 27c:	0b7f                	0xb7f
 27e:	610c                	ld	a1,0(a0)
 280:	0070                	addi	a2,sp,12
 282:	b101                	j	fffffffffffffe82 <_estack+0xffffffff7fffdd42>
 284:	3f0d                	addiw	t5,t5,-29
 286:	0000                	unimp
 288:	0300                	addi	s0,sp,384
 28a:	9091                	srli	s1,s1,0x24
 28c:	0c7f                	0xc7f
 28e:	0069                	c.nop	26
 290:	b201                	j	fffffffffffffb90 <_estack+0xffffffff7fffda50>
 292:	fa09                	bnez	a2,1a4 <_stack_size-0xe5c>
 294:	0000                	unimp
 296:	0300                	addi	s0,sp,384
 298:	ac91                	j	4ec <_stack_size-0xb14>
 29a:	0c7f                	0xc7f
 29c:	b2010063          	beqz	sp,fffffffffffff5bc <_estack+0xffffffff7fffd47c>
 2a0:	fa0c                	sd	a1,48(a2)
 2a2:	0000                	unimp
 2a4:	0300                	addi	s0,sp,384
 2a6:	9c91                	subw	s1,s1,a2
 2a8:	0c7f                	0xc7f
 2aa:	b3010073          	0xb3010073
 2ae:	0000f40b          	0xf40b
 2b2:	0300                	addi	s0,sp,384
 2b4:	a091                	j	2f8 <_stack_size-0xd08>
 2b6:	007f                	0x7f
 2b8:	080d                	addi	a6,a6,3
 2ba:	0069                	c.nop	26
 2bc:	0000                	unimp
 2be:	040e                	slli	s0,s0,0x3
 2c0:	6905                	lui	s2,0x1
 2c2:	746e                	ld	s0,248(sp)
 2c4:	0f00                	addi	s0,sp,912
 2c6:	01e9                	addi	gp,gp,26
 2c8:	0000                	unimp
 2ca:	a801                	j	2da <_stack_size-0xd26>
 2cc:	5a0d                	li	s4,-29
 2ce:	0005                	c.nop	1
 2d0:	0080                	addi	s0,sp,64
 2d2:	0000                	unimp
 2d4:	7000                	ld	s0,32(s0)
 2d6:	0000                	unimp
 2d8:	0000                	unimp
 2da:	0000                	unimp
 2dc:	0100                	addi	s0,sp,128
 2de:	3a9c                	fld	fa5,48(a3)
 2e0:	0001                	nop
 2e2:	0a00                	addi	s0,sp,272
 2e4:	0078                	addi	a4,sp,12
 2e6:	a801                	j	2f6 <_stack_size-0xd0a>
 2e8:	fa1a                	sd	t1,304(sp)
 2ea:	0000                	unimp
 2ec:	0200                	addi	s0,sp,256
 2ee:	5c91                	li	s9,-28
 2f0:	690c                	ld	a1,16(a0)
 2f2:	0100                	addi	s0,sp,128
 2f4:	09a9                	addi	s3,s3,10
 2f6:	00fa                	slli	ra,ra,0x1e
 2f8:	0000                	unimp
 2fa:	9102                	jalr	sp
 2fc:	006c                	addi	a1,sp,12
 2fe:	0001850f          	0x1850f
 302:	0100                	addi	s0,sp,128
 304:	0d92                	slli	s11,s11,0x4
 306:	045e                	slli	s0,s0,0x17
 308:	8000                	0x8000
 30a:	0000                	unimp
 30c:	0000                	unimp
 30e:	00fc                	addi	a5,sp,76
 310:	0000                	unimp
 312:	0000                	unimp
 314:	0000                	unimp
 316:	9c01                	subw	s0,s0,s0
 318:	01ae                	slli	gp,gp,0xb
 31a:	0000                	unimp
 31c:	780a                	ld	a6,160(sp)
 31e:	0078                	addi	a4,sp,12
 320:	9201                	srli	a2,a2,0x20
 322:	fa1a                	sd	t1,304(sp)
 324:	0000                	unimp
 326:	0200                	addi	s0,sp,256
 328:	4c91                	li	s9,4
 32a:	a910                	fsd	fa2,16(a0)
 32c:	0001                	nop
 32e:	0100                	addi	s0,sp,128
 330:	2292                	fld	ft5,256(sp)
 332:	00fa                	slli	ra,ra,0x1e
 334:	0000                	unimp
 336:	9102                	jalr	sp
 338:	1048                	addi	a0,sp,36
 33a:	01d8                	addi	a4,sp,196
 33c:	0000                	unimp
 33e:	9201                	srli	a2,a2,0x20
 340:	fa2c                	sd	a1,112(a2)
 342:	0000                	unimp
 344:	0200                	addi	s0,sp,256
 346:	4491                	li	s1,4
 348:	620c                	ld	a1,0(a2)
 34a:	6675                	lui	a2,0x1d
 34c:	0100                	addi	s0,sp,128
 34e:	01ae0a93          	addi	s5,t3,26 # 1a01a <_stack_size+0x1901a>
 352:	0000                	unimp
 354:	9102                	jalr	sp
 356:	0c58                	addi	a4,sp,532
 358:	0069                	c.nop	26
 35a:	9401                	srai	s0,s0,0x20
 35c:	fa09                	bnez	a2,26e <_stack_size-0xd92>
 35e:	0000                	unimp
 360:	0200                	addi	s0,sp,256
 362:	6c91                	lui	s9,0x4
 364:	780c                	ld	a1,48(s0)
 366:	0100                	addi	s0,sp,128
 368:	0995                	addi	s3,s3,5
 36a:	00fa                	slli	ra,ra,0x1e
 36c:	0000                	unimp
 36e:	9102                	jalr	sp
 370:	0068                	addi	a0,sp,12
 372:	6905                	lui	s2,0x1
 374:	0000                	unimp
 376:	be00                	fsd	fs0,56(a2)
 378:	0001                	nop
 37a:	0600                	addi	s0,sp,768
 37c:	0062                	c.slli	zero,0x18
 37e:	0000                	unimp
 380:	f209000f          	0xf209000f
 384:	0001                	nop
 386:	0100                	addi	s0,sp,128
 388:	03f20687          	0x3f20687
 38c:	8000                	0x8000
 38e:	0000                	unimp
 390:	0000                	unimp
 392:	006c                	addi	a1,sp,12
 394:	0000                	unimp
 396:	0000                	unimp
 398:	0000                	unimp
 39a:	9c01                	subw	s0,s0,s0
 39c:	000001f7          	0x1f7
 3a0:	730a                	ld	t1,160(sp)
 3a2:	0100                	addi	s0,sp,128
 3a4:	004b2087          	flw	ft1,4(s6)
 3a8:	0000                	unimp
 3aa:	9102                	jalr	sp
 3ac:	0a6c                	addi	a1,sp,284
 3ae:	0066                	c.slli	zero,0x19
 3b0:	8701                	c.srai64	a4
 3b2:	f429                	bnez	s0,2fc <_stack_size-0xd04>
 3b4:	0000                	unimp
 3b6:	0200                	addi	s0,sp,256
 3b8:	6091                	lui	ra,0x4
 3ba:	0900                	addi	s0,sp,144
 3bc:	0149                	addi	sp,sp,18
 3be:	0000                	unimp
 3c0:	7c01                	lui	s8,0xfffe0
 3c2:	6c06                	ld	s8,64(sp)
 3c4:	00800003          	lb	zero,8(zero) # 8 <_stack_size-0xff8>
 3c8:	0000                	unimp
 3ca:	8600                	0x8600
 3cc:	0000                	unimp
 3ce:	0000                	unimp
 3d0:	0000                	unimp
 3d2:	0100                	addi	s0,sp,128
 3d4:	509c                	lw	a5,32(s1)
 3d6:	0002                	c.slli64	zero
 3d8:	0a00                	addi	s0,sp,272
 3da:	7c010073          	0x7c010073
 3de:	4b20                	lw	s0,80(a4)
 3e0:	0000                	unimp
 3e2:	0200                	addi	s0,sp,256
 3e4:	5c91                	li	s9,-28
 3e6:	660a                	ld	a2,128(sp)
 3e8:	0100                	addi	s0,sp,128
 3ea:	297c                	fld	fa5,208(a0)
 3ec:	00f4                	addi	a3,sp,76
 3ee:	0000                	unimp
 3f0:	9102                	jalr	sp
 3f2:	1150                	addi	a2,sp,164
 3f4:	03ac                	addi	a1,sp,456
 3f6:	8000                	0x8000
 3f8:	0000                	unimp
 3fa:	0000                	unimp
 3fc:	003c                	addi	a5,sp,8
 3fe:	0000                	unimp
 400:	0000                	unimp
 402:	0000                	unimp
 404:	730c                	ld	a1,32(a4)
 406:	0031                	c.nop	12
 408:	8001                	c.srli64	s0
 40a:	fa0d                	bnez	a2,33c <_stack_size-0xcc4>
 40c:	0000                	unimp
 40e:	0200                	addi	s0,sp,256
 410:	6c91                	lui	s9,0x4
 412:	0000                	unimp
 414:	ca09                	beqz	a2,426 <_stack_size-0xbda>
 416:	0001                	nop
 418:	0100                	addi	s0,sp,128
 41a:	0669                	addi	a2,a2,26
 41c:	02ec                	addi	a1,sp,332
 41e:	8000                	0x8000
 420:	0000                	unimp
 422:	0000                	unimp
 424:	0080                	addi	s0,sp,64
 426:	0000                	unimp
 428:	0000                	unimp
 42a:	0000                	unimp
 42c:	9c01                	subw	s0,s0,s0
 42e:	0000028b          	0x28b
 432:	610a                	ld	sp,128(sp)
 434:	0100                	addi	s0,sp,128
 436:	2269                	addiw	tp,tp,26
 438:	0000028b          	0x28b
 43c:	9102                	jalr	sp
 43e:	0c58                	addi	a4,sp,532
 440:	6d74                	ld	a3,216(a0)
 442:	0070                	addi	a2,sp,12
 444:	6b01                	0x6b01
 446:	4b12                	lw	s6,4(sp)
 448:	0000                	unimp
 44a:	0200                	addi	s0,sp,256
 44c:	6c91                	lui	s9,0x4
 44e:	0d00                	addi	s0,sp,656
 450:	4b08                	lw	a0,16(a4)
 452:	0000                	unimp
 454:	0900                	addi	s0,sp,144
 456:	0194                	addi	a3,sp,192
 458:	0000                	unimp
 45a:	5901                	li	s2,-32
 45c:	4206                	lw	tp,64(sp)
 45e:	0002                	c.slli64	zero
 460:	0080                	addi	s0,sp,64
 462:	0000                	unimp
 464:	aa00                	fsd	fs0,16(a2)
 466:	0000                	unimp
 468:	0000                	unimp
 46a:	0000                	unimp
 46c:	0100                	addi	s0,sp,128
 46e:	ed9c                	sd	a5,24(a1)
 470:	0002                	c.slli64	zero
 472:	0a00                	addi	s0,sp,272
 474:	7562                	ld	a0,56(sp)
 476:	0066                	c.slli	zero,0x19
 478:	5901                	li	s2,-32
 47a:	f41a                	sd	t1,40(sp)
 47c:	0000                	unimp
 47e:	0200                	addi	s0,sp,256
 480:	4891                	li	a7,4
 482:	c410                	sw	a2,8(s0)
 484:	0001                	nop
 486:	0100                	addi	s0,sp,128
 488:	2359                	addiw	t1,t1,22
 48a:	00fa                	slli	ra,ra,0x1e
 48c:	0000                	unimp
 48e:	9102                	jalr	sp
 490:	1144                	addi	s1,sp,164
 492:	0256                	slli	tp,tp,0x15
 494:	8000                	0x8000
 496:	0000                	unimp
 498:	0000                	unimp
 49a:	0076                	c.slli	zero,0x1d
 49c:	0000                	unimp
 49e:	0000                	unimp
 4a0:	0000                	unimp
 4a2:	690c                	ld	a1,16(a0)
 4a4:	0100                	addi	s0,sp,128
 4a6:	0e5a                	slli	t3,t3,0x16
 4a8:	00fa                	slli	ra,ra,0x1e
 4aa:	0000                	unimp
 4ac:	9102                	jalr	sp
 4ae:	005c                	addi	a5,sp,4
 4b0:	0900                	addi	s0,sp,144
 4b2:	013a                	slli	sp,sp,0xe
 4b4:	0000                	unimp
 4b6:	5201                	li	tp,-32
 4b8:	0606                	slli	a2,a2,0x1
 4ba:	0002                	c.slli64	zero
 4bc:	0080                	addi	s0,sp,64
 4be:	0000                	unimp
 4c0:	3c00                	fld	fs0,56(s0)
 4c2:	0000                	unimp
 4c4:	0000                	unimp
 4c6:	0000                	unimp
 4c8:	0100                	addi	s0,sp,128
 4ca:	199c                	addi	a5,sp,240
 4cc:	0a000003          	lb	zero,160(zero) # a0 <_stack_size-0xf60>
 4d0:	52010073          	0x52010073
 4d4:	1921                	addi	s2,s2,-24
 4d6:	02000003          	lb	zero,32(zero) # 20 <_stack_size-0xfe0>
 4da:	6891                	lui	a7,0x4
 4dc:	0d00                	addi	s0,sp,656
 4de:	7008                	ld	a0,32(s0)
 4e0:	0000                	unimp
 4e2:	0900                	addi	s0,sp,144
 4e4:	01ae                	slli	gp,gp,0xb
 4e6:	0000                	unimp
 4e8:	4b01                	li	s6,0
 4ea:	b006                	fsd	ft1,32(sp)
 4ec:	0001                	nop
 4ee:	0080                	addi	s0,sp,64
 4f0:	0000                	unimp
 4f2:	5600                	lw	s0,40(a2)
 4f4:	0000                	unimp
 4f6:	0000                	unimp
 4f8:	0000                	unimp
 4fa:	0100                	addi	s0,sp,128
 4fc:	799c                	ld	a5,48(a1)
 4fe:	0a000003          	lb	zero,160(zero) # a0 <_stack_size-0xf60>
 502:	4b010073          	0x4b010073
 506:	1921                	addi	s2,s2,-24
 508:	02000003          	lb	zero,32(zero) # 20 <_stack_size-0xfe0>
 50c:	5891                	li	a7,-28
 50e:	8010                	0x8010
 510:	0001                	nop
 512:	0100                	addi	s0,sp,128
 514:	00fa284b          	fnmsub.s	fa6,fs4,fa5,ft0,rdn
 518:	0000                	unimp
 51a:	9102                	jalr	sp
 51c:	1154                	addi	a3,sp,164
 51e:	01c2                	slli	gp,gp,0x10
 520:	8000                	0x8000
 522:	0000                	unimp
 524:	0000                	unimp
 526:	0038                	addi	a4,sp,8
 528:	0000                	unimp
 52a:	0000                	unimp
 52c:	0000                	unimp
 52e:	690c                	ld	a1,16(a0)
 530:	0100                	addi	s0,sp,128
 532:	0e4c                	addi	a1,sp,788
 534:	00fa                	slli	ra,ra,0x1e
 536:	0000                	unimp
 538:	9102                	jalr	sp
 53a:	006c                	addi	a1,sp,12
 53c:	1200                	addi	s0,sp,288
 53e:	0000027b          	0x27b
 542:	4201                	li	tp,0
 544:	6906                	ld	s2,64(sp)
 546:	0000                	unimp
 548:	7a00                	ld	s0,48(a2)
 54a:	0001                	nop
 54c:	0080                	addi	s0,sp,64
 54e:	0000                	unimp
 550:	3600                	fld	fs0,40(a2)
 552:	0000                	unimp
 554:	0000                	unimp
 556:	0000                	unimp
 558:	0100                	addi	s0,sp,128
 55a:	139c                	addi	a5,sp,480
 55c:	018e                	slli	gp,gp,0x3
 55e:	0000                	unimp
 560:	3901                	addiw	s2,s2,-32
 562:	4006                	0x4006
 564:	0001                	nop
 566:	0080                	addi	s0,sp,64
 568:	0000                	unimp
 56a:	3a00                	fld	fs0,48(a2)
 56c:	0000                	unimp
 56e:	0000                	unimp
 570:	0000                	unimp
 572:	0100                	addi	s0,sp,128
 574:	c39c                	sw	a5,0(a5)
 576:	0a000003          	lb	zero,160(zero) # a0 <_stack_size-0xf60>
 57a:	39010063          	beq	sp,a6,8fa <_stack_size-0x706>
 57e:	6911                	lui	s2,0x4
 580:	0000                	unimp
 582:	0200                	addi	s0,sp,256
 584:	6f91                	lui	t6,0x4
 586:	1400                	addi	s0,sp,544
 588:	0168                	addi	a0,sp,140
 58a:	0000                	unimp
 58c:	2001                	0x2001
 58e:	e206                	sd	ra,256(sp)
 590:	0000                	unimp
 592:	0080                	addi	s0,sp,64
 594:	0000                	unimp
 596:	5e00                	lw	s0,56(a2)
 598:	0000                	unimp
 59a:	0000                	unimp
 59c:	0000                	unimp
 59e:	0100                	addi	s0,sp,128
 5a0:	009c                	addi	a5,sp,64
 5a2:	00000173          	0x173
 5a6:	0004                	0x4
 5a8:	0221                	addi	tp,tp,8
 5aa:	0000                	unimp
 5ac:	0108                	addi	a0,sp,128
 5ae:	00ae                	slli	ra,ra,0xb
 5b0:	0000                	unimp
 5b2:	ff0c                	sd	a1,56(a4)
 5b4:	0001                	nop
 5b6:	0a00                	addi	s0,sp,272
 5b8:	0000                	unimp
 5ba:	b200                	fsd	fs0,32(a2)
 5bc:	00800007          	0x800007
 5c0:	0000                	unimp
 5c2:	c200                	sw	s0,0(a2)
 5c4:	0001                	nop
 5c6:	0000                	unimp
 5c8:	0000                	unimp
 5ca:	e300                	sd	s0,0(a4)
 5cc:	02000007          	0x2000007
 5d0:	00000213          	li	tp,0
 5d4:	2301                	sext.w	t1,t1
 5d6:	0000a807          	flw	fa6,0(ra) # 4000 <_stack_size+0x3000>
 5da:	0200                	addi	s0,sp,256
 5dc:	0009                	c.nop	2
 5de:	0080                	addi	s0,sp,64
 5e0:	0000                	unimp
 5e2:	7200                	ld	s0,32(a2)
 5e4:	0000                	unimp
 5e6:	0000                	unimp
 5e8:	0000                	unimp
 5ea:	0100                	addi	s0,sp,128
 5ec:	a89c                	fsd	fa5,16(s1)
 5ee:	0000                	unimp
 5f0:	0300                	addi	s0,sp,384
 5f2:	0078                	addi	a4,sp,12
 5f4:	2301                	sext.w	t1,t1
 5f6:	b516                	fsd	ft5,168(sp)
 5f8:	0000                	unimp
 5fa:	0200                	addi	s0,sp,256
 5fc:	4c91                	li	s9,4
 5fe:	01007303          	0x1007303
 602:	00a81f23          	sh	a0,30(a6)
 606:	0000                	unimp
 608:	9102                	jalr	sp
 60a:	0440                	addi	s0,sp,516
 60c:	0916                	slli	s2,s2,0x5
 60e:	8000                	0x8000
 610:	0000                	unimp
 612:	0000                	unimp
 614:	004e                	c.slli	zero,0x13
 616:	0000                	unimp
 618:	0000                	unimp
 61a:	0000                	unimp
 61c:	6905                	lui	s2,0x1
 61e:	0100                	addi	s0,sp,128
 620:	0e24                	addi	s1,sp,792
 622:	00b5                	addi	ra,ra,13
 624:	0000                	unimp
 626:	9102                	jalr	sp
 628:	045c                	addi	a5,sp,516
 62a:	091e                	slli	s2,s2,0x7
 62c:	8000                	0x8000
 62e:	0000                	unimp
 630:	0000                	unimp
 632:	0032                	c.slli	zero,0xc
 634:	0000                	unimp
 636:	0000                	unimp
 638:	0000                	unimp
 63a:	6405                	lui	s0,0x1
 63c:	0100                	addi	s0,sp,128
 63e:	0d25                	addi	s10,s10,9
 640:	00b5                	addi	ra,ra,13
 642:	0000                	unimp
 644:	9102                	jalr	sp
 646:	0058                	addi	a4,sp,4
 648:	0000                	unimp
 64a:	0806                	slli	a6,a6,0x1
 64c:	00ae                	slli	ra,ra,0xb
 64e:	0000                	unimp
 650:	75080107          	0x75080107
 654:	0000                	unimp
 656:	0800                	addi	s0,sp,16
 658:	0504                	addi	s1,sp,640
 65a:	6e69                	lui	t3,0x1a
 65c:	0074                	addi	a3,sp,12
 65e:	1e02                	slli	t3,t3,0x20
 660:	0002                	c.slli64	zero
 662:	0100                	addi	s0,sp,128
 664:	0515                	addi	a0,a0,5
 666:	00b5                	addi	ra,ra,13
 668:	0000                	unimp
 66a:	0896                	slli	a7,a7,0x5
 66c:	8000                	0x8000
 66e:	0000                	unimp
 670:	0000                	unimp
 672:	006c                	addi	a1,sp,12
 674:	0000                	unimp
 676:	0000                	unimp
 678:	0000                	unimp
 67a:	9c01                	subw	s0,s0,s0
 67c:	011a                	slli	sp,sp,0x6
 67e:	0000                	unimp
 680:	01007303          	0x1007303
 684:	1615                	addi	a2,a2,-27
 686:	00a8                	addi	a0,sp,72
 688:	0000                	unimp
 68a:	9102                	jalr	sp
 68c:	0558                	addi	a4,sp,644
 68e:	6176                	ld	sp,344(sp)
 690:	006c                	addi	a1,sp,12
 692:	1601                	addi	a2,a2,-32
 694:	b509                	j	496 <_stack_size-0xb6a>
 696:	0000                	unimp
 698:	0200                	addi	s0,sp,256
 69a:	6c91                	lui	s9,0x4
 69c:	a804                	fsd	fs1,16(s0)
 69e:	0008                	0x8
 6a0:	0080                	addi	s0,sp,64
 6a2:	0000                	unimp
 6a4:	4200                	lw	s0,0(a2)
 6a6:	0000                	unimp
 6a8:	0000                	unimp
 6aa:	0000                	unimp
 6ac:	0500                	addi	s0,sp,640
 6ae:	18010063          	beqz	sp,82e <_stack_size-0x7d2>
 6b2:	b50d                	j	4d4 <_stack_size-0xb2c>
 6b4:	0000                	unimp
 6b6:	0200                	addi	s0,sp,256
 6b8:	6891                	lui	a7,0x4
 6ba:	0000                	unimp
 6bc:	2909                	addiw	s2,s2,2
 6be:	0002                	c.slli64	zero
 6c0:	0100                	addi	s0,sp,128
 6c2:	050d                	addi	a0,a0,3
 6c4:	00b5                	addi	ra,ra,13
 6c6:	0000                	unimp
 6c8:	07f6                	slli	a5,a5,0x1d
 6ca:	8000                	0x8000
 6cc:	0000                	unimp
 6ce:	0000                	unimp
 6d0:	00a0                	addi	s0,sp,72
 6d2:	0000                	unimp
 6d4:	0000                	unimp
 6d6:	0000                	unimp
 6d8:	9c01                	subw	s0,s0,s0
 6da:	014a                	slli	sp,sp,0x12
 6dc:	0000                	unimp
 6de:	01006303          	lwu	t1,16(zero) # 10 <_stack_size-0xff0>
 6e2:	170d                	addi	a4,a4,-29
 6e4:	00ae                	slli	ra,ra,0xb
 6e6:	0000                	unimp
 6e8:	9102                	jalr	sp
 6ea:	060a006f          	j	a074a <_stack_size+0x9f74a>
 6ee:	0002                	c.slli64	zero
 6f0:	0100                	addi	s0,sp,128
 6f2:	0604                	addi	s1,sp,768
 6f4:	00ae                	slli	ra,ra,0xb
 6f6:	0000                	unimp
 6f8:	07b2                	slli	a5,a5,0xc
 6fa:	8000                	0x8000
 6fc:	0000                	unimp
 6fe:	0000                	unimp
 700:	0044                	addi	s1,sp,4
 702:	0000                	unimp
 704:	0000                	unimp
 706:	0000                	unimp
 708:	9c01                	subw	s0,s0,s0
 70a:	01007803          	0x1007803
 70e:	1704                	addi	s1,sp,928
 710:	00b5                	addi	ra,ra,13
 712:	0000                	unimp
 714:	9102                	jalr	sp
 716:	006c                	addi	a1,sp,12
 718:	ec00                	sd	s0,24(s0)
 71a:	0001                	nop
 71c:	0400                	addi	s0,sp,512
 71e:	d700                	sw	s0,40(a4)
 720:	0002                	c.slli64	zero
 722:	0800                	addi	s0,sp,16
 724:	ae01                	j	a34 <_stack_size-0x5cc>
 726:	0000                	unimp
 728:	0c00                	addi	s0,sp,528
 72a:	0249                	addi	tp,tp,18
 72c:	0000                	unimp
 72e:	000a                	c.slli	zero,0x2
 730:	0000                	unimp
 732:	0974                	addi	a3,sp,156
 734:	8000                	0x8000
 736:	0000                	unimp
 738:	0000                	unimp
 73a:	025a                	slli	tp,tp,0x16
 73c:	0000                	unimp
 73e:	0000                	unimp
 740:	0000                	unimp
 742:	09a0                	addi	s0,sp,216
 744:	0000                	unimp
 746:	6202                	ld	tp,0(sp)
 748:	0002                	c.slli64	zero
 74a:	0100                	addi	s0,sp,128
 74c:	0539                	addi	a0,a0,14
 74e:	006c                	addi	a1,sp,12
 750:	0000                	unimp
 752:	0b5c                	addi	a5,sp,404
 754:	8000                	0x8000
 756:	0000                	unimp
 758:	0000                	unimp
 75a:	0072                	c.slli	zero,0x1c
 75c:	0000                	unimp
 75e:	0000                	unimp
 760:	0000                	unimp
 762:	9c01                	subw	s0,s0,s0
 764:	006c                	addi	a1,sp,12
 766:	0000                	unimp
 768:	00317303          	0x317303
 76c:	3901                	addiw	s2,s2,-32
 76e:	7318                	ld	a4,32(a4)
 770:	0000                	unimp
 772:	0200                	addi	s0,sp,256
 774:	6891                	lui	a7,0x4
 776:	00327303          	0x327303
 77a:	3901                	addiw	s2,s2,-32
 77c:	7328                	ld	a0,96(a4)
 77e:	0000                	unimp
 780:	0200                	addi	s0,sp,256
 782:	6091                	lui	ra,0x4
 784:	0400                	addi	s0,sp,512
 786:	0504                	addi	s1,sp,640
 788:	6e69                	lui	t3,0x1a
 78a:	0074                	addi	a3,sp,12
 78c:	0805                	addi	a6,a6,1
 78e:	0080                	addi	s0,sp,64
 790:	0000                	unimp
 792:	0106                	slli	sp,sp,0x1
 794:	7508                	ld	a0,40(a0)
 796:	0000                	unimp
 798:	0700                	addi	s0,sp,896
 79a:	0079                	c.nop	30
 79c:	0000                	unimp
 79e:	5a08                	lw	a0,48(a2)
 7a0:	0002                	c.slli64	zero
 7a2:	0100                	addi	s0,sp,128
 7a4:	0729                	addi	a4,a4,10
 7a6:	000000f3          	0xf3
 7aa:	0ac0                	addi	s0,sp,340
 7ac:	8000                	0x8000
 7ae:	0000                	unimp
 7b0:	0000                	unimp
 7b2:	009c                	addi	a5,sp,64
 7b4:	0000                	unimp
 7b6:	0000                	unimp
 7b8:	0000                	unimp
 7ba:	9c01                	subw	s0,s0,s0
 7bc:	000000f3          	0xf3
 7c0:	3d09                	addiw	s10,s10,-30
 7c2:	0002                	c.slli64	zero
 7c4:	0100                	addi	s0,sp,128
 7c6:	1529                	addi	a0,a0,-22
 7c8:	000000f3          	0xf3
 7cc:	9102                	jalr	sp
 7ce:	0358                	addi	a4,sp,388
 7d0:	00637273          	csrrci	tp,0x6,6
 7d4:	2901                	sext.w	s2,s2
 7d6:	00007327          	0x7327
 7da:	0200                	addi	s0,sp,256
 7dc:	5091                	li	ra,-28
 7de:	6d756e03          	lwu	t3,1751(a0) # fffffffffffeb6d7 <_estack+0xffffffff7ffe9597>
 7e2:	0100                	addi	s0,sp,128
 7e4:	3029                	0x3029
 7e6:	006c                	addi	a1,sp,12
 7e8:	0000                	unimp
 7ea:	9102                	jalr	sp
 7ec:	094c                	addi	a1,sp,148
 7ee:	0180                	addi	s0,sp,192
 7f0:	0000                	unimp
 7f2:	2901                	sext.w	s2,s2
 7f4:	6c39                	lui	s8,0xe
 7f6:	0000                	unimp
 7f8:	0200                	addi	s0,sp,256
 7fa:	4891                	li	a7,4
 7fc:	700a                	0x700a
 7fe:	7274                	ld	a3,224(a2)
 800:	0100                	addi	s0,sp,128
 802:	00f30b2f          	0xf30b2f
 806:	0000                	unimp
 808:	9102                	jalr	sp
 80a:	0068                	addi	a0,sp,12
 80c:	0805                	addi	a6,a6,1
 80e:	0079                	c.nop	30
 810:	0000                	unimp
 812:	5208                	lw	a0,32(a2)
 814:	0002                	c.slli64	zero
 816:	0100                	addi	s0,sp,128
 818:	071c                	addi	a5,sp,896
 81a:	000000f3          	0xf3
 81e:	0a46                	slli	s4,s4,0x11
 820:	8000                	0x8000
 822:	0000                	unimp
 824:	0000                	unimp
 826:	007a                	c.slli	zero,0x1e
 828:	0000                	unimp
 82a:	0000                	unimp
 82c:	0000                	unimp
 82e:	9c01                	subw	s0,s0,s0
 830:	0156                	slli	sp,sp,0x15
 832:	0000                	unimp
 834:	3d09                	addiw	s10,s10,-30
 836:	0002                	c.slli64	zero
 838:	0100                	addi	s0,sp,128
 83a:	151c                	addi	a5,sp,672
 83c:	000000f3          	0xf3
 840:	9102                	jalr	sp
 842:	0358                	addi	a4,sp,388
 844:	00637273          	csrrci	tp,0x6,6
 848:	1c01                	addi	s8,s8,-32
 84a:	7920                	ld	s0,112(a0)
 84c:	0000                	unimp
 84e:	0200                	addi	s0,sp,256
 850:	5791                	li	a5,-28
 852:	8009                	srli	s0,s0,0x2
 854:	0001                	nop
 856:	0100                	addi	s0,sp,128
 858:	291c                	fld	fa5,16(a0)
 85a:	006c                	addi	a1,sp,12
 85c:	0000                	unimp
 85e:	9102                	jalr	sp
 860:	0a50                	addi	a2,sp,276
 862:	0070                	addi	a2,sp,12
 864:	2101                	sext.w	sp,sp
 866:	0000f30b          	0xf30b
 86a:	0200                	addi	s0,sp,256
 86c:	6891                	lui	a7,0x4
 86e:	0800                	addi	s0,sp,16
 870:	0236                	slli	tp,tp,0xd
 872:	0000                	unimp
 874:	0d01                	addi	s10,s10,0
 876:	0000f307          	0xf307
 87a:	aa00                	fsd	fs0,16(a2)
 87c:	0009                	c.nop	2
 87e:	0080                	addi	s0,sp,64
 880:	0000                	unimp
 882:	9c00                	0x9c00
 884:	0000                	unimp
 886:	0000                	unimp
 888:	0000                	unimp
 88a:	0100                	addi	s0,sp,128
 88c:	b69c                	fsd	fa5,40(a3)
 88e:	0001                	nop
 890:	0900                	addi	s0,sp,144
 892:	023d                	addi	tp,tp,15
 894:	0000                	unimp
 896:	0d01                	addi	s10,s10,0
 898:	f314                	sd	a3,32(a4)
 89a:	0000                	unimp
 89c:	0200                	addi	s0,sp,256
 89e:	4891                	li	a7,4
 8a0:	63727303          	0x63727303
 8a4:	0100                	addi	s0,sp,128
 8a6:	260d                	addiw	a2,a2,3
 8a8:	00000073          	ecall
 8ac:	9102                	jalr	sp
 8ae:	0940                	addi	s0,sp,148
 8b0:	0180                	addi	s0,sp,192
 8b2:	0000                	unimp
 8b4:	0d01                	addi	s10,s10,0
 8b6:	00006c2f          	0x6c2f
 8ba:	0300                	addi	s0,sp,384
 8bc:	bc91                	j	310 <_stack_size-0xcf0>
 8be:	0a7f                	0xa7f
 8c0:	7470                	ld	a2,232(s0)
 8c2:	0072                	c.slli	zero,0x1c
 8c4:	1101                	addi	sp,sp,-32
 8c6:	0000f30b          	0xf30b
 8ca:	0200                	addi	s0,sp,256
 8cc:	5891                	li	a7,-28
 8ce:	0b00                	addi	s0,sp,400
 8d0:	0242                	slli	tp,tp,0x10
 8d2:	0000                	unimp
 8d4:	0401                	addi	s0,s0,0
 8d6:	6c05                	lui	s8,0x1
 8d8:	0000                	unimp
 8da:	7400                	ld	s0,40(s0)
 8dc:	0009                	c.nop	2
 8de:	0080                	addi	s0,sp,64
 8e0:	0000                	unimp
 8e2:	3600                	fld	fs0,40(a2)
 8e4:	0000                	unimp
 8e6:	0000                	unimp
 8e8:	0000                	unimp
 8ea:	0100                	addi	s0,sp,128
 8ec:	039c                	addi	a5,sp,448
 8ee:	04010073          	0x4010073
 8f2:	7318                	ld	a4,32(a4)
 8f4:	0000                	unimp
 8f6:	0200                	addi	s0,sp,256
 8f8:	5891                	li	a7,-28
 8fa:	6e0a                	ld	t3,128(sp)
 8fc:	0100                	addi	s0,sp,128
 8fe:	0905                	addi	s2,s2,1
 900:	006c                	addi	a1,sp,12
 902:	0000                	unimp
 904:	9102                	jalr	sp
 906:	006c                	addi	a1,sp,12
 908:	cd00                	sw	s0,24(a0)
 90a:	0000                	unimp
 90c:	0400                	addi	s0,sp,512
 90e:	9c00                	0x9c00
 910:	08000003          	lb	zero,128(zero) # 80 <_stack_size-0xf80>
 914:	ae01                	j	c24 <_stack_size-0x3dc>
 916:	0000                	unimp
 918:	0c00                	addi	s0,sp,528
 91a:	0000026f          	jal	tp,91a <_stack_size-0x6e6>
 91e:	000a                	c.slli	zero,0x2
 920:	0000                	unimp
 922:	0bce                	slli	s7,s7,0x13
 924:	8000                	0x8000
 926:	0000                	unimp
 928:	0000                	unimp
 92a:	00d6                	slli	ra,ra,0x15
 92c:	0000                	unimp
 92e:	0000                	unimp
 930:	0000                	unimp
 932:	00000c6b          	0xc6b
 936:	0402                	c.slli64	s0
 938:	00007f07          	0x7f07
 93c:	0300                	addi	s0,sp,384
 93e:	0269                	addi	tp,tp,26
 940:	0000                	unimp
 942:	0f01                	addi	t5,t5,0
 944:	ea06                	sd	ra,272(sp)
 946:	0080000b          	0x80000b
 94a:	0000                	unimp
 94c:	ba00                	fsd	fs0,48(a2)
 94e:	0000                	unimp
 950:	0000                	unimp
 952:	0000                	unimp
 954:	0100                	addi	s0,sp,128
 956:	909c                	0x909c
 958:	0000                	unimp
 95a:	0400                	addi	s0,sp,512
 95c:	7562                	ld	a0,56(sp)
 95e:	0066                	c.slli	zero,0x19
 960:	0f01                	addi	t5,t5,0
 962:	9012                	c.add	zero,tp
 964:	0000                	unimp
 966:	0200                	addi	s0,sp,256
 968:	5891                	li	a7,-28
 96a:	c405                	beqz	s0,992 <_stack_size-0x66e>
 96c:	0001                	nop
 96e:	0100                	addi	s0,sp,128
 970:	009d1b0f          	0x9d1b0f
 974:	0000                	unimp
 976:	9102                	jalr	sp
 978:	0654                	addi	a3,sp,772
 97a:	0bfc                	addi	a5,sp,476
 97c:	8000                	0x8000
 97e:	0000                	unimp
 980:	0000                	unimp
 982:	0082                	c.slli64	ra
 984:	0000                	unimp
 986:	0000                	unimp
 988:	0000                	unimp
 98a:	01006907          	0x1006907
 98e:	0e10                	addi	a2,sp,784
 990:	009d                	addi	ra,ra,7
 992:	0000                	unimp
 994:	9102                	jalr	sp
 996:	006c                	addi	a1,sp,12
 998:	0800                	addi	s0,sp,16
 99a:	9608                	0x9608
 99c:	0000                	unimp
 99e:	0200                	addi	s0,sp,256
 9a0:	0801                	addi	a6,a6,0
 9a2:	0075                	c.nop	29
 9a4:	0000                	unimp
 9a6:	0409                	addi	s0,s0,2
 9a8:	6905                	lui	s2,0x1
 9aa:	746e                	ld	s0,248(sp)
 9ac:	0a00                	addi	s0,sp,272
 9ae:	00000277          	0x277
 9b2:	0501                	addi	a0,a0,0
 9b4:	9606                	add	a2,a2,ra
 9b6:	0000                	unimp
 9b8:	ce00                	sw	s0,24(a2)
 9ba:	0080000b          	0x80000b
 9be:	0000                	unimp
 9c0:	1c00                	addi	s0,sp,560
 9c2:	0000                	unimp
 9c4:	0000                	unimp
 9c6:	0000                	unimp
 9c8:	0100                	addi	s0,sp,128
 9ca:	049c                	addi	a5,sp,576
 9cc:	05010063          	beq	sp,a6,a0c <_stack_size-0x5f4>
 9d0:	9015                	srli	s0,s0,0x25
 9d2:	0000                	unimp
 9d4:	0200                	addi	s0,sp,256
 9d6:	6891                	lui	a7,0x4
 9d8:	0000                	unimp
 9da:	025f 0000 0004      	0x40000025f
 9e0:	00000443          	fmadd.s	fs0,ft0,ft0,ft0,rne
 9e4:	0108                	addi	a0,sp,128
 9e6:	00ae                	slli	ra,ra,0xb
 9e8:	0000                	unimp
 9ea:	8a0c                	0x8a0c
 9ec:	0002                	c.slli64	zero
 9ee:	0a00                	addi	s0,sp,272
 9f0:	0000                	unimp
 9f2:	a400                	fsd	fs0,8(s0)
 9f4:	000c                	0xc
 9f6:	0080                	addi	s0,sp,64
 9f8:	0000                	unimp
 9fa:	4e00                	lw	s0,24(a2)
 9fc:	0004                	0x4
 9fe:	0000                	unimp
 a00:	0000                	unimp
 a02:	4d00                	lw	s0,24(a0)
 a04:	000d                	c.nop	3
 a06:	0200                	addi	s0,sp,256
 a08:	0171                	addi	sp,sp,28
 a0a:	0000                	unimp
 a0c:	2802                	fld	fa6,0(sp)
 a0e:	0000391b          	0x391b
 a12:	0300                	addi	s0,sp,384
 a14:	5608                	lw	a0,40(a2)
 a16:	0001                	nop
 a18:	0200                	addi	s0,sp,256
 a1a:	0178                	addi	a4,sp,140
 a1c:	0000                	unimp
 a1e:	6302                	ld	t1,0(sp)
 a20:	2d18                	fld	fa4,24(a0)
 a22:	0000                	unimp
 a24:	0400                	addi	s0,sp,512
 a26:	0704                	addi	s1,sp,896
 a28:	007f                	0x7f
 a2a:	0000                	unimp
 a2c:	6905                	lui	s2,0x1
 a2e:	0000                	unimp
 a30:	6200                	ld	s0,0(a2)
 a32:	0000                	unimp
 a34:	0600                	addi	s0,sp,768
 a36:	0062                	c.slli	zero,0x18
 a38:	0000                	unimp
 a3a:	0010                	0x10
 a3c:	0804                	addi	s1,sp,16
 a3e:	00007a07          	0x7a07
 a42:	0400                	addi	s0,sp,512
 a44:	0801                	addi	a6,a6,0
 a46:	0075                	c.nop	29
 a48:	0000                	unimp
 a4a:	0001bd07          	fld	fs10,0(gp)
 a4e:	0100                	addi	s0,sp,128
 a50:	00520d07          	0x520d07
 a54:	0000                	unimp
 a56:	0309                	addi	t1,t1,2
 a58:	1128                	addi	a0,sp,168
 a5a:	8000                	0x8000
 a5c:	0000                	unimp
 a5e:	0000                	unimp
 a60:	f708                	sd	a0,40(a4)
 a62:	0001                	nop
 a64:	0100                	addi	s0,sp,128
 a66:	10860667          	jalr	a2,264(a2) # 1d108 <_stack_size+0x1c108>
 a6a:	8000                	0x8000
 a6c:	0000                	unimp
 a6e:	0000                	unimp
 a70:	006c                	addi	a1,sp,12
 a72:	0000                	unimp
 a74:	0000                	unimp
 a76:	0000                	unimp
 a78:	9c01                	subw	s0,s0,s0
 a7a:	000000bf 01007309 	0x1007309000000bf
 a82:	004b1b67          	0x4b1b67
 a86:	0000                	unimp
 a88:	9102                	jalr	sp
 a8a:	096c                	addi	a1,sp,156
 a8c:	0066                	c.slli	zero,0x19
 a8e:	6701                	0x6701
 a90:	bf24                	fsd	fs1,120(a4)
 a92:	0000                	unimp
 a94:	0200                	addi	s0,sp,256
 a96:	6091                	lui	ra,0x4
 a98:	0a00                	addi	s0,sp,272
 a9a:	6908                	ld	a0,16(a0)
 a9c:	0000                	unimp
 a9e:	0800                	addi	s0,sp,16
 aa0:	014e                	slli	sp,sp,0x13
 aa2:	0000                	unimp
 aa4:	5d01                	li	s10,-32
 aa6:	1006                	c.slli	zero,0x21
 aa8:	0010                	0x10
 aaa:	0080                	addi	s0,sp,64
 aac:	0000                	unimp
 aae:	7600                	ld	s0,40(a2)
 ab0:	0000                	unimp
 ab2:	0000                	unimp
 ab4:	0000                	unimp
 ab6:	0100                	addi	s0,sp,128
 ab8:	fe9c                	sd	a5,56(a3)
 aba:	0000                	unimp
 abc:	0900                	addi	s0,sp,144
 abe:	5d010073          	0x5d010073
 ac2:	00004b1b          	0x4b1b
 ac6:	0200                	addi	s0,sp,256
 ac8:	6c91                	lui	s9,0x4
 aca:	6609                	lui	a2,0x2
 acc:	0100                	addi	s0,sp,128
 ace:	245d                	addiw	s0,s0,23
 ad0:	000000bf 00609102 	0x609102000000bf
 ad8:	0002800b          	0x2800b
 adc:	0100                	addi	s0,sp,128
 ade:	0654                	addi	a3,sp,772
 ae0:	0ff8                	addi	a4,sp,988
 ae2:	8000                	0x8000
 ae4:	0000                	unimp
 ae6:	0000                	unimp
 ae8:	0018                	0x18
 aea:	0000                	unimp
 aec:	0000                	unimp
 aee:	0000                	unimp
 af0:	9c01                	subw	s0,s0,s0
 af2:	0139                	addi	sp,sp,14
 af4:	0000                	unimp
 af6:	6309                	lui	t1,0x2
 af8:	0100                	addi	s0,sp,128
 afa:	1654                	addi	a3,sp,804
 afc:	000000bf 0c689102 	0xc689102000000bf
 b04:	0180                	addi	s0,sp,192
 b06:	0000                	unimp
 b08:	5401                	li	s0,-32
 b0a:	391d                	addiw	s2,s2,-25
 b0c:	0001                	nop
 b0e:	0200                	addi	s0,sp,256
 b10:	6491                	lui	s1,0x4
 b12:	0d00                	addi	s0,sp,656
 b14:	0504                	addi	s1,sp,640
 b16:	6e69                	lui	t3,0x1a
 b18:	0074                	addi	a3,sp,12
 b1a:	e208                	sd	a0,0(a2)
 b1c:	0001                	nop
 b1e:	0100                	addi	s0,sp,128
 b20:	0629                	addi	a2,a2,10
 b22:	0e10                	addi	a2,sp,784
 b24:	8000                	0x8000
 b26:	0000                	unimp
 b28:	0000                	unimp
 b2a:	01e8                	addi	a0,sp,204
 b2c:	0000                	unimp
 b2e:	0000                	unimp
 b30:	0000                	unimp
 b32:	9c01                	subw	s0,s0,s0
 b34:	01a9                	addi	gp,gp,10
 b36:	0000                	unimp
 b38:	6609                	lui	a2,0x2
 b3a:	746d                	lui	s0,0xffffb
 b3c:	0100                	addi	s0,sp,128
 b3e:	1329                	addi	t1,t1,-22
 b40:	000000bf 7f889103 	0x7f889103000000bf
 b48:	0f0e                	slli	t5,t5,0x3
 b4a:	7061                	c.lui	zero,0xffff8
 b4c:	0100                	addi	s0,sp,128
 b4e:	0d2a                	slli	s10,s10,0xa
 b50:	0000003f 7f909103 	0x7f9091030000003f
 b58:	0100690f          	0x100690f
 b5c:	0139092b          	0x139092b
 b60:	0000                	unimp
 b62:	7fac9103          	lh	sp,2042(s9) # 47fa <_stack_size+0x37fa>
 b66:	0100630f          	0x100630f
 b6a:	01390c2b          	0x1390c2b
 b6e:	0000                	unimp
 b70:	7f9c9103          	lh	sp,2041(s9)
 b74:	0100730f          	0x100730f
 b78:	0b2c                	addi	a1,sp,408
 b7a:	000000bf 7fa09103 	0x7fa09103000000bf
 b82:	1000                	addi	s0,sp,32
 b84:	01e9                	addi	gp,gp,26
 b86:	0000                	unimp
 b88:	1f01                	addi	t5,t5,-32
 b8a:	a00d                	j	bac <_stack_size-0x454>
 b8c:	000d                	c.nop	3
 b8e:	0080                	addi	s0,sp,64
 b90:	0000                	unimp
 b92:	7000                	ld	s0,32(s0)
 b94:	0000                	unimp
 b96:	0000                	unimp
 b98:	0000                	unimp
 b9a:	0100                	addi	s0,sp,128
 b9c:	e29c                	sd	a5,0(a3)
 b9e:	0001                	nop
 ba0:	0900                	addi	s0,sp,144
 ba2:	0078                	addi	a4,sp,12
 ba4:	1f01                	addi	t5,t5,-32
 ba6:	391a                	fld	fs2,416(sp)
 ba8:	0001                	nop
 baa:	0200                	addi	s0,sp,256
 bac:	5c91                	li	s9,-28
 bae:	0100690f          	0x100690f
 bb2:	0920                	addi	s0,sp,152
 bb4:	0139                	addi	sp,sp,14
 bb6:	0000                	unimp
 bb8:	9102                	jalr	sp
 bba:	006c                	addi	a1,sp,12
 bbc:	8510                	0x8510
 bbe:	0001                	nop
 bc0:	0100                	addi	s0,sp,128
 bc2:	0d09                	addi	s10,s10,2
 bc4:	0ca4                	addi	s1,sp,600
 bc6:	8000                	0x8000
 bc8:	0000                	unimp
 bca:	0000                	unimp
 bcc:	00fc                	addi	a5,sp,76
 bce:	0000                	unimp
 bd0:	0000                	unimp
 bd2:	0000                	unimp
 bd4:	9c01                	subw	s0,s0,s0
 bd6:	0256                	slli	tp,tp,0x15
 bd8:	0000                	unimp
 bda:	7809                	lui	a6,0xfffe2
 bdc:	0078                	addi	a4,sp,12
 bde:	0901                	addi	s2,s2,0
 be0:	391a                	fld	fs2,416(sp)
 be2:	0001                	nop
 be4:	0200                	addi	s0,sp,256
 be6:	4c91                	li	s9,4
 be8:	a90c                	fsd	fa1,16(a0)
 bea:	0001                	nop
 bec:	0100                	addi	s0,sp,128
 bee:	2209                	addiw	tp,tp,2
 bf0:	0139                	addi	sp,sp,14
 bf2:	0000                	unimp
 bf4:	9102                	jalr	sp
 bf6:	0c48                	addi	a0,sp,532
 bf8:	01d8                	addi	a4,sp,196
 bfa:	0000                	unimp
 bfc:	0901                	addi	s2,s2,0
 bfe:	392c                	fld	fa1,112(a0)
 c00:	0001                	nop
 c02:	0200                	addi	s0,sp,256
 c04:	4491                	li	s1,4
 c06:	6675620f          	0x6675620f
 c0a:	0100                	addi	s0,sp,128
 c0c:	0a0a                	slli	s4,s4,0x2
 c0e:	0256                	slli	tp,tp,0x15
 c10:	0000                	unimp
 c12:	9102                	jalr	sp
 c14:	0f58                	addi	a4,sp,916
 c16:	0069                	c.nop	26
 c18:	0b01                	addi	s6,s6,0
 c1a:	3909                	addiw	s2,s2,-30
 c1c:	0001                	nop
 c1e:	0200                	addi	s0,sp,256
 c20:	6c91                	lui	s9,0x4
 c22:	0100780f          	0x100780f
 c26:	090c                	addi	a1,sp,144
 c28:	0139                	addi	sp,sp,14
 c2a:	0000                	unimp
 c2c:	9102                	jalr	sp
 c2e:	0068                	addi	a0,sp,12
 c30:	6911                	lui	s2,0x4
 c32:	0000                	unimp
 c34:	0600                	addi	s0,sp,768
 c36:	0062                	c.slli	zero,0x18
 c38:	0000                	unimp
 c3a:	          	fence	unknown,unknown

Disassembly of section .debug_abbrev:

0000000000000000 <.debug_abbrev>:
   0:	1101                	addi	sp,sp,-32
   2:	1000                	addi	s0,sp,32
   4:	1106                	slli	sp,sp,0x21
   6:	1201                	addi	tp,tp,-32
   8:	0301                	addi	t1,t1,0
   a:	1b0e                	slli	s6,s6,0x23
   c:	250e                	fld	fa0,192(sp)
   e:	130e                	slli	t1,t1,0x23
  10:	0005                	c.nop	1
  12:	0000                	unimp
  14:	1101                	addi	sp,sp,-32
  16:	1000                	addi	s0,sp,32
  18:	1106                	slli	sp,sp,0x21
  1a:	1201                	addi	tp,tp,-32
  1c:	0301                	addi	t1,t1,0
  1e:	1b0e                	slli	s6,s6,0x23
  20:	250e                	fld	fa0,192(sp)
  22:	130e                	slli	t1,t1,0x23
  24:	0005                	c.nop	1
  26:	0000                	unimp
  28:	1101                	addi	sp,sp,-32
  2a:	2501                	sext.w	a0,a0
  2c:	130e                	slli	t1,t1,0x23
  2e:	1b0e030b          	0x1b0e030b
  32:	110e                	slli	sp,sp,0x23
  34:	1201                	addi	tp,tp,-32
  36:	00171007          	0x171007
  3a:	0200                	addi	s0,sp,256
  3c:	0024                	addi	s1,sp,8
  3e:	0b3e0b0b          	0xb3e0b0b
  42:	00000e03          	lb	t3,0(zero) # 0 <_stack_size-0x1000>
  46:	0b002403          	lw	s0,176(zero) # b0 <_stack_size-0xf50>
  4a:	030b3e0b          	0x30b3e0b
  4e:	0008                	0x8
  50:	0400                	addi	s0,sp,512
  52:	0016                	c.slli	zero,0x5
  54:	0b3a0e03          	lb	t3,179(s4)
  58:	0b390b3b          	0xb390b3b
  5c:	1349                	addi	t1,t1,-14
  5e:	0000                	unimp
  60:	2e05                	addiw	t3,t3,1
  62:	3f00                	fld	fs0,56(a4)
  64:	0319                	addi	t1,t1,6
  66:	3a0e                	fld	fs4,224(sp)
  68:	390b3b0b          	0x390b3b0b
  6c:	1201110b          	0x1201110b
  70:	97184007          	flq	ft0,-1679(a6) # fffffffffffe1971 <_estack+0xffffffff7ffdf831>
  74:	1942                	slli	s2,s2,0x30
  76:	0000                	unimp
  78:	2e06                	fld	ft8,64(sp)
  7a:	3f01                	addiw	t5,t5,-32
  7c:	0319                	addi	t1,t1,6
  7e:	3a0e                	fld	fs4,224(sp)
  80:	390b3b0b          	0x390b3b0b
  84:	1201110b          	0x1201110b
  88:	96184007          	flq	ft0,-1695(a6)
  8c:	1942                	slli	s2,s2,0x30
  8e:	1301                	addi	t1,t1,-32
  90:	0000                	unimp
  92:	03003407          	fld	fs0,48(zero) # 30 <_stack_size-0xfd0>
  96:	3a08                	fld	fa0,48(a2)
  98:	390b3b0b          	0x390b3b0b
  9c:	0213490b          	0x213490b
  a0:	0018                	0x18
  a2:	0800                	addi	s0,sp,16
  a4:	012e                	slli	sp,sp,0xb
  a6:	0b3a0e03          	lb	t3,179(s4)
  aa:	0b390b3b          	0xb390b3b
  ae:	01111927          	0x1111927
  b2:	0712                	slli	a4,a4,0x4
  b4:	1840                	addi	s0,sp,52
  b6:	01194297          	auipc	t0,0x1194
  ba:	09000013          	li	zero,144
  be:	0005                	c.nop	1
  c0:	0b3a0803          	lb	a6,179(s4)
  c4:	0b390b3b          	0xb390b3b
  c8:	1349                	addi	t1,t1,-14
  ca:	1802                	slli	a6,a6,0x20
  cc:	0000                	unimp
  ce:	2e0a                	fld	ft8,128(sp)
  d0:	0301                	addi	t1,t1,0
  d2:	3a0e                	fld	fs4,224(sp)
  d4:	390b3b0b          	0x390b3b0b
  d8:	1113490b          	0x1113490b
  dc:	1201                	addi	tp,tp,-32
  de:	97184007          	flq	ft0,-1679(a6)
  e2:	1942                	slli	s2,s2,0x30
  e4:	0000                	unimp
  e6:	0100                	addi	s0,sp,128
  e8:	0111                	addi	sp,sp,4
  ea:	0e25                	addi	t3,t3,9
  ec:	0e030b13          	addi	s6,t1,224 # 20e0 <_stack_size+0x10e0>
  f0:	01110e1b          	addiw	t3,sp,17
  f4:	0712                	slli	a4,a4,0x4
  f6:	1710                	addi	a2,sp,928
  f8:	0000                	unimp
  fa:	1602                	slli	a2,a2,0x20
  fc:	0300                	addi	s0,sp,384
  fe:	3a0e                	fld	fs4,224(sp)
 100:	390b3b0b          	0x390b3b0b
 104:	0013490b          	0x13490b
 108:	0300                	addi	s0,sp,384
 10a:	0b0b000f          	0xb0b000f
 10e:	00000e03          	lb	t3,0(zero) # 0 <_stack_size-0x1000>
 112:	2404                	fld	fs1,8(s0)
 114:	0b00                	addi	s0,sp,400
 116:	030b3e0b          	0x30b3e0b
 11a:	000e                	c.slli	zero,0x3
 11c:	0500                	addi	s0,sp,640
 11e:	0101                	addi	sp,sp,0
 120:	1349                	addi	t1,t1,-14
 122:	1301                	addi	t1,t1,-32
 124:	0000                	unimp
 126:	2106                	fld	ft2,64(sp)
 128:	4900                	lw	s0,16(a0)
 12a:	000b2f13          	slti	t5,s6,0
 12e:	0700                	addi	s0,sp,896
 130:	0026                	c.slli	zero,0x9
 132:	1349                	addi	t1,t1,-14
 134:	0000                	unimp
 136:	3408                	fld	fa0,40(s0)
 138:	0300                	addi	s0,sp,384
 13a:	3a0e                	fld	fs4,224(sp)
 13c:	390b3b0b          	0x390b3b0b
 140:	0213490b          	0x213490b
 144:	0018                	0x18
 146:	0900                	addi	s0,sp,144
 148:	012e                	slli	sp,sp,0xb
 14a:	0e03193f 0b3b0b3a 	0xb3b0b3a0e03193f
 152:	0b39                	addi	s6,s6,14
 154:	01111927          	0x1111927
 158:	0712                	slli	a4,a4,0x4
 15a:	1840                	addi	s0,sp,52
 15c:	4296                	lw	t0,68(sp)
 15e:	0119                	addi	sp,sp,6
 160:	0a000013          	li	zero,160
 164:	0005                	c.nop	1
 166:	0b3a0803          	lb	a6,179(s4)
 16a:	0b390b3b          	0xb390b3b
 16e:	1349                	addi	t1,t1,-14
 170:	1802                	slli	a6,a6,0x20
 172:	0000                	unimp
 174:	0000180b          	0x180b
 178:	0c00                	addi	s0,sp,528
 17a:	0034                	addi	a3,sp,8
 17c:	0b3a0803          	lb	a6,179(s4)
 180:	0b390b3b          	0xb390b3b
 184:	1349                	addi	t1,t1,-14
 186:	1802                	slli	a6,a6,0x20
 188:	0000                	unimp
 18a:	0f0d                	addi	t5,t5,3
 18c:	0b00                	addi	s0,sp,400
 18e:	0013490b          	0x13490b
 192:	0e00                	addi	s0,sp,784
 194:	0024                	addi	s1,sp,8
 196:	0b3e0b0b          	0xb3e0b0b
 19a:	00000803          	lb	a6,0(zero) # 0 <_stack_size-0x1000>
 19e:	03012e0f          	0x3012e0f
 1a2:	3a0e                	fld	fs4,224(sp)
 1a4:	390b3b0b          	0x390b3b0b
 1a8:	1119270b          	0x1119270b
 1ac:	1201                	addi	tp,tp,-32
 1ae:	96184007          	flq	ft0,-1695(a6)
 1b2:	1942                	slli	s2,s2,0x30
 1b4:	1301                	addi	t1,t1,-32
 1b6:	0000                	unimp
 1b8:	0510                	addi	a2,sp,640
 1ba:	0300                	addi	s0,sp,384
 1bc:	3a0e                	fld	fs4,224(sp)
 1be:	390b3b0b          	0x390b3b0b
 1c2:	0213490b          	0x213490b
 1c6:	0018                	0x18
 1c8:	1100                	addi	s0,sp,160
 1ca:	0111010b          	0x111010b
 1ce:	0712                	slli	a4,a4,0x4
 1d0:	0000                	unimp
 1d2:	2e12                	fld	ft8,256(sp)
 1d4:	3f00                	fld	fs0,56(a4)
 1d6:	0319                	addi	t1,t1,6
 1d8:	3a0e                	fld	fs4,224(sp)
 1da:	390b3b0b          	0x390b3b0b
 1de:	1113490b          	0x1113490b
 1e2:	1201                	addi	tp,tp,-32
 1e4:	97184007          	flq	ft0,-1679(a6)
 1e8:	1942                	slli	s2,s2,0x30
 1ea:	0000                	unimp
 1ec:	3f012e13          	slti	t3,sp,1008
 1f0:	0319                	addi	t1,t1,6
 1f2:	3a0e                	fld	fs4,224(sp)
 1f4:	390b3b0b          	0x390b3b0b
 1f8:	1119270b          	0x1119270b
 1fc:	1201                	addi	tp,tp,-32
 1fe:	97184007          	flq	ft0,-1679(a6)
 202:	1942                	slli	s2,s2,0x30
 204:	1301                	addi	t1,t1,-32
 206:	0000                	unimp
 208:	2e14                	fld	fa3,24(a2)
 20a:	3f00                	fld	fs0,56(a4)
 20c:	0319                	addi	t1,t1,6
 20e:	3a0e                	fld	fs4,224(sp)
 210:	390b3b0b          	0x390b3b0b
 214:	1201110b          	0x1201110b
 218:	97184007          	flq	ft0,-1679(a6)
 21c:	1942                	slli	s2,s2,0x30
 21e:	0000                	unimp
 220:	0100                	addi	s0,sp,128
 222:	0111                	addi	sp,sp,4
 224:	0e25                	addi	t3,t3,9
 226:	0e030b13          	addi	s6,t1,224
 22a:	01110e1b          	addiw	t3,sp,17
 22e:	0712                	slli	a4,a4,0x4
 230:	1710                	addi	a2,sp,928
 232:	0000                	unimp
 234:	2e02                	fld	ft8,0(sp)
 236:	3f01                	addiw	t5,t5,-32
 238:	0319                	addi	t1,t1,6
 23a:	3a0e                	fld	fs4,224(sp)
 23c:	390b3b0b          	0x390b3b0b
 240:	4919270b          	0x4919270b
 244:	12011113          	0x12011113
 248:	96184007          	flq	ft0,-1695(a6)
 24c:	1942                	slli	s2,s2,0x30
 24e:	1301                	addi	t1,t1,-32
 250:	0000                	unimp
 252:	03000503          	lb	a0,48(zero) # 30 <_stack_size-0xfd0>
 256:	3a08                	fld	fa0,48(a2)
 258:	390b3b0b          	0x390b3b0b
 25c:	0213490b          	0x213490b
 260:	0018                	0x18
 262:	0400                	addi	s0,sp,512
 264:	0111010b          	0x111010b
 268:	0712                	slli	a4,a4,0x4
 26a:	0000                	unimp
 26c:	3405                	addiw	s0,s0,-31
 26e:	0300                	addi	s0,sp,384
 270:	3a08                	fld	fa0,48(a2)
 272:	390b3b0b          	0x390b3b0b
 276:	0213490b          	0x213490b
 27a:	0018                	0x18
 27c:	0600                	addi	s0,sp,768
 27e:	0b0b000f          	0xb0b000f
 282:	1349                	addi	t1,t1,-14
 284:	0000                	unimp
 286:	0b002407          	flw	fs0,176(zero) # b0 <_stack_size-0xf50>
 28a:	030b3e0b          	0x30b3e0b
 28e:	000e                	c.slli	zero,0x3
 290:	0800                	addi	s0,sp,16
 292:	0024                	addi	s1,sp,8
 294:	0b3e0b0b          	0xb3e0b0b
 298:	00000803          	lb	a6,0(zero) # 0 <_stack_size-0x1000>
 29c:	2e09                	addiw	t3,t3,2
 29e:	3f01                	addiw	t5,t5,-32
 2a0:	0319                	addi	t1,t1,6
 2a2:	3a0e                	fld	fs4,224(sp)
 2a4:	390b3b0b          	0x390b3b0b
 2a8:	4919270b          	0x4919270b
 2ac:	12011113          	0x12011113
 2b0:	97184007          	flq	ft0,-1679(a6)
 2b4:	1942                	slli	s2,s2,0x30
 2b6:	1301                	addi	t1,t1,-32
 2b8:	0000                	unimp
 2ba:	2e0a                	fld	ft8,128(sp)
 2bc:	3f01                	addiw	t5,t5,-32
 2be:	0319                	addi	t1,t1,6
 2c0:	3a0e                	fld	fs4,224(sp)
 2c2:	390b3b0b          	0x390b3b0b
 2c6:	4919270b          	0x4919270b
 2ca:	12011113          	0x12011113
 2ce:	97184007          	flq	ft0,-1679(a6)
 2d2:	1942                	slli	s2,s2,0x30
 2d4:	0000                	unimp
 2d6:	0100                	addi	s0,sp,128
 2d8:	0111                	addi	sp,sp,4
 2da:	0e25                	addi	t3,t3,9
 2dc:	0e030b13          	addi	s6,t1,224
 2e0:	01110e1b          	addiw	t3,sp,17
 2e4:	0712                	slli	a4,a4,0x4
 2e6:	1710                	addi	a2,sp,928
 2e8:	0000                	unimp
 2ea:	2e02                	fld	ft8,0(sp)
 2ec:	3f01                	addiw	t5,t5,-32
 2ee:	0319                	addi	t1,t1,6
 2f0:	3a0e                	fld	fs4,224(sp)
 2f2:	390b3b0b          	0x390b3b0b
 2f6:	4919270b          	0x4919270b
 2fa:	12011113          	0x12011113
 2fe:	97184007          	flq	ft0,-1679(a6)
 302:	1942                	slli	s2,s2,0x30
 304:	1301                	addi	t1,t1,-32
 306:	0000                	unimp
 308:	03000503          	lb	a0,48(zero) # 30 <_stack_size-0xfd0>
 30c:	3a08                	fld	fa0,48(a2)
 30e:	390b3b0b          	0x390b3b0b
 312:	0213490b          	0x213490b
 316:	0018                	0x18
 318:	0400                	addi	s0,sp,512
 31a:	0024                	addi	s1,sp,8
 31c:	0b3e0b0b          	0xb3e0b0b
 320:	00000803          	lb	a6,0(zero) # 0 <_stack_size-0x1000>
 324:	0f05                	addi	t5,t5,1
 326:	0b00                	addi	s0,sp,400
 328:	0013490b          	0x13490b
 32c:	0600                	addi	s0,sp,768
 32e:	0024                	addi	s1,sp,8
 330:	0b3e0b0b          	0xb3e0b0b
 334:	00000e03          	lb	t3,0(zero) # 0 <_stack_size-0x1000>
 338:	49002607          	flw	fa2,1168(zero) # 490 <_stack_size-0xb70>
 33c:	08000013          	li	zero,128
 340:	012e                	slli	sp,sp,0xb
 342:	0e03193f 0b3b0b3a 	0xb3b0b3a0e03193f
 34a:	0b39                	addi	s6,s6,14
 34c:	13491927          	0x13491927
 350:	0111                	addi	sp,sp,4
 352:	0712                	slli	a4,a4,0x4
 354:	1840                	addi	s0,sp,52
 356:	4296                	lw	t0,68(sp)
 358:	0119                	addi	sp,sp,6
 35a:	09000013          	li	zero,144
 35e:	0005                	c.nop	1
 360:	0b3a0e03          	lb	t3,179(s4)
 364:	0b390b3b          	0xb390b3b
 368:	1349                	addi	t1,t1,-14
 36a:	1802                	slli	a6,a6,0x20
 36c:	0000                	unimp
 36e:	340a                	fld	fs0,160(sp)
 370:	0300                	addi	s0,sp,384
 372:	3a08                	fld	fa0,48(a2)
 374:	390b3b0b          	0x390b3b0b
 378:	0213490b          	0x213490b
 37c:	0018                	0x18
 37e:	0b00                	addi	s0,sp,400
 380:	012e                	slli	sp,sp,0xb
 382:	0e03193f 0b3b0b3a 	0xb3b0b3a0e03193f
 38a:	0b39                	addi	s6,s6,14
 38c:	13491927          	0x13491927
 390:	0111                	addi	sp,sp,4
 392:	0712                	slli	a4,a4,0x4
 394:	1840                	addi	s0,sp,52
 396:	00194297          	auipc	t0,0x194
 39a:	0000                	unimp
 39c:	1101                	addi	sp,sp,-32
 39e:	2501                	sext.w	a0,a0
 3a0:	130e                	slli	t1,t1,0x23
 3a2:	1b0e030b          	0x1b0e030b
 3a6:	110e                	slli	sp,sp,0x23
 3a8:	1201                	addi	tp,tp,-32
 3aa:	00171007          	0x171007
 3ae:	0200                	addi	s0,sp,256
 3b0:	0024                	addi	s1,sp,8
 3b2:	0b3e0b0b          	0xb3e0b0b
 3b6:	00000e03          	lb	t3,0(zero) # 0 <_stack_size-0x1000>
 3ba:	3f012e03          	lw	t3,1008(sp)
 3be:	0319                	addi	t1,t1,6
 3c0:	3a0e                	fld	fs4,224(sp)
 3c2:	390b3b0b          	0x390b3b0b
 3c6:	1119270b          	0x1119270b
 3ca:	1201                	addi	tp,tp,-32
 3cc:	96184007          	flq	ft0,-1695(a6)
 3d0:	1942                	slli	s2,s2,0x30
 3d2:	1301                	addi	t1,t1,-32
 3d4:	0000                	unimp
 3d6:	0504                	addi	s1,sp,640
 3d8:	0300                	addi	s0,sp,384
 3da:	3a08                	fld	fa0,48(a2)
 3dc:	390b3b0b          	0x390b3b0b
 3e0:	0213490b          	0x213490b
 3e4:	0018                	0x18
 3e6:	0500                	addi	s0,sp,640
 3e8:	0005                	c.nop	1
 3ea:	0b3a0e03          	lb	t3,179(s4)
 3ee:	0b390b3b          	0xb390b3b
 3f2:	1349                	addi	t1,t1,-14
 3f4:	1802                	slli	a6,a6,0x20
 3f6:	0000                	unimp
 3f8:	0b06                	slli	s6,s6,0x1
 3fa:	1101                	addi	sp,sp,-32
 3fc:	1201                	addi	tp,tp,-32
 3fe:	07000007          	0x7000007
 402:	0034                	addi	a3,sp,8
 404:	0b3a0803          	lb	a6,179(s4)
 408:	0b390b3b          	0xb390b3b
 40c:	1349                	addi	t1,t1,-14
 40e:	1802                	slli	a6,a6,0x20
 410:	0000                	unimp
 412:	0f08                	addi	a0,sp,912
 414:	0b00                	addi	s0,sp,400
 416:	0013490b          	0x13490b
 41a:	0900                	addi	s0,sp,144
 41c:	0024                	addi	s1,sp,8
 41e:	0b3e0b0b          	0xb3e0b0b
 422:	00000803          	lb	a6,0(zero) # 0 <_stack_size-0x1000>
 426:	2e0a                	fld	ft8,128(sp)
 428:	3f01                	addiw	t5,t5,-32
 42a:	0319                	addi	t1,t1,6
 42c:	3a0e                	fld	fs4,224(sp)
 42e:	390b3b0b          	0x390b3b0b
 432:	4919270b          	0x4919270b
 436:	12011113          	0x12011113
 43a:	96184007          	flq	ft0,-1695(a6)
 43e:	1942                	slli	s2,s2,0x30
 440:	0000                	unimp
 442:	0100                	addi	s0,sp,128
 444:	0111                	addi	sp,sp,4
 446:	0e25                	addi	t3,t3,9
 448:	0e030b13          	addi	s6,t1,224
 44c:	01110e1b          	addiw	t3,sp,17
 450:	0712                	slli	a4,a4,0x4
 452:	1710                	addi	a2,sp,928
 454:	0000                	unimp
 456:	1602                	slli	a2,a2,0x20
 458:	0300                	addi	s0,sp,384
 45a:	3a0e                	fld	fs4,224(sp)
 45c:	390b3b0b          	0x390b3b0b
 460:	0013490b          	0x13490b
 464:	0300                	addi	s0,sp,384
 466:	0b0b000f          	0xb0b000f
 46a:	00000e03          	lb	t3,0(zero) # 0 <_stack_size-0x1000>
 46e:	2404                	fld	fs1,8(s0)
 470:	0b00                	addi	s0,sp,400
 472:	030b3e0b          	0x30b3e0b
 476:	000e                	c.slli	zero,0x3
 478:	0500                	addi	s0,sp,640
 47a:	0101                	addi	sp,sp,0
 47c:	1349                	addi	t1,t1,-14
 47e:	1301                	addi	t1,t1,-32
 480:	0000                	unimp
 482:	2106                	fld	ft2,64(sp)
 484:	4900                	lw	s0,16(a0)
 486:	000b2f13          	slti	t5,s6,0
 48a:	0700                	addi	s0,sp,896
 48c:	0034                	addi	a3,sp,8
 48e:	0b3a0e03          	lb	t3,179(s4)
 492:	0b390b3b          	0xb390b3b
 496:	1349                	addi	t1,t1,-14
 498:	1802                	slli	a6,a6,0x20
 49a:	0000                	unimp
 49c:	2e08                	fld	fa0,24(a2)
 49e:	3f01                	addiw	t5,t5,-32
 4a0:	0319                	addi	t1,t1,6
 4a2:	3a0e                	fld	fs4,224(sp)
 4a4:	390b3b0b          	0x390b3b0b
 4a8:	1119270b          	0x1119270b
 4ac:	1201                	addi	tp,tp,-32
 4ae:	96184007          	flq	ft0,-1695(a6)
 4b2:	1942                	slli	s2,s2,0x30
 4b4:	1301                	addi	t1,t1,-32
 4b6:	0000                	unimp
 4b8:	0509                	addi	a0,a0,2
 4ba:	0300                	addi	s0,sp,384
 4bc:	3a08                	fld	fa0,48(a2)
 4be:	390b3b0b          	0x390b3b0b
 4c2:	0213490b          	0x213490b
 4c6:	0018                	0x18
 4c8:	0a00                	addi	s0,sp,272
 4ca:	0b0b000f          	0xb0b000f
 4ce:	1349                	addi	t1,t1,-14
 4d0:	0000                	unimp
 4d2:	3f012e0b          	0x3f012e0b
 4d6:	0319                	addi	t1,t1,6
 4d8:	3a0e                	fld	fs4,224(sp)
 4da:	390b3b0b          	0x390b3b0b
 4de:	1119270b          	0x1119270b
 4e2:	1201                	addi	tp,tp,-32
 4e4:	97184007          	flq	ft0,-1679(a6)
 4e8:	1942                	slli	s2,s2,0x30
 4ea:	1301                	addi	t1,t1,-32
 4ec:	0000                	unimp
 4ee:	050c                	addi	a1,sp,640
 4f0:	0300                	addi	s0,sp,384
 4f2:	3a0e                	fld	fs4,224(sp)
 4f4:	390b3b0b          	0x390b3b0b
 4f8:	0213490b          	0x213490b
 4fc:	0018                	0x18
 4fe:	0d00                	addi	s0,sp,656
 500:	0024                	addi	s1,sp,8
 502:	0b3e0b0b          	0xb3e0b0b
 506:	00000803          	lb	a6,0(zero) # 0 <_stack_size-0x1000>
 50a:	180e                	slli	a6,a6,0x23
 50c:	0000                	unimp
 50e:	0f00                	addi	s0,sp,912
 510:	0034                	addi	a3,sp,8
 512:	0b3a0803          	lb	a6,179(s4)
 516:	0b390b3b          	0xb390b3b
 51a:	1349                	addi	t1,t1,-14
 51c:	1802                	slli	a6,a6,0x20
 51e:	0000                	unimp
 520:	2e10                	fld	fa2,24(a2)
 522:	0301                	addi	t1,t1,0
 524:	3a0e                	fld	fs4,224(sp)
 526:	390b3b0b          	0x390b3b0b
 52a:	1119270b          	0x1119270b
 52e:	1201                	addi	tp,tp,-32
 530:	96184007          	flq	ft0,-1695(a6)
 534:	1942                	slli	s2,s2,0x30
 536:	1301                	addi	t1,t1,-32
 538:	0000                	unimp
 53a:	0111                	addi	sp,sp,4
 53c:	4901                	li	s2,0
 53e:	00000013          	nop

Disassembly of section .debug_aranges:

0000000000000000 <.debug_aranges>:
   0:	002c                	addi	a1,sp,8
   2:	0000                	unimp
   4:	0002                	c.slli64	zero
   6:	0000                	unimp
   8:	0000                	unimp
   a:	0008                	0x8
   c:	0000                	unimp
   e:	0000                	unimp
  10:	0000                	unimp
  12:	8000                	0x8000
  14:	0000                	unimp
  16:	0000                	unimp
  18:	000e                	c.slli	zero,0x3
	...
  2e:	0000                	unimp
  30:	002c                	addi	a1,sp,8
  32:	0000                	unimp
  34:	0002                	c.slli64	zero
  36:	002e                	c.slli	zero,0xb
  38:	0000                	unimp
  3a:	0008                	0x8
  3c:	0000                	unimp
  3e:	0000                	unimp
  40:	0010                	0x10
  42:	8000                	0x8000
  44:	0000                	unimp
  46:	0000                	unimp
  48:	0002                	c.slli64	zero
	...
  5e:	0000                	unimp
  60:	002c                	addi	a1,sp,8
  62:	0000                	unimp
  64:	0002                	c.slli64	zero
  66:	005c                	addi	a5,sp,4
  68:	0000                	unimp
  6a:	0008                	0x8
  6c:	0000                	unimp
  6e:	0000                	unimp
  70:	0012                	c.slli	zero,0x4
  72:	8000                	0x8000
  74:	0000                	unimp
  76:	0000                	unimp
  78:	00d0                	addi	a2,sp,68
	...
  8e:	0000                	unimp
  90:	002c                	addi	a1,sp,8
  92:	0000                	unimp
  94:	0002                	c.slli64	zero
  96:	01c4                	addi	s1,sp,196
  98:	0000                	unimp
  9a:	0008                	0x8
  9c:	0000                	unimp
  9e:	0000                	unimp
  a0:	00e2                	slli	ra,ra,0x18
  a2:	8000                	0x8000
  a4:	0000                	unimp
  a6:	0000                	unimp
  a8:	06d0                	addi	a2,sp,836
	...
  be:	0000                	unimp
  c0:	002c                	addi	a1,sp,8
  c2:	0000                	unimp
  c4:	0002                	c.slli64	zero
  c6:	05a2                	slli	a1,a1,0x8
  c8:	0000                	unimp
  ca:	0008                	0x8
  cc:	0000                	unimp
  ce:	0000                	unimp
  d0:	07b2                	slli	a5,a5,0xc
  d2:	8000                	0x8000
  d4:	0000                	unimp
  d6:	0000                	unimp
  d8:	01c2                	slli	gp,gp,0x10
	...
  ee:	0000                	unimp
  f0:	002c                	addi	a1,sp,8
  f2:	0000                	unimp
  f4:	0002                	c.slli64	zero
  f6:	0719                	addi	a4,a4,6
  f8:	0000                	unimp
  fa:	0008                	0x8
  fc:	0000                	unimp
  fe:	0000                	unimp
 100:	0974                	addi	a3,sp,156
 102:	8000                	0x8000
 104:	0000                	unimp
 106:	0000                	unimp
 108:	025a                	slli	tp,tp,0x16
	...
 11e:	0000                	unimp
 120:	002c                	addi	a1,sp,8
 122:	0000                	unimp
 124:	0002                	c.slli64	zero
 126:	0909                	addi	s2,s2,2
 128:	0000                	unimp
 12a:	0008                	0x8
 12c:	0000                	unimp
 12e:	0000                	unimp
 130:	0bce                	slli	s7,s7,0x13
 132:	8000                	0x8000
 134:	0000                	unimp
 136:	0000                	unimp
 138:	00d6                	slli	ra,ra,0x15
	...
 14e:	0000                	unimp
 150:	002c                	addi	a1,sp,8
 152:	0000                	unimp
 154:	0002                	c.slli64	zero
 156:	09da                	slli	s3,s3,0x16
 158:	0000                	unimp
 15a:	0008                	0x8
 15c:	0000                	unimp
 15e:	0000                	unimp
 160:	0ca4                	addi	s1,sp,600
 162:	8000                	0x8000
 164:	0000                	unimp
 166:	0000                	unimp
 168:	044e                	slli	s0,s0,0x13
	...

Disassembly of section .debug_str:

0000000000000000 <.debug_str>:
   0:	72617473          	csrrci	s0,0x726,2
   4:	7574                	ld	a3,232(a0)
   6:	2e70                	fld	fa2,216(a2)
   8:	552f0073          	0x552f0073
   c:	73726573          	csrrsi	a0,0x737,4
  10:	646e612f          	0x646e612f
  14:	6572                	ld	a0,280(sp)
  16:	65687377          	0x65687377
  1a:	2f6e                	fld	ft10,216(sp)
  1c:	6f44                	ld	s1,152(a4)
  1e:	656d7563          	bgeu	s10,s6,668 <_stack_size-0x998>
  22:	746e                	ld	s0,248(sp)
  24:	72702f73          	csrr	t5,0x727
  28:	6d69                	lui	s10,0x1a
  2a:	7365                	lui	t1,0xffff9
  2c:	3032                	fld	ft0,296(sp)
  2e:	3931                	addiw	s2,s2,-20
  30:	67656c2f          	0x67656c2f
  34:	722f534f          	fnmadd.d	ft6,ft10,ft2,fa4,unknown
  38:	7369                	lui	t1,0xffffa
  3a:	47007663          	bgeu	zero,a6,4a6 <_stack_size-0xb5a>
  3e:	554e                	lw	a0,240(sp)
  40:	4120                	lw	s0,64(a0)
  42:	2e322053          	0x2e322053
  46:	6b003233          	0x6b003233
  4a:	7265                	lui	tp,0xffff9
  4c:	656e                	ld	a0,216(sp)
  4e:	766c                	ld	a1,232(a2)
  50:	6365                	lui	t1,0x19
  52:	732e                	ld	t1,232(sp)
  54:	6b00                	ld	s0,16(a4)
  56:	7265                	lui	tp,0xffff9
  58:	656e                	ld	a0,216(sp)
  5a:	2e6c                	fld	fa1,216(a2)
  5c:	69750063          	beq	a0,s7,6dc <_stack_size-0x924>
  60:	746e                	ld	s0,248(sp)
  62:	3436                	fld	fs0,360(sp)
  64:	745f 7500 6573      	0x65737500745f
  6a:	0072                	c.slli	zero,0x1c
  6c:	6e75                	lui	t3,0x1d
  6e:	6e676973          	csrrsi	s2,0x6e6,14
  72:	6465                	lui	s0,0x19
  74:	6320                	ld	s0,64(a4)
  76:	6168                	ld	a0,192(a0)
  78:	0072                	c.slli	zero,0x1c
  7a:	6f6c                	ld	a1,216(a4)
  7c:	676e                	ld	a4,216(sp)
  7e:	7520                	ld	s0,104(a0)
  80:	736e                	ld	t1,248(sp)
  82:	6769                	lui	a4,0x1a
  84:	656e                	ld	a0,216(sp)
  86:	2064                	fld	fs1,192(s0)
  88:	6e69                	lui	t3,0x1a
  8a:	0074                	addi	a3,sp,12
  8c:	726f6873          	csrrsi	a6,0x726,30
  90:	2074                	fld	fa3,192(s0)
  92:	6e75                	lui	t3,0x1d
  94:	6e676973          	csrrsi	s2,0x6e6,14
  98:	6465                	lui	s0,0x19
  9a:	6920                	ld	s0,80(a0)
  9c:	746e                	ld	s0,248(sp)
  9e:	6d00                	ld	s0,24(a0)
  a0:	6961                	lui	s2,0x18
  a2:	006e                	c.slli	zero,0x1b
  a4:	736d5f77          	0x736d5f77
  a8:	6174                	ld	a3,192(a0)
  aa:	7574                	ld	a3,232(a0)
  ac:	4e470073          	0x4e470073
  b0:	2055                	0x2055
  b2:	20373143          	fmadd.s	ft2,fa4,ft3,ft4,rup
  b6:	2e39                	addiw	t3,t3,14
  b8:	2e32                	fld	ft8,264(sp)
  ba:	2030                	fld	fa2,64(s0)
  bc:	6d2d                	lui	s10,0xb
  be:	646f6d63          	bltu	t5,t1,718 <_stack_size-0x8e8>
  c2:	6c65                	lui	s8,0x19
  c4:	6d3d                	lui	s10,0xf
  c6:	6465                	lui	s0,0x19
  c8:	6e61                	lui	t3,0x18
  ca:	2079                	0x2079
  cc:	6d2d                	lui	s10,0xb
  ce:	7574                	ld	a3,232(a0)
  d0:	656e                	ld	a0,216(sp)
  d2:	723d                	lui	tp,0xfffef
  d4:	656b636f          	jal	t1,b672a <_stack_size+0xb572a>
  d8:	2074                	fld	fa3,192(s0)
  da:	6d2d                	lui	s10,0xb
  dc:	7261                	lui	tp,0xffff8
  de:	723d6863          	bltu	s10,gp,80e <_stack_size-0x7f2>
  e2:	3676                	fld	fa2,376(sp)
  e4:	6934                	ld	a3,80(a0)
  e6:	616d                	addi	sp,sp,240
  e8:	6466                	ld	s0,88(sp)
  ea:	6d2d2063          	0x6d2d2063
  ee:	6261                	lui	tp,0x18
  f0:	3d69                	addiw	s10,s10,-6
  f2:	706c                	ld	a1,224(s0)
  f4:	3436                	fld	fs0,360(sp)
  f6:	2064                	fld	fs1,192(s0)
  f8:	672d                	lui	a4,0xb
  fa:	2d20                	fld	fs0,88(a0)
  fc:	2d20304f          	0x2d20304f
 100:	6666                	ld	a2,88(sp)
 102:	6572                	ld	a0,280(sp)
 104:	7365                	lui	t1,0xffff9
 106:	6174                	ld	a3,192(a0)
 108:	646e                	ld	s0,216(sp)
 10a:	6e69                	lui	t3,0x1a
 10c:	5f720067          	jr	1527(tp) # 0 <_stack_size-0x1000>
 110:	736d                	lui	t1,0xffffb
 112:	6174                	ld	a3,192(a0)
 114:	7574                	ld	a3,232(a0)
 116:	68730073          	0x68730073
 11a:	2074726f          	jal	tp,47b20 <_stack_size+0x46b20>
 11e:	6e69                	lui	t3,0x1a
 120:	0074                	addi	a3,sp,12
 122:	6f6c                	ld	a1,216(a4)
 124:	676e                	ld	a4,216(sp)
 126:	6920                	ld	s0,80(a0)
 128:	746e                	ld	s0,248(sp)
 12a:	7700                	ld	s0,40(a4)
 12c:	6d5f 7674 6365      	0x636576746d5f
 132:	7700                	ld	s0,40(a4)
 134:	6d5f 7065 0063      	0x6370656d5f
 13a:	4155                	li	sp,21
 13c:	5452                	lw	s0,52(sp)
 13e:	775f 6972 6574      	0x65746972775f
 144:	735f 7274 5500      	0x55007274735f
 14a:	5241                	li	tp,-16
 14c:	5f54                	lw	a3,60(a4)
 14e:	6461                	lui	s0,0x18
 150:	5f64                	lw	s1,124(a4)
 152:	6e69                	lui	t3,0x1a
 154:	0074                	addi	a3,sp,12
 156:	5f5f 7562 6c69      	0x6c6975625f5f
 15c:	6974                	ld	a3,208(a0)
 15e:	5f6e                	lw	t5,248(sp)
 160:	6176                	ld	sp,344(sp)
 162:	6c5f 7369 0074      	0x7473696c5f
 168:	6175                	addi	sp,sp,368
 16a:	7472                	ld	s0,312(sp)
 16c:	6e69                	lui	t3,0x1a
 16e:	7469                	lui	s0,0xffffa
 170:	5f00                	lw	s0,56(a4)
 172:	675f 756e 5f63      	0x5f63756e675f
 178:	6176                	ld	sp,344(sp)
 17a:	6c5f 7369 0074      	0x7473696c5f
 180:	657a6973          	csrrsi	s2,0x657,20
 184:	7000                	ld	s0,32(s0)
 186:	6972                	ld	s2,280(sp)
 188:	746e                	ld	s0,248(sp)
 18a:	6e69                	lui	t3,0x1a
 18c:	0074                	addi	a3,sp,12
 18e:	74697277          	0x74697277
 192:	0065                	c.nop	25
 194:	4155                	li	sp,21
 196:	5452                	lw	s0,52(sp)
 198:	725f 6165 5f64      	0x5f646165725f
 19e:	00727473          	csrrci	s0,0x7,4
 1a2:	4155                	li	sp,21
 1a4:	5452                	lw	s0,52(sp)
 1a6:	632e                	ld	t1,200(sp)
 1a8:	6200                	ld	s0,0(a2)
 1aa:	7361                	lui	t1,0xffff8
 1ac:	0065                	c.nop	25
 1ae:	4155                	li	sp,21
 1b0:	5452                	lw	s0,52(sp)
 1b2:	775f 6972 6574      	0x65746972775f
 1b8:	625f 6675 6400      	0x64006675625f
 1be:	6769                	lui	a4,0x1a
 1c0:	7469                	lui	s0,0xffffa
 1c2:	6f630073          	0x6f630073
 1c6:	6e75                	lui	t3,0x1d
 1c8:	0074                	addi	a3,sp,12
 1ca:	4155                	li	sp,21
 1cc:	5452                	lw	s0,52(sp)
 1ce:	725f 6165 5f64      	0x5f646165725f
 1d4:	6e69                	lui	t3,0x1a
 1d6:	0074                	addi	a3,sp,12
 1d8:	6e676973          	csrrsi	s2,0x6e6,14
 1dc:	5500                	lw	s0,40(a0)
 1de:	5241                	li	tp,-16
 1e0:	5f54                	lw	a3,60(a4)
 1e2:	7270                	ld	a2,224(a2)
 1e4:	6e69                	lui	t3,0x1a
 1e6:	6674                	ld	a3,200(a2)
 1e8:	7000                	ld	s0,32(s0)
 1ea:	6972                	ld	s2,280(sp)
 1ec:	746e                	ld	s0,248(sp)
 1ee:	7470                	ld	a2,232(s0)
 1f0:	0072                	c.slli	zero,0x1c
 1f2:	4155                	li	sp,21
 1f4:	5452                	lw	s0,52(sp)
 1f6:	615f 6464 685f      	0x685f6464615f
 1fc:	7865                	lui	a6,0xffff9
 1fe:	6d00                	ld	s0,24(a0)
 200:	7461                	lui	s0,0xffff8
 202:	2e68                	fld	fa0,216(a2)
 204:	69640063          	beq	s0,s6,884 <_stack_size-0x77c>
 208:	5f746967          	0x5f746967
 20c:	6f74                	ld	a3,216(a4)
 20e:	685f 7865 6900      	0x69007865685f
 214:	746e                	ld	s0,248(sp)
 216:	745f 5f6f 6568      	0x65685f6f745f
 21c:	0078                	addi	a4,sp,12
 21e:	6568                	ld	a0,200(a0)
 220:	5f78                	lw	a4,124(a4)
 222:	6f74                	ld	a3,216(a4)
 224:	695f 746e 6800      	0x6800746e695f
 22a:	7865                	lui	a6,0xffff9
 22c:	745f 5f6f 6964      	0x69645f6f745f
 232:	00746967          	0x746967
 236:	63727473          	csrrci	s0,0x637,4
 23a:	7461                	lui	s0,0xffff8
 23c:	6400                	ld	s0,8(s0)
 23e:	7365                	lui	t1,0xffff9
 240:	0074                	addi	a3,sp,12
 242:	6c727473          	csrrci	s0,0x6c7,4
 246:	6e65                	lui	t3,0x19
 248:	7300                	ld	s0,32(a4)
 24a:	7274                	ld	a3,224(a2)
 24c:	6e69                	lui	t3,0x1a
 24e:	00632e67          	0x632e67
 252:	63727473          	csrrci	s0,0x637,4
 256:	7461                	lui	s0,0xffff8
 258:	74730063          	beq	t1,t2,998 <_stack_size-0x668>
 25c:	6e72                	ld	t3,280(sp)
 25e:	00797063          	bgeu	s2,t2,25e <_stack_size-0xda2>
 262:	63727473          	csrrci	s0,0x637,4
 266:	706d                	c.lui	zero,0xffffb
 268:	7300                	ld	s0,32(a4)
 26a:	666e6163          	bltu	t3,t1,8cc <_stack_size-0x734>
 26e:	7300                	ld	s0,32(a4)
 270:	666e6163          	bltu	t3,t1,8d2 <_stack_size-0x72e>
 274:	632e                	ld	t1,200(sp)
 276:	7300                	ld	s0,32(a4)
 278:	6376                	ld	t1,344(sp)
 27a:	725f 6165 0064      	0x646165725f
 280:	5f637673          	csrrci	a2,0x5f6,6
 284:	7270                	ld	a2,224(a2)
 286:	6e69                	lui	t3,0x1a
 288:	0074                	addi	a3,sp,12
 28a:	7270                	ld	a2,224(a2)
 28c:	6e69                	lui	t3,0x1a
 28e:	6674                	ld	a3,200(a2)
 290:	632e                	ld	t1,200(sp)
	...

Disassembly of section .debug_frame:

0000000000000000 <.debug_frame>:
   0:	000c                	0xc
   2:	0000                	unimp
   4:	ffff                	0xffff
   6:	ffff                	0xffff
   8:	0001                	nop
   a:	7c01                	lui	s8,0xfffe0
   c:	0d01                	addi	s10,s10,0
   e:	0002                	c.slli64	zero
  10:	002c                	addi	a1,sp,8
  12:	0000                	unimp
  14:	0000                	unimp
  16:	0000                	unimp
  18:	0012                	c.slli	zero,0x4
  1a:	8000                	0x8000
  1c:	0000                	unimp
  1e:	0000                	unimp
  20:	001a                	c.slli	zero,0x6
  22:	0000                	unimp
  24:	0000                	unimp
  26:	0000                	unimp
  28:	0e42                	slli	t3,t3,0x10
  2a:	4220                	lw	s0,64(a2)
  2c:	0288                	addi	a0,sp,320
  2e:	0c42                	slli	s8,s8,0x10
  30:	0008                	0x8
  32:	c850                	sw	a2,20(s0)
  34:	020c                	addi	a1,sp,256
  36:	4220                	lw	s0,64(a2)
  38:	000e                	c.slli	zero,0x3
  3a:	0000                	unimp
  3c:	0000                	unimp
  3e:	0000                	unimp
  40:	002c                	addi	a1,sp,8
  42:	0000                	unimp
  44:	0000                	unimp
  46:	0000                	unimp
  48:	002c                	addi	a1,sp,8
  4a:	8000                	0x8000
  4c:	0000                	unimp
  4e:	0000                	unimp
  50:	001a                	c.slli	zero,0x6
  52:	0000                	unimp
  54:	0000                	unimp
  56:	0000                	unimp
  58:	0e42                	slli	t3,t3,0x10
  5a:	4220                	lw	s0,64(a2)
  5c:	0288                	addi	a0,sp,320
  5e:	0c42                	slli	s8,s8,0x10
  60:	0008                	0x8
  62:	c850                	sw	a2,20(s0)
  64:	020c                	addi	a1,sp,256
  66:	4220                	lw	s0,64(a2)
  68:	000e                	c.slli	zero,0x3
  6a:	0000                	unimp
  6c:	0000                	unimp
  6e:	0000                	unimp
  70:	002c                	addi	a1,sp,8
  72:	0000                	unimp
  74:	0000                	unimp
  76:	0000                	unimp
  78:	0046                	c.slli	zero,0x11
  7a:	8000                	0x8000
  7c:	0000                	unimp
  7e:	0000                	unimp
  80:	001a                	c.slli	zero,0x6
  82:	0000                	unimp
  84:	0000                	unimp
  86:	0000                	unimp
  88:	0e42                	slli	t3,t3,0x10
  8a:	4220                	lw	s0,64(a2)
  8c:	0288                	addi	a0,sp,320
  8e:	0c42                	slli	s8,s8,0x10
  90:	0008                	0x8
  92:	c850                	sw	a2,20(s0)
  94:	020c                	addi	a1,sp,256
  96:	4220                	lw	s0,64(a2)
  98:	000e                	c.slli	zero,0x3
  9a:	0000                	unimp
  9c:	0000                	unimp
  9e:	0000                	unimp
  a0:	002c                	addi	a1,sp,8
  a2:	0000                	unimp
  a4:	0000                	unimp
  a6:	0000                	unimp
  a8:	0060                	addi	s0,sp,12
  aa:	8000                	0x8000
  ac:	0000                	unimp
  ae:	0000                	unimp
  b0:	001a                	c.slli	zero,0x6
  b2:	0000                	unimp
  b4:	0000                	unimp
  b6:	0000                	unimp
  b8:	0e42                	slli	t3,t3,0x10
  ba:	4220                	lw	s0,64(a2)
  bc:	0288                	addi	a0,sp,320
  be:	0c42                	slli	s8,s8,0x10
  c0:	0008                	0x8
  c2:	c850                	sw	a2,20(s0)
  c4:	020c                	addi	a1,sp,256
  c6:	4220                	lw	s0,64(a2)
  c8:	000e                	c.slli	zero,0x3
  ca:	0000                	unimp
  cc:	0000                	unimp
  ce:	0000                	unimp
  d0:	002c                	addi	a1,sp,8
  d2:	0000                	unimp
  d4:	0000                	unimp
  d6:	0000                	unimp
  d8:	007a                	c.slli	zero,0x1e
  da:	8000                	0x8000
  dc:	0000                	unimp
  de:	0000                	unimp
  e0:	0056                	c.slli	zero,0x15
  e2:	0000                	unimp
  e4:	0000                	unimp
  e6:	0000                	unimp
  e8:	0e42                	slli	t3,t3,0x10
  ea:	4420                	lw	s0,72(s0)
  ec:	0281                	addi	t0,t0,0
  ee:	0488                	addi	a0,sp,576
  f0:	0c42                	slli	s8,s8,0x10
  f2:	0008                	0x8
  f4:	4802                	lw	a6,0(sp)
  f6:	42c1                	li	t0,16
  f8:	0cc8                	addi	a0,sp,596
  fa:	2002                	fld	ft0,0(sp)
  fc:	0e42                	slli	t3,t3,0x10
  fe:	0000                	unimp
 100:	002c                	addi	a1,sp,8
 102:	0000                	unimp
 104:	0000                	unimp
 106:	0000                	unimp
 108:	00d0                	addi	a2,sp,68
 10a:	8000                	0x8000
 10c:	0000                	unimp
 10e:	0000                	unimp
 110:	0012                	c.slli	zero,0x4
 112:	0000                	unimp
 114:	0000                	unimp
 116:	0000                	unimp
 118:	0e42                	slli	t3,t3,0x10
 11a:	4210                	lw	a2,0(a2)
 11c:	0288                	addi	a0,sp,320
 11e:	0c42                	slli	s8,s8,0x10
 120:	0008                	0x8
 122:	c848                	sw	a0,20(s0)
 124:	020c                	addi	a1,sp,256
 126:	4210                	lw	a2,0(a2)
 128:	000e                	c.slli	zero,0x3
 12a:	0000                	unimp
 12c:	0000                	unimp
 12e:	0000                	unimp
 130:	000c                	0xc
 132:	0000                	unimp
 134:	ffff                	0xffff
 136:	ffff                	0xffff
 138:	0001                	nop
 13a:	7c01                	lui	s8,0xfffe0
 13c:	0d01                	addi	s10,s10,0
 13e:	0002                	c.slli64	zero
 140:	002c                	addi	a1,sp,8
 142:	0000                	unimp
 144:	0130                	addi	a2,sp,136
 146:	0000                	unimp
 148:	00e2                	slli	ra,ra,0x18
 14a:	8000                	0x8000
 14c:	0000                	unimp
 14e:	0000                	unimp
 150:	005e                	c.slli	zero,0x17
 152:	0000                	unimp
 154:	0000                	unimp
 156:	0000                	unimp
 158:	0e42                	slli	t3,t3,0x10
 15a:	4210                	lw	a2,0(a2)
 15c:	0288                	addi	a0,sp,320
 15e:	0c42                	slli	s8,s8,0x10
 160:	0008                	0x8
 162:	5402                	lw	s0,32(sp)
 164:	0cc8                	addi	a0,sp,596
 166:	1002                	c.slli	zero,0x20
 168:	0e42                	slli	t3,t3,0x10
 16a:	0000                	unimp
 16c:	0000                	unimp
 16e:	0000                	unimp
 170:	002c                	addi	a1,sp,8
 172:	0000                	unimp
 174:	0130                	addi	a2,sp,136
 176:	0000                	unimp
 178:	0140                	addi	s0,sp,132
 17a:	8000                	0x8000
 17c:	0000                	unimp
 17e:	0000                	unimp
 180:	003a                	c.slli	zero,0xe
 182:	0000                	unimp
 184:	0000                	unimp
 186:	0000                	unimp
 188:	0e42                	slli	t3,t3,0x10
 18a:	4220                	lw	s0,64(a2)
 18c:	0288                	addi	a0,sp,320
 18e:	0c42                	slli	s8,s8,0x10
 190:	0008                	0x8
 192:	c870                	sw	a2,84(s0)
 194:	020c                	addi	a1,sp,256
 196:	4220                	lw	s0,64(a2)
 198:	000e                	c.slli	zero,0x3
 19a:	0000                	unimp
 19c:	0000                	unimp
 19e:	0000                	unimp
 1a0:	002c                	addi	a1,sp,8
 1a2:	0000                	unimp
 1a4:	0130                	addi	a2,sp,136
 1a6:	0000                	unimp
 1a8:	017a                	slli	sp,sp,0x1e
 1aa:	8000                	0x8000
 1ac:	0000                	unimp
 1ae:	0000                	unimp
 1b0:	0036                	c.slli	zero,0xd
 1b2:	0000                	unimp
 1b4:	0000                	unimp
 1b6:	0000                	unimp
 1b8:	0e42                	slli	t3,t3,0x10
 1ba:	4210                	lw	a2,0(a2)
 1bc:	0288                	addi	a0,sp,320
 1be:	0c42                	slli	s8,s8,0x10
 1c0:	0008                	0x8
 1c2:	c86c                	sw	a1,84(s0)
 1c4:	020c                	addi	a1,sp,256
 1c6:	4210                	lw	a2,0(a2)
 1c8:	000e                	c.slli	zero,0x3
 1ca:	0000                	unimp
 1cc:	0000                	unimp
 1ce:	0000                	unimp
 1d0:	002c                	addi	a1,sp,8
 1d2:	0000                	unimp
 1d4:	0130                	addi	a2,sp,136
 1d6:	0000                	unimp
 1d8:	01b0                	addi	a2,sp,200
 1da:	8000                	0x8000
 1dc:	0000                	unimp
 1de:	0000                	unimp
 1e0:	0056                	c.slli	zero,0x15
 1e2:	0000                	unimp
 1e4:	0000                	unimp
 1e6:	0000                	unimp
 1e8:	0e42                	slli	t3,t3,0x10
 1ea:	4430                	lw	a2,72(s0)
 1ec:	0281                	addi	t0,t0,0
 1ee:	0488                	addi	a0,sp,576
 1f0:	0c42                	slli	s8,s8,0x10
 1f2:	0008                	0x8
 1f4:	4802                	lw	a6,0(sp)
 1f6:	42c1                	li	t0,16
 1f8:	0cc8                	addi	a0,sp,596
 1fa:	3002                	fld	ft0,32(sp)
 1fc:	0e42                	slli	t3,t3,0x10
 1fe:	0000                	unimp
 200:	002c                	addi	a1,sp,8
 202:	0000                	unimp
 204:	0130                	addi	a2,sp,136
 206:	0000                	unimp
 208:	0206                	slli	tp,tp,0x1
 20a:	8000                	0x8000
 20c:	0000                	unimp
 20e:	0000                	unimp
 210:	003c                	addi	a5,sp,8
 212:	0000                	unimp
 214:	0000                	unimp
 216:	0000                	unimp
 218:	0e42                	slli	t3,t3,0x10
 21a:	4420                	lw	s0,72(s0)
 21c:	0281                	addi	t0,t0,0
 21e:	0488                	addi	a0,sp,576
 220:	0c42                	slli	s8,s8,0x10
 222:	0008                	0x8
 224:	c16e                	sw	s11,128(sp)
 226:	c842                	sw	a6,16(sp)
 228:	020c                	addi	a1,sp,256
 22a:	4220                	lw	s0,64(a2)
 22c:	000e                	c.slli	zero,0x3
 22e:	0000                	unimp
 230:	0034                	addi	a3,sp,8
 232:	0000                	unimp
 234:	0130                	addi	a2,sp,136
 236:	0000                	unimp
 238:	0242                	slli	tp,tp,0x10
 23a:	8000                	0x8000
 23c:	0000                	unimp
 23e:	0000                	unimp
 240:	00aa                	slli	ra,ra,0xa
 242:	0000                	unimp
 244:	0000                	unimp
 246:	0000                	unimp
 248:	0e42                	slli	t3,t3,0x10
 24a:	4640                	lw	s0,12(a2)
 24c:	0281                	addi	t0,t0,0
 24e:	0488                	addi	a0,sp,576
 250:	0689                	addi	a3,a3,2
 252:	0c42                	slli	s8,s8,0x10
 254:	0008                	0x8
 256:	9802                	jalr	a6
 258:	42c1                	li	t0,16
 25a:	0cc8                	addi	a0,sp,596
 25c:	4002                	0x4002
 25e:	c942                	sw	a6,144(sp)
 260:	0e42                	slli	t3,t3,0x10
 262:	0000                	unimp
 264:	0000                	unimp
 266:	0000                	unimp
 268:	002c                	addi	a1,sp,8
 26a:	0000                	unimp
 26c:	0130                	addi	a2,sp,136
 26e:	0000                	unimp
 270:	02ec                	addi	a1,sp,332
 272:	8000                	0x8000
 274:	0000                	unimp
 276:	0000                	unimp
 278:	0080                	addi	s0,sp,64
 27a:	0000                	unimp
 27c:	0000                	unimp
 27e:	0000                	unimp
 280:	0e42                	slli	t3,t3,0x10
 282:	4430                	lw	a2,72(s0)
 284:	0281                	addi	t0,t0,0
 286:	0488                	addi	a0,sp,576
 288:	0c42                	slli	s8,s8,0x10
 28a:	0008                	0x8
 28c:	7202                	ld	tp,32(sp)
 28e:	42c1                	li	t0,16
 290:	0cc8                	addi	a0,sp,596
 292:	3002                	fld	ft0,32(sp)
 294:	0e42                	slli	t3,t3,0x10
 296:	0000                	unimp
 298:	002c                	addi	a1,sp,8
 29a:	0000                	unimp
 29c:	0130                	addi	a2,sp,136
 29e:	0000                	unimp
 2a0:	036c                	addi	a1,sp,396
 2a2:	8000                	0x8000
 2a4:	0000                	unimp
 2a6:	0000                	unimp
 2a8:	0086                	slli	ra,ra,0x1
 2aa:	0000                	unimp
 2ac:	0000                	unimp
 2ae:	0000                	unimp
 2b0:	0e42                	slli	t3,t3,0x10
 2b2:	4430                	lw	a2,72(s0)
 2b4:	0281                	addi	t0,t0,0
 2b6:	0488                	addi	a0,sp,576
 2b8:	0c42                	slli	s8,s8,0x10
 2ba:	0008                	0x8
 2bc:	7802                	ld	a6,32(sp)
 2be:	42c1                	li	t0,16
 2c0:	0cc8                	addi	a0,sp,596
 2c2:	3002                	fld	ft0,32(sp)
 2c4:	0e42                	slli	t3,t3,0x10
 2c6:	0000                	unimp
 2c8:	002c                	addi	a1,sp,8
 2ca:	0000                	unimp
 2cc:	0130                	addi	a2,sp,136
 2ce:	0000                	unimp
 2d0:	03f2                	slli	t2,t2,0x1c
 2d2:	8000                	0x8000
 2d4:	0000                	unimp
 2d6:	0000                	unimp
 2d8:	006c                	addi	a1,sp,12
 2da:	0000                	unimp
 2dc:	0000                	unimp
 2de:	0000                	unimp
 2e0:	0e42                	slli	t3,t3,0x10
 2e2:	4420                	lw	s0,72(s0)
 2e4:	0281                	addi	t0,t0,0
 2e6:	0488                	addi	a0,sp,576
 2e8:	0c42                	slli	s8,s8,0x10
 2ea:	0008                	0x8
 2ec:	5e02                	lw	t3,32(sp)
 2ee:	42c1                	li	t0,16
 2f0:	0cc8                	addi	a0,sp,596
 2f2:	2002                	fld	ft0,0(sp)
 2f4:	0e42                	slli	t3,t3,0x10
 2f6:	0000                	unimp
 2f8:	002c                	addi	a1,sp,8
 2fa:	0000                	unimp
 2fc:	0130                	addi	a2,sp,136
 2fe:	0000                	unimp
 300:	045e                	slli	s0,s0,0x17
 302:	8000                	0x8000
 304:	0000                	unimp
 306:	0000                	unimp
 308:	00fc                	addi	a5,sp,76
 30a:	0000                	unimp
 30c:	0000                	unimp
 30e:	0000                	unimp
 310:	0e42                	slli	t3,t3,0x10
 312:	4440                	lw	s0,12(s0)
 314:	0281                	addi	t0,t0,0
 316:	0488                	addi	a0,sp,576
 318:	0c42                	slli	s8,s8,0x10
 31a:	0008                	0x8
 31c:	ee02                	sd	zero,280(sp)
 31e:	42c1                	li	t0,16
 320:	0cc8                	addi	a0,sp,596
 322:	4002                	0x4002
 324:	0e42                	slli	t3,t3,0x10
 326:	0000                	unimp
 328:	002c                	addi	a1,sp,8
 32a:	0000                	unimp
 32c:	0130                	addi	a2,sp,136
 32e:	0000                	unimp
 330:	055a                	slli	a0,a0,0x16
 332:	8000                	0x8000
 334:	0000                	unimp
 336:	0000                	unimp
 338:	0070                	addi	a2,sp,12
 33a:	0000                	unimp
 33c:	0000                	unimp
 33e:	0000                	unimp
 340:	0e42                	slli	t3,t3,0x10
 342:	4430                	lw	a2,72(s0)
 344:	0281                	addi	t0,t0,0
 346:	0488                	addi	a0,sp,576
 348:	0c42                	slli	s8,s8,0x10
 34a:	0008                	0x8
 34c:	6202                	ld	tp,0(sp)
 34e:	42c1                	li	t0,16
 350:	0cc8                	addi	a0,sp,596
 352:	3002                	fld	ft0,32(sp)
 354:	0e42                	slli	t3,t3,0x10
 356:	0000                	unimp
 358:	0034                	addi	a3,sp,8
 35a:	0000                	unimp
 35c:	0130                	addi	a2,sp,136
 35e:	0000                	unimp
 360:	05ca                	slli	a1,a1,0x12
 362:	8000                	0x8000
 364:	0000                	unimp
 366:	0000                	unimp
 368:	01e8                	addi	a0,sp,204
 36a:	0000                	unimp
 36c:	0000                	unimp
 36e:	0000                	unimp
 370:	0e42                	slli	t3,t3,0x10
 372:	0180                	addi	s0,sp,192
 374:	8144                	0x8144
 376:	8812                	mv	a6,tp
 378:	4214                	lw	a3,0(a2)
 37a:	080c                	addi	a1,sp,16
 37c:	0340                	addi	s0,sp,388
 37e:	01da                	slli	gp,gp,0x16
 380:	42c1                	li	t0,16
 382:	0cc8                	addi	a0,sp,596
 384:	8002                	0x8002
 386:	4201                	li	tp,0
 388:	000e                	c.slli	zero,0x3
 38a:	0000                	unimp
 38c:	0000                	unimp
 38e:	0000                	unimp
 390:	000c                	0xc
 392:	0000                	unimp
 394:	ffff                	0xffff
 396:	ffff                	0xffff
 398:	0001                	nop
 39a:	7c01                	lui	s8,0xfffe0
 39c:	0d01                	addi	s10,s10,0
 39e:	0002                	c.slli64	zero
 3a0:	002c                	addi	a1,sp,8
 3a2:	0000                	unimp
 3a4:	0390                	addi	a2,sp,448
 3a6:	0000                	unimp
 3a8:	07b2                	slli	a5,a5,0xc
 3aa:	8000                	0x8000
 3ac:	0000                	unimp
 3ae:	0000                	unimp
 3b0:	0044                	addi	s1,sp,4
 3b2:	0000                	unimp
 3b4:	0000                	unimp
 3b6:	0000                	unimp
 3b8:	0e42                	slli	t3,t3,0x10
 3ba:	4220                	lw	s0,64(a2)
 3bc:	0288                	addi	a0,sp,320
 3be:	0c42                	slli	s8,s8,0x10
 3c0:	0008                	0x8
 3c2:	c87a                	sw	t5,16(sp)
 3c4:	020c                	addi	a1,sp,256
 3c6:	4220                	lw	s0,64(a2)
 3c8:	000e                	c.slli	zero,0x3
 3ca:	0000                	unimp
 3cc:	0000                	unimp
 3ce:	0000                	unimp
 3d0:	002c                	addi	a1,sp,8
 3d2:	0000                	unimp
 3d4:	0390                	addi	a2,sp,448
 3d6:	0000                	unimp
 3d8:	07f6                	slli	a5,a5,0x1d
 3da:	8000                	0x8000
 3dc:	0000                	unimp
 3de:	0000                	unimp
 3e0:	00a0                	addi	s0,sp,72
 3e2:	0000                	unimp
 3e4:	0000                	unimp
 3e6:	0000                	unimp
 3e8:	0e42                	slli	t3,t3,0x10
 3ea:	4220                	lw	s0,64(a2)
 3ec:	0288                	addi	a0,sp,320
 3ee:	0c42                	slli	s8,s8,0x10
 3f0:	0008                	0x8
 3f2:	9602                	jalr	a2
 3f4:	0cc8                	addi	a0,sp,596
 3f6:	2002                	fld	ft0,0(sp)
 3f8:	0e42                	slli	t3,t3,0x10
 3fa:	0000                	unimp
 3fc:	0000                	unimp
 3fe:	0000                	unimp
 400:	002c                	addi	a1,sp,8
 402:	0000                	unimp
 404:	0390                	addi	a2,sp,448
 406:	0000                	unimp
 408:	0896                	slli	a7,a7,0x5
 40a:	8000                	0x8000
 40c:	0000                	unimp
 40e:	0000                	unimp
 410:	006c                	addi	a1,sp,12
 412:	0000                	unimp
 414:	0000                	unimp
 416:	0000                	unimp
 418:	0e42                	slli	t3,t3,0x10
 41a:	4430                	lw	a2,72(s0)
 41c:	0281                	addi	t0,t0,0
 41e:	0488                	addi	a0,sp,576
 420:	0c42                	slli	s8,s8,0x10
 422:	0008                	0x8
 424:	5e02                	lw	t3,32(sp)
 426:	42c1                	li	t0,16
 428:	0cc8                	addi	a0,sp,596
 42a:	3002                	fld	ft0,32(sp)
 42c:	0e42                	slli	t3,t3,0x10
 42e:	0000                	unimp
 430:	0034                	addi	a3,sp,8
 432:	0000                	unimp
 434:	0390                	addi	a2,sp,448
 436:	0000                	unimp
 438:	0902                	c.slli64	s2
 43a:	8000                	0x8000
 43c:	0000                	unimp
 43e:	0000                	unimp
 440:	0072                	c.slli	zero,0x1c
 442:	0000                	unimp
 444:	0000                	unimp
 446:	0000                	unimp
 448:	0e42                	slli	t3,t3,0x10
 44a:	4640                	lw	s0,12(a2)
 44c:	0281                	addi	t0,t0,0
 44e:	0488                	addi	a0,sp,576
 450:	0689                	addi	a3,a3,2
 452:	0c42                	slli	s8,s8,0x10
 454:	0008                	0x8
 456:	6002                	0x6002
 458:	42c1                	li	t0,16
 45a:	0cc8                	addi	a0,sp,596
 45c:	4002                	0x4002
 45e:	c942                	sw	a6,144(sp)
 460:	0e42                	slli	t3,t3,0x10
 462:	0000                	unimp
 464:	0000                	unimp
 466:	0000                	unimp
 468:	000c                	0xc
 46a:	0000                	unimp
 46c:	ffff                	0xffff
 46e:	ffff                	0xffff
 470:	0001                	nop
 472:	7c01                	lui	s8,0xfffe0
 474:	0d01                	addi	s10,s10,0
 476:	0002                	c.slli64	zero
 478:	002c                	addi	a1,sp,8
 47a:	0000                	unimp
 47c:	0468                	addi	a0,sp,524
 47e:	0000                	unimp
 480:	0974                	addi	a3,sp,156
 482:	8000                	0x8000
 484:	0000                	unimp
 486:	0000                	unimp
 488:	0036                	c.slli	zero,0xd
 48a:	0000                	unimp
 48c:	0000                	unimp
 48e:	0000                	unimp
 490:	0e42                	slli	t3,t3,0x10
 492:	4230                	lw	a2,64(a2)
 494:	0288                	addi	a0,sp,320
 496:	0c42                	slli	s8,s8,0x10
 498:	0008                	0x8
 49a:	c86c                	sw	a1,84(s0)
 49c:	020c                	addi	a1,sp,256
 49e:	4230                	lw	a2,64(a2)
 4a0:	000e                	c.slli	zero,0x3
 4a2:	0000                	unimp
 4a4:	0000                	unimp
 4a6:	0000                	unimp
 4a8:	0034                	addi	a3,sp,8
 4aa:	0000                	unimp
 4ac:	0468                	addi	a0,sp,524
 4ae:	0000                	unimp
 4b0:	09aa                	slli	s3,s3,0xa
 4b2:	8000                	0x8000
 4b4:	0000                	unimp
 4b6:	0000                	unimp
 4b8:	009c                	addi	a5,sp,64
 4ba:	0000                	unimp
 4bc:	0000                	unimp
 4be:	0000                	unimp
 4c0:	0e42                	slli	t3,t3,0x10
 4c2:	4650                	lw	a2,12(a2)
 4c4:	0281                	addi	t0,t0,0
 4c6:	0488                	addi	a0,sp,576
 4c8:	0689                	addi	a3,a3,2
 4ca:	0c42                	slli	s8,s8,0x10
 4cc:	0008                	0x8
 4ce:	8a02                	jr	s4
 4d0:	42c1                	li	t0,16
 4d2:	0cc8                	addi	a0,sp,596
 4d4:	5002                	0x5002
 4d6:	c942                	sw	a6,144(sp)
 4d8:	0e42                	slli	t3,t3,0x10
 4da:	0000                	unimp
 4dc:	0000                	unimp
 4de:	0000                	unimp
 4e0:	002c                	addi	a1,sp,8
 4e2:	0000                	unimp
 4e4:	0468                	addi	a0,sp,524
 4e6:	0000                	unimp
 4e8:	0a46                	slli	s4,s4,0x11
 4ea:	8000                	0x8000
 4ec:	0000                	unimp
 4ee:	0000                	unimp
 4f0:	007a                	c.slli	zero,0x1e
 4f2:	0000                	unimp
 4f4:	0000                	unimp
 4f6:	0000                	unimp
 4f8:	0e42                	slli	t3,t3,0x10
 4fa:	4430                	lw	a2,72(s0)
 4fc:	0281                	addi	t0,t0,0
 4fe:	0488                	addi	a0,sp,576
 500:	0c42                	slli	s8,s8,0x10
 502:	0008                	0x8
 504:	6c02                	ld	s8,0(sp)
 506:	42c1                	li	t0,16
 508:	0cc8                	addi	a0,sp,596
 50a:	3002                	fld	ft0,32(sp)
 50c:	0e42                	slli	t3,t3,0x10
 50e:	0000                	unimp
 510:	002c                	addi	a1,sp,8
 512:	0000                	unimp
 514:	0468                	addi	a0,sp,524
 516:	0000                	unimp
 518:	0ac0                	addi	s0,sp,340
 51a:	8000                	0x8000
 51c:	0000                	unimp
 51e:	0000                	unimp
 520:	009c                	addi	a5,sp,64
 522:	0000                	unimp
 524:	0000                	unimp
 526:	0000                	unimp
 528:	0e42                	slli	t3,t3,0x10
 52a:	4440                	lw	s0,12(s0)
 52c:	0281                	addi	t0,t0,0
 52e:	0488                	addi	a0,sp,576
 530:	0c42                	slli	s8,s8,0x10
 532:	0008                	0x8
 534:	8e02                	jr	t3
 536:	42c1                	li	t0,16
 538:	0cc8                	addi	a0,sp,596
 53a:	4002                	0x4002
 53c:	0e42                	slli	t3,t3,0x10
 53e:	0000                	unimp
 540:	002c                	addi	a1,sp,8
 542:	0000                	unimp
 544:	0468                	addi	a0,sp,524
 546:	0000                	unimp
 548:	0b5c                	addi	a5,sp,404
 54a:	8000                	0x8000
 54c:	0000                	unimp
 54e:	0000                	unimp
 550:	0072                	c.slli	zero,0x1c
 552:	0000                	unimp
 554:	0000                	unimp
 556:	0000                	unimp
 558:	0e42                	slli	t3,t3,0x10
 55a:	4220                	lw	s0,64(a2)
 55c:	0288                	addi	a0,sp,320
 55e:	0c42                	slli	s8,s8,0x10
 560:	0008                	0x8
 562:	6802                	ld	a6,0(sp)
 564:	0cc8                	addi	a0,sp,596
 566:	2002                	fld	ft0,0(sp)
 568:	0e42                	slli	t3,t3,0x10
 56a:	0000                	unimp
 56c:	0000                	unimp
 56e:	0000                	unimp
 570:	000c                	0xc
 572:	0000                	unimp
 574:	ffff                	0xffff
 576:	ffff                	0xffff
 578:	0001                	nop
 57a:	7c01                	lui	s8,0xfffe0
 57c:	0d01                	addi	s10,s10,0
 57e:	0002                	c.slli64	zero
 580:	002c                	addi	a1,sp,8
 582:	0000                	unimp
 584:	0570                	addi	a2,sp,652
 586:	0000                	unimp
 588:	0bce                	slli	s7,s7,0x13
 58a:	8000                	0x8000
 58c:	0000                	unimp
 58e:	0000                	unimp
 590:	001c                	0x1c
 592:	0000                	unimp
 594:	0000                	unimp
 596:	0000                	unimp
 598:	0e42                	slli	t3,t3,0x10
 59a:	4420                	lw	s0,72(s0)
 59c:	0281                	addi	t0,t0,0
 59e:	0488                	addi	a0,sp,576
 5a0:	0c42                	slli	s8,s8,0x10
 5a2:	0008                	0x8
 5a4:	c14e                	sw	s3,128(sp)
 5a6:	c842                	sw	a6,16(sp)
 5a8:	020c                	addi	a1,sp,256
 5aa:	4220                	lw	s0,64(a2)
 5ac:	000e                	c.slli	zero,0x3
 5ae:	0000                	unimp
 5b0:	002c                	addi	a1,sp,8
 5b2:	0000                	unimp
 5b4:	0570                	addi	a2,sp,652
 5b6:	0000                	unimp
 5b8:	0bea                	slli	s7,s7,0x1a
 5ba:	8000                	0x8000
 5bc:	0000                	unimp
 5be:	0000                	unimp
 5c0:	00ba                	slli	ra,ra,0xe
 5c2:	0000                	unimp
 5c4:	0000                	unimp
 5c6:	0000                	unimp
 5c8:	0e42                	slli	t3,t3,0x10
 5ca:	4430                	lw	a2,72(s0)
 5cc:	0281                	addi	t0,t0,0
 5ce:	0488                	addi	a0,sp,576
 5d0:	0c42                	slli	s8,s8,0x10
 5d2:	0008                	0x8
 5d4:	ac02                	fsd	ft0,24(sp)
 5d6:	42c1                	li	t0,16
 5d8:	0cc8                	addi	a0,sp,596
 5da:	3002                	fld	ft0,32(sp)
 5dc:	0e42                	slli	t3,t3,0x10
 5de:	0000                	unimp
 5e0:	000c                	0xc
 5e2:	0000                	unimp
 5e4:	ffff                	0xffff
 5e6:	ffff                	0xffff
 5e8:	0001                	nop
 5ea:	7c01                	lui	s8,0xfffe0
 5ec:	0d01                	addi	s10,s10,0
 5ee:	0002                	c.slli64	zero
 5f0:	002c                	addi	a1,sp,8
 5f2:	0000                	unimp
 5f4:	05e0                	addi	s0,sp,716
 5f6:	0000                	unimp
 5f8:	0ca4                	addi	s1,sp,600
 5fa:	8000                	0x8000
 5fc:	0000                	unimp
 5fe:	0000                	unimp
 600:	00fc                	addi	a5,sp,76
 602:	0000                	unimp
 604:	0000                	unimp
 606:	0000                	unimp
 608:	0e42                	slli	t3,t3,0x10
 60a:	4440                	lw	s0,12(s0)
 60c:	0281                	addi	t0,t0,0
 60e:	0488                	addi	a0,sp,576
 610:	0c42                	slli	s8,s8,0x10
 612:	0008                	0x8
 614:	ee02                	sd	zero,280(sp)
 616:	42c1                	li	t0,16
 618:	0cc8                	addi	a0,sp,596
 61a:	4002                	0x4002
 61c:	0e42                	slli	t3,t3,0x10
 61e:	0000                	unimp
 620:	002c                	addi	a1,sp,8
 622:	0000                	unimp
 624:	05e0                	addi	s0,sp,716
 626:	0000                	unimp
 628:	0da0                	addi	s0,sp,728
 62a:	8000                	0x8000
 62c:	0000                	unimp
 62e:	0000                	unimp
 630:	0070                	addi	a2,sp,12
 632:	0000                	unimp
 634:	0000                	unimp
 636:	0000                	unimp
 638:	0e42                	slli	t3,t3,0x10
 63a:	4430                	lw	a2,72(s0)
 63c:	0281                	addi	t0,t0,0
 63e:	0488                	addi	a0,sp,576
 640:	0c42                	slli	s8,s8,0x10
 642:	0008                	0x8
 644:	6202                	ld	tp,0(sp)
 646:	42c1                	li	t0,16
 648:	0cc8                	addi	a0,sp,596
 64a:	3002                	fld	ft0,32(sp)
 64c:	0e42                	slli	t3,t3,0x10
 64e:	0000                	unimp
 650:	0034                	addi	a3,sp,8
 652:	0000                	unimp
 654:	05e0                	addi	s0,sp,716
 656:	0000                	unimp
 658:	0e10                	addi	a2,sp,784
 65a:	8000                	0x8000
 65c:	0000                	unimp
 65e:	0000                	unimp
 660:	01e8                	addi	a0,sp,204
 662:	0000                	unimp
 664:	0000                	unimp
 666:	0000                	unimp
 668:	0e42                	slli	t3,t3,0x10
 66a:	0180                	addi	s0,sp,192
 66c:	8144                	0x8144
 66e:	8812                	mv	a6,tp
 670:	4214                	lw	a3,0(a2)
 672:	080c                	addi	a1,sp,16
 674:	0340                	addi	s0,sp,388
 676:	01da                	slli	gp,gp,0x16
 678:	42c1                	li	t0,16
 67a:	0cc8                	addi	a0,sp,596
 67c:	8002                	0x8002
 67e:	4201                	li	tp,0
 680:	000e                	c.slli	zero,0x3
 682:	0000                	unimp
 684:	0000                	unimp
 686:	0000                	unimp
 688:	002c                	addi	a1,sp,8
 68a:	0000                	unimp
 68c:	05e0                	addi	s0,sp,716
 68e:	0000                	unimp
 690:	0ff8                	addi	a4,sp,988
 692:	8000                	0x8000
 694:	0000                	unimp
 696:	0000                	unimp
 698:	0018                	0x18
 69a:	0000                	unimp
 69c:	0000                	unimp
 69e:	0000                	unimp
 6a0:	0e42                	slli	t3,t3,0x10
 6a2:	4220                	lw	s0,64(a2)
 6a4:	0288                	addi	a0,sp,320
 6a6:	0c42                	slli	s8,s8,0x10
 6a8:	0008                	0x8
 6aa:	c84e                	sw	s3,16(sp)
 6ac:	020c                	addi	a1,sp,256
 6ae:	4220                	lw	s0,64(a2)
 6b0:	000e                	c.slli	zero,0x3
 6b2:	0000                	unimp
 6b4:	0000                	unimp
 6b6:	0000                	unimp
 6b8:	002c                	addi	a1,sp,8
 6ba:	0000                	unimp
 6bc:	05e0                	addi	s0,sp,716
 6be:	0000                	unimp
 6c0:	1010                	addi	a2,sp,32
 6c2:	8000                	0x8000
 6c4:	0000                	unimp
 6c6:	0000                	unimp
 6c8:	0076                	c.slli	zero,0x1d
 6ca:	0000                	unimp
 6cc:	0000                	unimp
 6ce:	0000                	unimp
 6d0:	0e42                	slli	t3,t3,0x10
 6d2:	4420                	lw	s0,72(s0)
 6d4:	0281                	addi	t0,t0,0
 6d6:	0488                	addi	a0,sp,576
 6d8:	0c42                	slli	s8,s8,0x10
 6da:	0008                	0x8
 6dc:	6802                	ld	a6,0(sp)
 6de:	42c1                	li	t0,16
 6e0:	0cc8                	addi	a0,sp,596
 6e2:	2002                	fld	ft0,0(sp)
 6e4:	0e42                	slli	t3,t3,0x10
 6e6:	0000                	unimp
 6e8:	002c                	addi	a1,sp,8
 6ea:	0000                	unimp
 6ec:	05e0                	addi	s0,sp,716
 6ee:	0000                	unimp
 6f0:	1086                	slli	ra,ra,0x21
 6f2:	8000                	0x8000
 6f4:	0000                	unimp
 6f6:	0000                	unimp
 6f8:	006c                	addi	a1,sp,12
 6fa:	0000                	unimp
 6fc:	0000                	unimp
 6fe:	0000                	unimp
 700:	0e42                	slli	t3,t3,0x10
 702:	4420                	lw	s0,72(s0)
 704:	0281                	addi	t0,t0,0
 706:	0488                	addi	a0,sp,576
 708:	0c42                	slli	s8,s8,0x10
 70a:	0008                	0x8
 70c:	5e02                	lw	t3,32(sp)
 70e:	42c1                	li	t0,16
 710:	0cc8                	addi	a0,sp,596
 712:	2002                	fld	ft0,0(sp)
 714:	0e42                	slli	t3,t3,0x10
	...
