
kernel.elf:     file format elf32-littleriscv

Sections:
Idx Name          Size      VMA       LMA       File off  Algn
  0 .text         00000f98  20400000  20400000  00001000  2**2
                  CONTENTS, ALLOC, LOAD, READONLY, CODE
  1 .rodata       00000084  20400f98  20400f98  00001f98  2**2
                  CONTENTS, ALLOC, LOAD, READONLY, DATA
  2 .stack        00001000  80000000  80000000  00004000  2**0
                  ALLOC
  3 .data         00000028  80001000  2040101c  00003000  2**2
                  CONTENTS, ALLOC, LOAD, DATA
  4 .bss          00000000  80001028  20401044  00003028  2**0
                  ALLOC
  5 .riscv.attributes 0000001f  00000000  00000000  00003028  2**0
                  CONTENTS, READONLY
  6 .comment      00000028  00000000  00000000  00003047  2**0
                  CONTENTS, READONLY
  7 .debug_line   00000dc7  00000000  00000000  0000306f  2**0
                  CONTENTS, READONLY, DEBUGGING
  8 .debug_info   000008b1  00000000  00000000  00003e36  2**0
                  CONTENTS, READONLY, DEBUGGING
  9 .debug_abbrev 00000507  00000000  00000000  000046e7  2**0
                  CONTENTS, READONLY, DEBUGGING
 10 .debug_aranges 000000e0  00000000  00000000  00004bf0  2**3
                  CONTENTS, READONLY, DEBUGGING
 11 .debug_str    000001de  00000000  00000000  00004cd0  2**0
                  CONTENTS, READONLY, DEBUGGING
 12 .debug_frame  0000038c  00000000  00000000  00004eb0  2**2
                  CONTENTS, READONLY, DEBUGGING

Disassembly of section .text:

20400000 <_startup>:
.section .startup,"ax",%progbits

.global _startup
.type _startup, %function
_startup:
    la sp, _estack
20400000:	5fc01117          	auipc	sp,0x5fc01
20400004:	00010113          	mv	sp,sp
    call _init
20400008:	00c000ef          	jal	ra,20400014 <_init>
    call main
2040000c:	05c000ef          	jal	ra,20400068 <main>

20400010 <_junk>:
_junk:
    j _junk
20400010:	0000006f          	j	20400010 <_junk>

20400014 <_init>:
.size _startup, .-_startup

.type _init, %function
_init:
_copy_data:
    la t1, _sidata
20400014:	00001317          	auipc	t1,0x1
20400018:	00830313          	addi	t1,t1,8 # 2040101c <_sidata>
    la t2, _sdata
2040001c:	5fc01397          	auipc	t2,0x5fc01
20400020:	fe438393          	addi	t2,t2,-28 # 80001000 <_estack>
    la t3, _edata
20400024:	5fc01e17          	auipc	t3,0x5fc01
20400028:	004e0e13          	addi	t3,t3,4 # 80001028 <_edata>
    beq t2, t3, _zero_bss /* no data to copy, proceed to zero bss */
2040002c:	01c38c63          	beq	t2,t3,20400044 <_zero_bss>

20400030 <_copy_data_loop>:
_copy_data_loop:
    lw t0, 0(t1)
20400030:	00032283          	lw	t0,0(t1)
    sw t0, 0(t2)
20400034:	0053a023          	sw	t0,0(t2)
    addi t1, t1, 4
20400038:	00430313          	addi	t1,t1,4
    addi t2, t2, 4
2040003c:	00438393          	addi	t2,t2,4
    bne t2, t3, _copy_data_loop
20400040:	ffc398e3          	bne	t2,t3,20400030 <_copy_data_loop>

20400044 <_zero_bss>:
_zero_bss:
    la t1, _sbss
20400044:	5fc01317          	auipc	t1,0x5fc01
20400048:	fe430313          	addi	t1,t1,-28 # 80001028 <_edata>
    la t2, _ebss
2040004c:	5fc01397          	auipc	t2,0x5fc01
20400050:	fdc38393          	addi	t2,t2,-36 # 80001028 <_edata>
    beq t1, t2, _init_done
20400054:	00730863          	beq	t1,t2,20400064 <_init_done>

20400058 <_zero_bss_loop>:
_zero_bss_loop:
    sw zero, 0(t1)
20400058:	00032023          	sw	zero,0(t1)
    addi t1, t1, 4
2040005c:	00430313          	addi	t1,t1,4
    bne t1, t2, _zero_bss_loop
20400060:	fe731ce3          	bne	t1,t2,20400058 <_zero_bss_loop>

20400064 <_init_done>:
_init_done:
    ret
20400064:	00008067          	ret

20400068 <main>:
#include <stdarg.h>
#include "UART.h"
#include "printf.h"
#include "scanf.h"

void main() {
20400068:	fd010113          	addi	sp,sp,-48 # 80000fd0 <_sstack+0xfd0>
2040006c:	02112623          	sw	ra,44(sp)
20400070:	02812423          	sw	s0,40(sp)
20400074:	03010413          	addi	s0,sp,48
    char* name = "andrew";
20400078:	204017b7          	lui	a5,0x20401
2040007c:	f9878793          	addi	a5,a5,-104 # 20400f98 <_etext>
20400080:	fef42623          	sw	a5,-20(s0)
    printf("Hello %s, it's good to meet you!", name);
20400084:	fec42583          	lw	a1,-20(s0)
20400088:	204017b7          	lui	a5,0x20401
2040008c:	fa078513          	addi	a0,a5,-96 # 20400fa0 <_etext+0x8>
20400090:	3d1000ef          	jal	ra,20400c60 <printf>

    char animal[20];
    UART_printf("What did you see at the zoo?\n");
20400094:	204017b7          	lui	a5,0x20401
20400098:	fc478513          	addi	a0,a5,-60 # 20400fc4 <_etext+0x2c>
2040009c:	25c000ef          	jal	ra,204002f8 <UART_printf>
    scanf(animal, 20);
204000a0:	fd840793          	addi	a5,s0,-40
204000a4:	01400593          	li	a1,20
204000a8:	00078513          	mv	a0,a5
204000ac:	149000ef          	jal	ra,204009f4 <scanf>
    
    UART_printf("You went to the zoo and see a %s.\n", animal);
204000b0:	fd840793          	addi	a5,s0,-40
204000b4:	00078593          	mv	a1,a5
204000b8:	204017b7          	lui	a5,0x20401
204000bc:	fe478513          	addi	a0,a5,-28 # 20400fe4 <_etext+0x4c>
204000c0:	238000ef          	jal	ra,204002f8 <UART_printf>
}
204000c4:	00000013          	nop
204000c8:	02c12083          	lw	ra,44(sp)
204000cc:	02812403          	lw	s0,40(sp)
204000d0:	03010113          	addi	sp,sp,48
204000d4:	00008067          	ret

204000d8 <read>:
#include <stdarg.h>
#include "UART.h"
#include "string.h"
#include "math.h"

char read() {
204000d8:	fe010113          	addi	sp,sp,-32
204000dc:	00812e23          	sw	s0,28(sp)
204000e0:	02010413          	addi	s0,sp,32
    int r = UART->rxdata;
204000e4:	100137b7          	lui	a5,0x10013
204000e8:	0047a783          	lw	a5,4(a5) # 10013004 <_stack_size+0x10012004>
204000ec:	fef42623          	sw	a5,-20(s0)
    while ((r >> 31) & 1) {
204000f0:	0100006f          	j	20400100 <read+0x28>
        /* wait for full */
        r = UART->rxdata;
204000f4:	100137b7          	lui	a5,0x10013
204000f8:	0047a783          	lw	a5,4(a5) # 10013004 <_stack_size+0x10012004>
204000fc:	fef42623          	sw	a5,-20(s0)
    while ((r >> 31) & 1) {
20400100:	fec42783          	lw	a5,-20(s0)
20400104:	fe07c8e3          	bltz	a5,204000f4 <read+0x1c>
    }
    return r & 0xFF;
20400108:	fec42783          	lw	a5,-20(s0)
2040010c:	0ff7f793          	andi	a5,a5,255
}
20400110:	00078513          	mv	a0,a5
20400114:	01c12403          	lw	s0,28(sp)
20400118:	02010113          	addi	sp,sp,32
2040011c:	00008067          	ret

20400120 <write>:

void write(char c) {
20400120:	fe010113          	addi	sp,sp,-32
20400124:	00812e23          	sw	s0,28(sp)
20400128:	02010413          	addi	s0,sp,32
2040012c:	00050793          	mv	a5,a0
20400130:	fef407a3          	sb	a5,-17(s0)
    while (((UART->txdata >> 31) & 1)) {
20400134:	00000013          	nop
20400138:	100137b7          	lui	a5,0x10013
2040013c:	0007a783          	lw	a5,0(a5) # 10013000 <_stack_size+0x10012000>
20400140:	01f7d793          	srli	a5,a5,0x1f
20400144:	0017f793          	andi	a5,a5,1
20400148:	fe0798e3          	bnez	a5,20400138 <write+0x18>
        /* wait while recieve buffer is full */
    }
    UART->txdata = c;
2040014c:	100137b7          	lui	a5,0x10013
20400150:	fef44703          	lbu	a4,-17(s0)
20400154:	00e7a023          	sw	a4,0(a5) # 10013000 <_stack_size+0x10012000>
}
20400158:	00000013          	nop
2040015c:	01c12403          	lw	s0,28(sp)
20400160:	02010113          	addi	sp,sp,32
20400164:	00008067          	ret

20400168 <printint>:

static char digits[] = "0123456789abcdef";

static void printint(int xx, int base, int sign) {
20400168:	fc010113          	addi	sp,sp,-64
2040016c:	02112e23          	sw	ra,60(sp)
20400170:	02812c23          	sw	s0,56(sp)
20400174:	04010413          	addi	s0,sp,64
20400178:	fca42623          	sw	a0,-52(s0)
2040017c:	fcb42423          	sw	a1,-56(s0)
20400180:	fcc42223          	sw	a2,-60(s0)
    char buf[16];
    int i;
    int x;

    if(sign && (sign = xx < 0))
20400184:	fc442783          	lw	a5,-60(s0)
20400188:	02078663          	beqz	a5,204001b4 <printint+0x4c>
2040018c:	fcc42783          	lw	a5,-52(s0)
20400190:	01f7d793          	srli	a5,a5,0x1f
20400194:	0ff7f793          	andi	a5,a5,255
20400198:	fcf42223          	sw	a5,-60(s0)
2040019c:	fc442783          	lw	a5,-60(s0)
204001a0:	00078a63          	beqz	a5,204001b4 <printint+0x4c>
        x = -xx;
204001a4:	fcc42783          	lw	a5,-52(s0)
204001a8:	40f007b3          	neg	a5,a5
204001ac:	fef42423          	sw	a5,-24(s0)
204001b0:	00c0006f          	j	204001bc <printint+0x54>
    else
        x = xx;
204001b4:	fcc42783          	lw	a5,-52(s0)
204001b8:	fef42423          	sw	a5,-24(s0)

    i = 0;
204001bc:	fe042623          	sw	zero,-20(s0)
    do {
        buf[i++] = digits[x % base];
204001c0:	fe842703          	lw	a4,-24(s0)
204001c4:	fc842783          	lw	a5,-56(s0)
204001c8:	02f766b3          	rem	a3,a4,a5
204001cc:	fec42783          	lw	a5,-20(s0)
204001d0:	00178713          	addi	a4,a5,1
204001d4:	fee42623          	sw	a4,-20(s0)
204001d8:	80001737          	lui	a4,0x80001
204001dc:	00070713          	mv	a4,a4
204001e0:	00e68733          	add	a4,a3,a4
204001e4:	00074703          	lbu	a4,0(a4) # 80001000 <_edata+0xffffffd8>
204001e8:	ff040693          	addi	a3,s0,-16
204001ec:	00f687b3          	add	a5,a3,a5
204001f0:	fee78423          	sb	a4,-24(a5)
    } while((x /= base) != 0);
204001f4:	fe842703          	lw	a4,-24(s0)
204001f8:	fc842783          	lw	a5,-56(s0)
204001fc:	02f747b3          	div	a5,a4,a5
20400200:	fef42423          	sw	a5,-24(s0)
20400204:	fe842783          	lw	a5,-24(s0)
20400208:	fa079ce3          	bnez	a5,204001c0 <printint+0x58>

    if(sign)
2040020c:	fc442783          	lw	a5,-60(s0)
20400210:	02078e63          	beqz	a5,2040024c <printint+0xe4>
        buf[i++] = '-';
20400214:	fec42783          	lw	a5,-20(s0)
20400218:	00178713          	addi	a4,a5,1
2040021c:	fee42623          	sw	a4,-20(s0)
20400220:	ff040713          	addi	a4,s0,-16
20400224:	00f707b3          	add	a5,a4,a5
20400228:	02d00713          	li	a4,45
2040022c:	fee78423          	sb	a4,-24(a5)

    while(--i >= 0)
20400230:	01c0006f          	j	2040024c <printint+0xe4>
        write(buf[i]);
20400234:	fec42783          	lw	a5,-20(s0)
20400238:	ff040713          	addi	a4,s0,-16
2040023c:	00f707b3          	add	a5,a4,a5
20400240:	fe87c783          	lbu	a5,-24(a5)
20400244:	00078513          	mv	a0,a5
20400248:	ed9ff0ef          	jal	ra,20400120 <write>
    while(--i >= 0)
2040024c:	fec42783          	lw	a5,-20(s0)
20400250:	fff78793          	addi	a5,a5,-1
20400254:	fef42623          	sw	a5,-20(s0)
20400258:	fec42783          	lw	a5,-20(s0)
2040025c:	fc07dce3          	bgez	a5,20400234 <printint+0xcc>
}
20400260:	00000013          	nop
20400264:	03c12083          	lw	ra,60(sp)
20400268:	03812403          	lw	s0,56(sp)
2040026c:	04010113          	addi	sp,sp,64
20400270:	00008067          	ret

20400274 <printptr>:

static void printptr(int x) {
20400274:	fd010113          	addi	sp,sp,-48
20400278:	02112623          	sw	ra,44(sp)
2040027c:	02812423          	sw	s0,40(sp)
20400280:	03010413          	addi	s0,sp,48
20400284:	fca42e23          	sw	a0,-36(s0)
    int i;
    write('0');
20400288:	03000513          	li	a0,48
2040028c:	e95ff0ef          	jal	ra,20400120 <write>
    write('x');
20400290:	07800513          	li	a0,120
20400294:	e8dff0ef          	jal	ra,20400120 <write>
    for (i = 0; i < (sizeof(int) * 2); i++, x <<= 4)
20400298:	fe042623          	sw	zero,-20(s0)
2040029c:	03c0006f          	j	204002d8 <printptr+0x64>
        write(digits[x >> (sizeof(int) * 8 - 4)]);
204002a0:	fdc42783          	lw	a5,-36(s0)
204002a4:	41c7d713          	srai	a4,a5,0x1c
204002a8:	800017b7          	lui	a5,0x80001
204002ac:	00078793          	mv	a5,a5
204002b0:	00f707b3          	add	a5,a4,a5
204002b4:	0007c783          	lbu	a5,0(a5) # 80001000 <_edata+0xffffffd8>
204002b8:	00078513          	mv	a0,a5
204002bc:	e65ff0ef          	jal	ra,20400120 <write>
    for (i = 0; i < (sizeof(int) * 2); i++, x <<= 4)
204002c0:	fec42783          	lw	a5,-20(s0)
204002c4:	00178793          	addi	a5,a5,1
204002c8:	fef42623          	sw	a5,-20(s0)
204002cc:	fdc42783          	lw	a5,-36(s0)
204002d0:	00479793          	slli	a5,a5,0x4
204002d4:	fcf42e23          	sw	a5,-36(s0)
204002d8:	fec42703          	lw	a4,-20(s0)
204002dc:	00700793          	li	a5,7
204002e0:	fce7f0e3          	bgeu	a5,a4,204002a0 <printptr+0x2c>
}
204002e4:	00000013          	nop
204002e8:	02c12083          	lw	ra,44(sp)
204002ec:	02812403          	lw	s0,40(sp)
204002f0:	03010113          	addi	sp,sp,48
204002f4:	00008067          	ret

204002f8 <UART_printf>:

void UART_printf(char *fmt, ...) {
204002f8:	fb010113          	addi	sp,sp,-80
204002fc:	02112623          	sw	ra,44(sp)
20400300:	02812423          	sw	s0,40(sp)
20400304:	03010413          	addi	s0,sp,48
20400308:	fca42e23          	sw	a0,-36(s0)
2040030c:	00b42223          	sw	a1,4(s0)
20400310:	00c42423          	sw	a2,8(s0)
20400314:	00d42623          	sw	a3,12(s0)
20400318:	00e42823          	sw	a4,16(s0)
2040031c:	00f42a23          	sw	a5,20(s0)
20400320:	01042c23          	sw	a6,24(s0)
20400324:	01142e23          	sw	a7,28(s0)
    va_list ap;
    int i, c;
    char *s;

    va_start(ap, fmt);
20400328:	02040793          	addi	a5,s0,32
2040032c:	fe478793          	addi	a5,a5,-28
20400330:	fef42023          	sw	a5,-32(s0)
    for(i = 0; (c = fmt[i] & 0xff) != 0; i++) {
20400334:	fe042623          	sw	zero,-20(s0)
20400338:	18c0006f          	j	204004c4 <UART_printf+0x1cc>
        if(c != '%') {
2040033c:	fe442703          	lw	a4,-28(s0)
20400340:	02500793          	li	a5,37
20400344:	00f70c63          	beq	a4,a5,2040035c <UART_printf+0x64>
            write(c);
20400348:	fe442783          	lw	a5,-28(s0)
2040034c:	0ff7f793          	andi	a5,a5,255
20400350:	00078513          	mv	a0,a5
20400354:	dcdff0ef          	jal	ra,20400120 <write>
            continue;
20400358:	1600006f          	j	204004b8 <UART_printf+0x1c0>
        }
        c = fmt[++i] & 0xff;
2040035c:	fec42783          	lw	a5,-20(s0)
20400360:	00178793          	addi	a5,a5,1
20400364:	fef42623          	sw	a5,-20(s0)
20400368:	fec42783          	lw	a5,-20(s0)
2040036c:	fdc42703          	lw	a4,-36(s0)
20400370:	00f707b3          	add	a5,a4,a5
20400374:	0007c783          	lbu	a5,0(a5)
20400378:	fef42223          	sw	a5,-28(s0)
        if(c == 0)
2040037c:	fe442783          	lw	a5,-28(s0)
20400380:	16078263          	beqz	a5,204004e4 <UART_printf+0x1ec>
20400384:	fe442703          	lw	a4,-28(s0)
20400388:	07000793          	li	a5,112
2040038c:	08f70863          	beq	a4,a5,2040041c <UART_printf+0x124>
20400390:	fe442703          	lw	a4,-28(s0)
20400394:	07000793          	li	a5,112
20400398:	02e7c063          	blt	a5,a4,204003b8 <UART_printf+0xc0>
2040039c:	fe442703          	lw	a4,-28(s0)
204003a0:	02500793          	li	a5,37
204003a4:	0ef70663          	beq	a4,a5,20400490 <UART_printf+0x198>
204003a8:	fe442703          	lw	a4,-28(s0)
204003ac:	06400793          	li	a5,100
204003b0:	02f70263          	beq	a4,a5,204003d4 <UART_printf+0xdc>
204003b4:	0e80006f          	j	2040049c <UART_printf+0x1a4>
204003b8:	fe442703          	lw	a4,-28(s0)
204003bc:	07300793          	li	a5,115
204003c0:	06f70c63          	beq	a4,a5,20400438 <UART_printf+0x140>
204003c4:	fe442703          	lw	a4,-28(s0)
204003c8:	07800793          	li	a5,120
204003cc:	02f70663          	beq	a4,a5,204003f8 <UART_printf+0x100>
204003d0:	0cc0006f          	j	2040049c <UART_printf+0x1a4>
            break;
        switch(c) {
            case 'd':
                printint(va_arg(ap, int), 10, 1);
204003d4:	fe042783          	lw	a5,-32(s0)
204003d8:	00478713          	addi	a4,a5,4
204003dc:	fee42023          	sw	a4,-32(s0)
204003e0:	0007a783          	lw	a5,0(a5)
204003e4:	00100613          	li	a2,1
204003e8:	00a00593          	li	a1,10
204003ec:	00078513          	mv	a0,a5
204003f0:	d79ff0ef          	jal	ra,20400168 <printint>
                break;
204003f4:	0c40006f          	j	204004b8 <UART_printf+0x1c0>
            case 'x':
                printint(va_arg(ap, int), 16, 1);
204003f8:	fe042783          	lw	a5,-32(s0)
204003fc:	00478713          	addi	a4,a5,4
20400400:	fee42023          	sw	a4,-32(s0)
20400404:	0007a783          	lw	a5,0(a5)
20400408:	00100613          	li	a2,1
2040040c:	01000593          	li	a1,16
20400410:	00078513          	mv	a0,a5
20400414:	d55ff0ef          	jal	ra,20400168 <printint>
                break;
20400418:	0a00006f          	j	204004b8 <UART_printf+0x1c0>
            case 'p':
                printptr(va_arg(ap, int));
2040041c:	fe042783          	lw	a5,-32(s0)
20400420:	00478713          	addi	a4,a5,4
20400424:	fee42023          	sw	a4,-32(s0)
20400428:	0007a783          	lw	a5,0(a5)
2040042c:	00078513          	mv	a0,a5
20400430:	e45ff0ef          	jal	ra,20400274 <printptr>
                break;
20400434:	0840006f          	j	204004b8 <UART_printf+0x1c0>
            case 's':
                if((s = va_arg(ap, char*)) == 0)
20400438:	fe042783          	lw	a5,-32(s0)
2040043c:	00478713          	addi	a4,a5,4
20400440:	fee42023          	sw	a4,-32(s0)
20400444:	0007a783          	lw	a5,0(a5)
20400448:	fef42423          	sw	a5,-24(s0)
2040044c:	fe842783          	lw	a5,-24(s0)
20400450:	02079863          	bnez	a5,20400480 <UART_printf+0x188>
                    s = "(null)";
20400454:	204017b7          	lui	a5,0x20401
20400458:	00878793          	addi	a5,a5,8 # 20401008 <_etext+0x70>
2040045c:	fef42423          	sw	a5,-24(s0)
                for(; *s; s++)
20400460:	0200006f          	j	20400480 <UART_printf+0x188>
                    write(*s);
20400464:	fe842783          	lw	a5,-24(s0)
20400468:	0007c783          	lbu	a5,0(a5)
2040046c:	00078513          	mv	a0,a5
20400470:	cb1ff0ef          	jal	ra,20400120 <write>
                for(; *s; s++)
20400474:	fe842783          	lw	a5,-24(s0)
20400478:	00178793          	addi	a5,a5,1
2040047c:	fef42423          	sw	a5,-24(s0)
20400480:	fe842783          	lw	a5,-24(s0)
20400484:	0007c783          	lbu	a5,0(a5)
20400488:	fc079ee3          	bnez	a5,20400464 <UART_printf+0x16c>
                break;
2040048c:	02c0006f          	j	204004b8 <UART_printf+0x1c0>
            case '%':
                write('%');
20400490:	02500513          	li	a0,37
20400494:	c8dff0ef          	jal	ra,20400120 <write>
                break;
20400498:	0200006f          	j	204004b8 <UART_printf+0x1c0>
            default:
                // Print unknown % sequence to draw attention.
                write('%');
2040049c:	02500513          	li	a0,37
204004a0:	c81ff0ef          	jal	ra,20400120 <write>
                write(c);
204004a4:	fe442783          	lw	a5,-28(s0)
204004a8:	0ff7f793          	andi	a5,a5,255
204004ac:	00078513          	mv	a0,a5
204004b0:	c71ff0ef          	jal	ra,20400120 <write>
                break;
204004b4:	00000013          	nop
    for(i = 0; (c = fmt[i] & 0xff) != 0; i++) {
204004b8:	fec42783          	lw	a5,-20(s0)
204004bc:	00178793          	addi	a5,a5,1
204004c0:	fef42623          	sw	a5,-20(s0)
204004c4:	fec42783          	lw	a5,-20(s0)
204004c8:	fdc42703          	lw	a4,-36(s0)
204004cc:	00f707b3          	add	a5,a4,a5
204004d0:	0007c783          	lbu	a5,0(a5)
204004d4:	fef42223          	sw	a5,-28(s0)
204004d8:	fe442783          	lw	a5,-28(s0)
204004dc:	e60790e3          	bnez	a5,2040033c <UART_printf+0x44>
        }
    }
}
204004e0:	0080006f          	j	204004e8 <UART_printf+0x1f0>
            break;
204004e4:	00000013          	nop
}
204004e8:	00000013          	nop
204004ec:	02c12083          	lw	ra,44(sp)
204004f0:	02812403          	lw	s0,40(sp)
204004f4:	05010113          	addi	sp,sp,80
204004f8:	00008067          	ret

204004fc <digit_to_hex>:
#include "math.h"

/* Convert single hex digit value to hex char */
char digit_to_hex(int x) {
204004fc:	fe010113          	addi	sp,sp,-32
20400500:	00812e23          	sw	s0,28(sp)
20400504:	02010413          	addi	s0,sp,32
20400508:	fea42623          	sw	a0,-20(s0)
    if (x < 10) {
2040050c:	fec42703          	lw	a4,-20(s0)
20400510:	00900793          	li	a5,9
20400514:	00e7cc63          	blt	a5,a4,2040052c <digit_to_hex+0x30>
        return x + '0';
20400518:	fec42783          	lw	a5,-20(s0)
2040051c:	0ff7f793          	andi	a5,a5,255
20400520:	03078793          	addi	a5,a5,48
20400524:	0ff7f793          	andi	a5,a5,255
20400528:	0140006f          	j	2040053c <digit_to_hex+0x40>
    } else {
        return x - 10 + 'A';
2040052c:	fec42783          	lw	a5,-20(s0)
20400530:	0ff7f793          	andi	a5,a5,255
20400534:	03778793          	addi	a5,a5,55
20400538:	0ff7f793          	andi	a5,a5,255
    }
}
2040053c:	00078513          	mv	a0,a5
20400540:	01c12403          	lw	s0,28(sp)
20400544:	02010113          	addi	sp,sp,32
20400548:	00008067          	ret

2040054c <hex_to_digit>:

/* Convert hex char to single hex digit value */
int hex_to_digit(char c) {
2040054c:	fe010113          	addi	sp,sp,-32
20400550:	00812e23          	sw	s0,28(sp)
20400554:	02010413          	addi	s0,sp,32
20400558:	00050793          	mv	a5,a0
2040055c:	fef407a3          	sb	a5,-17(s0)
    if (c >= '0' && c <= '9') return c - '0';
20400560:	fef44703          	lbu	a4,-17(s0)
20400564:	02f00793          	li	a5,47
20400568:	00e7fe63          	bgeu	a5,a4,20400584 <hex_to_digit+0x38>
2040056c:	fef44703          	lbu	a4,-17(s0)
20400570:	03900793          	li	a5,57
20400574:	00e7e863          	bltu	a5,a4,20400584 <hex_to_digit+0x38>
20400578:	fef44783          	lbu	a5,-17(s0)
2040057c:	fd078793          	addi	a5,a5,-48
20400580:	0500006f          	j	204005d0 <hex_to_digit+0x84>
    else if (c >= 'a' && c <='f') return c - 'a' + 10;
20400584:	fef44703          	lbu	a4,-17(s0)
20400588:	06000793          	li	a5,96
2040058c:	00e7fe63          	bgeu	a5,a4,204005a8 <hex_to_digit+0x5c>
20400590:	fef44703          	lbu	a4,-17(s0)
20400594:	06600793          	li	a5,102
20400598:	00e7e863          	bltu	a5,a4,204005a8 <hex_to_digit+0x5c>
2040059c:	fef44783          	lbu	a5,-17(s0)
204005a0:	fa978793          	addi	a5,a5,-87
204005a4:	02c0006f          	j	204005d0 <hex_to_digit+0x84>
    else if (c >= 'A' && c <='F') return  c - 'A' + 10;
204005a8:	fef44703          	lbu	a4,-17(s0)
204005ac:	04000793          	li	a5,64
204005b0:	00e7fe63          	bgeu	a5,a4,204005cc <hex_to_digit+0x80>
204005b4:	fef44703          	lbu	a4,-17(s0)
204005b8:	04600793          	li	a5,70
204005bc:	00e7e863          	bltu	a5,a4,204005cc <hex_to_digit+0x80>
204005c0:	fef44783          	lbu	a5,-17(s0)
204005c4:	fc978793          	addi	a5,a5,-55
204005c8:	0080006f          	j	204005d0 <hex_to_digit+0x84>
    return -1;
204005cc:	fff00793          	li	a5,-1
}
204005d0:	00078513          	mv	a0,a5
204005d4:	01c12403          	lw	s0,28(sp)
204005d8:	02010113          	addi	sp,sp,32
204005dc:	00008067          	ret

204005e0 <hex_to_int>:

/* Convert hex to int */
int hex_to_int(char* s) {
204005e0:	fd010113          	addi	sp,sp,-48
204005e4:	02112623          	sw	ra,44(sp)
204005e8:	02812423          	sw	s0,40(sp)
204005ec:	03010413          	addi	s0,sp,48
204005f0:	fca42e23          	sw	a0,-36(s0)
    int val = 0;
204005f4:	fe042623          	sw	zero,-20(s0)
    while (*s) {
204005f8:	0440006f          	j	2040063c <hex_to_int+0x5c>
        int c = *s++; 
204005fc:	fdc42783          	lw	a5,-36(s0)
20400600:	00178713          	addi	a4,a5,1
20400604:	fce42e23          	sw	a4,-36(s0)
20400608:	0007c783          	lbu	a5,0(a5)
2040060c:	fef42423          	sw	a5,-24(s0)

        c = hex_to_digit((char)c);
20400610:	fe842783          	lw	a5,-24(s0)
20400614:	0ff7f793          	andi	a5,a5,255
20400618:	00078513          	mv	a0,a5
2040061c:	f31ff0ef          	jal	ra,2040054c <hex_to_digit>
20400620:	fea42423          	sw	a0,-24(s0)

        /* Insert Binary Representation in Place */
        val = (val << 4) | (c & 0xF);
20400624:	fec42783          	lw	a5,-20(s0)
20400628:	00479713          	slli	a4,a5,0x4
2040062c:	fe842783          	lw	a5,-24(s0)
20400630:	00f7f793          	andi	a5,a5,15
20400634:	00f767b3          	or	a5,a4,a5
20400638:	fef42623          	sw	a5,-20(s0)
    while (*s) {
2040063c:	fdc42783          	lw	a5,-36(s0)
20400640:	0007c783          	lbu	a5,0(a5)
20400644:	fa079ce3          	bnez	a5,204005fc <hex_to_int+0x1c>
    }
    return val;
20400648:	fec42783          	lw	a5,-20(s0)
}
2040064c:	00078513          	mv	a0,a5
20400650:	02c12083          	lw	ra,44(sp)
20400654:	02812403          	lw	s0,40(sp)
20400658:	03010113          	addi	sp,sp,48
2040065c:	00008067          	ret

20400660 <int_to_hex>:

/* Convert int to hex with max 32 bytes */
char* int_to_hex(int x, char *s) {
20400660:	fd010113          	addi	sp,sp,-48
20400664:	02112623          	sw	ra,44(sp)
20400668:	02812423          	sw	s0,40(sp)
2040066c:	02912223          	sw	s1,36(sp)
20400670:	03010413          	addi	s0,sp,48
20400674:	fca42e23          	sw	a0,-36(s0)
20400678:	fcb42c23          	sw	a1,-40(s0)
    for (int i = 7; i >= 0; i--) {
2040067c:	00700793          	li	a5,7
20400680:	fef42623          	sw	a5,-20(s0)
20400684:	0440006f          	j	204006c8 <int_to_hex+0x68>
        int d = (x & 0xF);
20400688:	fdc42783          	lw	a5,-36(s0)
2040068c:	00f7f793          	andi	a5,a5,15
20400690:	fef42423          	sw	a5,-24(s0)
        s[i] = digit_to_hex(d);
20400694:	fec42783          	lw	a5,-20(s0)
20400698:	fd842703          	lw	a4,-40(s0)
2040069c:	00f704b3          	add	s1,a4,a5
204006a0:	fe842503          	lw	a0,-24(s0)
204006a4:	e59ff0ef          	jal	ra,204004fc <digit_to_hex>
204006a8:	00050793          	mv	a5,a0
204006ac:	00f48023          	sb	a5,0(s1)
        x = x >> 4;
204006b0:	fdc42783          	lw	a5,-36(s0)
204006b4:	4047d793          	srai	a5,a5,0x4
204006b8:	fcf42e23          	sw	a5,-36(s0)
    for (int i = 7; i >= 0; i--) {
204006bc:	fec42783          	lw	a5,-20(s0)
204006c0:	fff78793          	addi	a5,a5,-1
204006c4:	fef42623          	sw	a5,-20(s0)
204006c8:	fec42783          	lw	a5,-20(s0)
204006cc:	fa07dee3          	bgez	a5,20400688 <int_to_hex+0x28>
    }

    return s;
204006d0:	fd842783          	lw	a5,-40(s0)
}
204006d4:	00078513          	mv	a0,a5
204006d8:	02c12083          	lw	ra,44(sp)
204006dc:	02812403          	lw	s0,40(sp)
204006e0:	02412483          	lw	s1,36(sp)
204006e4:	03010113          	addi	sp,sp,48
204006e8:	00008067          	ret

204006ec <strlen>:
#include "string.h"

/* Return string length */
int strlen(const char *s) {
204006ec:	fd010113          	addi	sp,sp,-48
204006f0:	02812623          	sw	s0,44(sp)
204006f4:	03010413          	addi	s0,sp,48
204006f8:	fca42e23          	sw	a0,-36(s0)
    int n;

    for(n = 0; s[n] != 0; n++)
204006fc:	fe042623          	sw	zero,-20(s0)
20400700:	0100006f          	j	20400710 <strlen+0x24>
20400704:	fec42783          	lw	a5,-20(s0)
20400708:	00178793          	addi	a5,a5,1
2040070c:	fef42623          	sw	a5,-20(s0)
20400710:	fec42783          	lw	a5,-20(s0)
20400714:	fdc42703          	lw	a4,-36(s0)
20400718:	00f707b3          	add	a5,a4,a5
2040071c:	0007c783          	lbu	a5,0(a5)
20400720:	fe0792e3          	bnez	a5,20400704 <strlen+0x18>
        ;
    return n;
20400724:	fec42783          	lw	a5,-20(s0)
}
20400728:	00078513          	mv	a0,a5
2040072c:	02c12403          	lw	s0,44(sp)
20400730:	03010113          	addi	sp,sp,48
20400734:	00008067          	ret

20400738 <strcat>:

/* Concatenate src to dest of total length size */
char* strcat(char* dest, const char* src, int size) {
20400738:	fd010113          	addi	sp,sp,-48
2040073c:	02112623          	sw	ra,44(sp)
20400740:	02812423          	sw	s0,40(sp)
20400744:	02912223          	sw	s1,36(sp)
20400748:	03010413          	addi	s0,sp,48
2040074c:	fca42e23          	sw	a0,-36(s0)
20400750:	fcb42c23          	sw	a1,-40(s0)
20400754:	fcc42a23          	sw	a2,-44(s0)
    /* Check if overflows dest */
    if (strlen(dest) + strlen(src) > size-1) return 0;
20400758:	fdc42503          	lw	a0,-36(s0)
2040075c:	f91ff0ef          	jal	ra,204006ec <strlen>
20400760:	00050493          	mv	s1,a0
20400764:	fd842503          	lw	a0,-40(s0)
20400768:	f85ff0ef          	jal	ra,204006ec <strlen>
2040076c:	00050793          	mv	a5,a0
20400770:	00f487b3          	add	a5,s1,a5
20400774:	fd442703          	lw	a4,-44(s0)
20400778:	00e7c663          	blt	a5,a4,20400784 <strcat+0x4c>
2040077c:	00000793          	li	a5,0
20400780:	05c0006f          	j	204007dc <strcat+0xa4>

    char* ptr = dest + strlen(dest);
20400784:	fdc42503          	lw	a0,-36(s0)
20400788:	f65ff0ef          	jal	ra,204006ec <strlen>
2040078c:	00050793          	mv	a5,a0
20400790:	00078713          	mv	a4,a5
20400794:	fdc42783          	lw	a5,-36(s0)
20400798:	00e787b3          	add	a5,a5,a4
2040079c:	fef42623          	sw	a5,-20(s0)

    while (*src != '\0')
204007a0:	0240006f          	j	204007c4 <strcat+0x8c>
        *ptr++ = *src++;
204007a4:	fd842703          	lw	a4,-40(s0)
204007a8:	00170793          	addi	a5,a4,1
204007ac:	fcf42c23          	sw	a5,-40(s0)
204007b0:	fec42783          	lw	a5,-20(s0)
204007b4:	00178693          	addi	a3,a5,1
204007b8:	fed42623          	sw	a3,-20(s0)
204007bc:	00074703          	lbu	a4,0(a4)
204007c0:	00e78023          	sb	a4,0(a5)
    while (*src != '\0')
204007c4:	fd842783          	lw	a5,-40(s0)
204007c8:	0007c783          	lbu	a5,0(a5)
204007cc:	fc079ce3          	bnez	a5,204007a4 <strcat+0x6c>

    *ptr = '\0';
204007d0:	fec42783          	lw	a5,-20(s0)
204007d4:	00078023          	sb	zero,0(a5)

    return dest;
204007d8:	fdc42783          	lw	a5,-36(s0)
}
204007dc:	00078513          	mv	a0,a5
204007e0:	02c12083          	lw	ra,44(sp)
204007e4:	02812403          	lw	s0,40(sp)
204007e8:	02412483          	lw	s1,36(sp)
204007ec:	03010113          	addi	sp,sp,48
204007f0:	00008067          	ret

204007f4 <strcatc>:

/* Concatenate char src to destination of total length size */
char* strcatc(char* dest, char src, int size) {
204007f4:	fd010113          	addi	sp,sp,-48
204007f8:	02112623          	sw	ra,44(sp)
204007fc:	02812423          	sw	s0,40(sp)
20400800:	03010413          	addi	s0,sp,48
20400804:	fca42e23          	sw	a0,-36(s0)
20400808:	00058793          	mv	a5,a1
2040080c:	fcc42a23          	sw	a2,-44(s0)
20400810:	fcf40da3          	sb	a5,-37(s0)
    /* Check if overflows dest*/
    if (strlen(dest) + 1 >= size-1) return 0;
20400814:	fdc42503          	lw	a0,-36(s0)
20400818:	ed5ff0ef          	jal	ra,204006ec <strlen>
2040081c:	00050793          	mv	a5,a0
20400820:	00178713          	addi	a4,a5,1
20400824:	fd442783          	lw	a5,-44(s0)
20400828:	fff78793          	addi	a5,a5,-1
2040082c:	00f74663          	blt	a4,a5,20400838 <strcatc+0x44>
20400830:	00000793          	li	a5,0
20400834:	0400006f          	j	20400874 <strcatc+0x80>

    /* Add char onto end */
    char* p = dest + strlen(dest);
20400838:	fdc42503          	lw	a0,-36(s0)
2040083c:	eb1ff0ef          	jal	ra,204006ec <strlen>
20400840:	00050793          	mv	a5,a0
20400844:	00078713          	mv	a4,a5
20400848:	fdc42783          	lw	a5,-36(s0)
2040084c:	00e787b3          	add	a5,a5,a4
20400850:	fef42623          	sw	a5,-20(s0)
    *p++ = src;
20400854:	fec42783          	lw	a5,-20(s0)
20400858:	00178713          	addi	a4,a5,1
2040085c:	fee42623          	sw	a4,-20(s0)
20400860:	fdb44703          	lbu	a4,-37(s0)
20400864:	00e78023          	sb	a4,0(a5)
    *p = '\0';
20400868:	fec42783          	lw	a5,-20(s0)
2040086c:	00078023          	sb	zero,0(a5)

    return dest;
20400870:	fdc42783          	lw	a5,-36(s0)
}
20400874:	00078513          	mv	a0,a5
20400878:	02c12083          	lw	ra,44(sp)
2040087c:	02812403          	lw	s0,40(sp)
20400880:	03010113          	addi	sp,sp,48
20400884:	00008067          	ret

20400888 <strncpy>:

/* Copy string from src to dest of total length size */
char* strncpy(char* dest, const char* src, int num, int size) {
20400888:	fd010113          	addi	sp,sp,-48
2040088c:	02112623          	sw	ra,44(sp)
20400890:	02812423          	sw	s0,40(sp)
20400894:	03010413          	addi	s0,sp,48
20400898:	fca42e23          	sw	a0,-36(s0)
2040089c:	fcb42c23          	sw	a1,-40(s0)
204008a0:	fcc42a23          	sw	a2,-44(s0)
204008a4:	fcd42823          	sw	a3,-48(s0)
    /* Return if no memory is allocated to the dest or dest overflows */
    if (dest == 0) return 0;
204008a8:	fdc42783          	lw	a5,-36(s0)
204008ac:	00079663          	bnez	a5,204008b8 <strncpy+0x30>
204008b0:	00000793          	li	a5,0
204008b4:	0780006f          	j	2040092c <strncpy+0xa4>
    if (strlen(src) >= size-1) return 0;
204008b8:	fd842503          	lw	a0,-40(s0)
204008bc:	e31ff0ef          	jal	ra,204006ec <strlen>
204008c0:	00050713          	mv	a4,a0
204008c4:	fd042783          	lw	a5,-48(s0)
204008c8:	fff78793          	addi	a5,a5,-1
204008cc:	00f74663          	blt	a4,a5,204008d8 <strncpy+0x50>
204008d0:	00000793          	li	a5,0
204008d4:	0580006f          	j	2040092c <strncpy+0xa4>

    /* Copy over string */
    char* ptr = dest;
204008d8:	fdc42783          	lw	a5,-36(s0)
204008dc:	fef42623          	sw	a5,-20(s0)
    while (*src && num--) {
204008e0:	0240006f          	j	20400904 <strncpy+0x7c>
        *dest++ = *src++;
204008e4:	fd842703          	lw	a4,-40(s0)
204008e8:	00170793          	addi	a5,a4,1
204008ec:	fcf42c23          	sw	a5,-40(s0)
204008f0:	fdc42783          	lw	a5,-36(s0)
204008f4:	00178693          	addi	a3,a5,1
204008f8:	fcd42e23          	sw	a3,-36(s0)
204008fc:	00074703          	lbu	a4,0(a4)
20400900:	00e78023          	sb	a4,0(a5)
    while (*src && num--) {
20400904:	fd842783          	lw	a5,-40(s0)
20400908:	0007c783          	lbu	a5,0(a5)
2040090c:	00078a63          	beqz	a5,20400920 <strncpy+0x98>
20400910:	fd442783          	lw	a5,-44(s0)
20400914:	fff78713          	addi	a4,a5,-1
20400918:	fce42a23          	sw	a4,-44(s0)
2040091c:	fc0794e3          	bnez	a5,204008e4 <strncpy+0x5c>
    }
    *dest = '\0';
20400920:	fdc42783          	lw	a5,-36(s0)
20400924:	00078023          	sb	zero,0(a5)

    return ptr;
20400928:	fec42783          	lw	a5,-20(s0)
}
2040092c:	00078513          	mv	a0,a5
20400930:	02c12083          	lw	ra,44(sp)
20400934:	02812403          	lw	s0,40(sp)
20400938:	03010113          	addi	sp,sp,48
2040093c:	00008067          	ret

20400940 <strcmp>:

/* Boolean string equals, returns 0 if true, 1 if false */
int strcmp(const char *s1, const char *s2) {
20400940:	fe010113          	addi	sp,sp,-32
20400944:	00812e23          	sw	s0,28(sp)
20400948:	02010413          	addi	s0,sp,32
2040094c:	fea42623          	sw	a0,-20(s0)
20400950:	feb42423          	sw	a1,-24(s0)
    while((*s1!='\0') || (*s2!='\0')) {
20400954:	0540006f          	j	204009a8 <strcmp+0x68>
        if(*s1 > *s2) return 0;
20400958:	fec42783          	lw	a5,-20(s0)
2040095c:	0007c703          	lbu	a4,0(a5)
20400960:	fe842783          	lw	a5,-24(s0)
20400964:	0007c783          	lbu	a5,0(a5)
20400968:	00e7f663          	bgeu	a5,a4,20400974 <strcmp+0x34>
2040096c:	00000793          	li	a5,0
20400970:	0540006f          	j	204009c4 <strcmp+0x84>
        if(*s1 < *s2) return 0;
20400974:	fec42783          	lw	a5,-20(s0)
20400978:	0007c703          	lbu	a4,0(a5)
2040097c:	fe842783          	lw	a5,-24(s0)
20400980:	0007c783          	lbu	a5,0(a5)
20400984:	00f77663          	bgeu	a4,a5,20400990 <strcmp+0x50>
20400988:	00000793          	li	a5,0
2040098c:	0380006f          	j	204009c4 <strcmp+0x84>
        s1++;
20400990:	fec42783          	lw	a5,-20(s0)
20400994:	00178793          	addi	a5,a5,1
20400998:	fef42623          	sw	a5,-20(s0)
        s2++;
2040099c:	fe842783          	lw	a5,-24(s0)
204009a0:	00178793          	addi	a5,a5,1
204009a4:	fef42423          	sw	a5,-24(s0)
    while((*s1!='\0') || (*s2!='\0')) {
204009a8:	fec42783          	lw	a5,-20(s0)
204009ac:	0007c783          	lbu	a5,0(a5)
204009b0:	fa0794e3          	bnez	a5,20400958 <strcmp+0x18>
204009b4:	fe842783          	lw	a5,-24(s0)
204009b8:	0007c783          	lbu	a5,0(a5)
204009bc:	f8079ee3          	bnez	a5,20400958 <strcmp+0x18>
    }
    return 1;
204009c0:	00100793          	li	a5,1
}
204009c4:	00078513          	mv	a0,a5
204009c8:	01c12403          	lw	s0,28(sp)
204009cc:	02010113          	addi	sp,sp,32
204009d0:	00008067          	ret

204009d4 <svc_read>:
#include "scanf.h"
#include "printf.h"

void svc_read(char *c) {
204009d4:	fe010113          	addi	sp,sp,-32
204009d8:	00812e23          	sw	s0,28(sp)
204009dc:	02010413          	addi	s0,sp,32
204009e0:	fea42623          	sw	a0,-20(s0)
    /*asm volatile ("MOV R0, %0" : : "r" (c));*/
    /*asm volatile ("PUSH {LR}");*/
    /*asm volatile ("svc 1");*/
    /*asm volatile ("POP {LR}");*/
}
204009e4:	00000013          	nop
204009e8:	01c12403          	lw	s0,28(sp)
204009ec:	02010113          	addi	sp,sp,32
204009f0:	00008067          	ret

204009f4 <scanf>:

void scanf(char *buf, int count) {
204009f4:	fd010113          	addi	sp,sp,-48
204009f8:	02112623          	sw	ra,44(sp)
204009fc:	02812423          	sw	s0,40(sp)
20400a00:	03010413          	addi	s0,sp,48
20400a04:	fca42e23          	sw	a0,-36(s0)
20400a08:	fcb42c23          	sw	a1,-40(s0)
    for (int i = 0; i < count; i++) {
20400a0c:	fe042623          	sw	zero,-20(s0)
20400a10:	0800006f          	j	20400a90 <scanf+0x9c>
        svc_read(&buf[i]);
20400a14:	fec42783          	lw	a5,-20(s0)
20400a18:	fdc42703          	lw	a4,-36(s0)
20400a1c:	00f707b3          	add	a5,a4,a5
20400a20:	00078513          	mv	a0,a5
20400a24:	fb1ff0ef          	jal	ra,204009d4 <svc_read>
        printf("%c", buf[i]);      // Echo the output
20400a28:	fec42783          	lw	a5,-20(s0)
20400a2c:	fdc42703          	lw	a4,-36(s0)
20400a30:	00f707b3          	add	a5,a4,a5
20400a34:	0007c783          	lbu	a5,0(a5)
20400a38:	00078593          	mv	a1,a5
20400a3c:	204017b7          	lui	a5,0x20401
20400a40:	01078513          	addi	a0,a5,16 # 20401010 <_etext+0x78>
20400a44:	21c000ef          	jal	ra,20400c60 <printf>
        
        /* Continue until we see carriage return */
        if (buf[i] == '\r') {
20400a48:	fec42783          	lw	a5,-20(s0)
20400a4c:	fdc42703          	lw	a4,-36(s0)
20400a50:	00f707b3          	add	a5,a4,a5
20400a54:	0007c703          	lbu	a4,0(a5)
20400a58:	00d00793          	li	a5,13
20400a5c:	02f71463          	bne	a4,a5,20400a84 <scanf+0x90>
            buf[i] = '\0';         // Terminate string with Null character.
20400a60:	fec42783          	lw	a5,-20(s0)
20400a64:	fdc42703          	lw	a4,-36(s0)
20400a68:	00f707b3          	add	a5,a4,a5
20400a6c:	00078023          	sb	zero,0(a5)
            printf("%c", '\n');    // Nice printing.
20400a70:	00a00593          	li	a1,10
20400a74:	204017b7          	lui	a5,0x20401
20400a78:	01078513          	addi	a0,a5,16 # 20401010 <_etext+0x78>
20400a7c:	1e4000ef          	jal	ra,20400c60 <printf>
            return;
20400a80:	0400006f          	j	20400ac0 <scanf+0xcc>
    for (int i = 0; i < count; i++) {
20400a84:	fec42783          	lw	a5,-20(s0)
20400a88:	00178793          	addi	a5,a5,1
20400a8c:	fef42623          	sw	a5,-20(s0)
20400a90:	fec42703          	lw	a4,-20(s0)
20400a94:	fd842783          	lw	a5,-40(s0)
20400a98:	f6f74ee3          	blt	a4,a5,20400a14 <scanf+0x20>
        }
    }
    buf[count-1] = '\0';           // Terminate String with Null character.
20400a9c:	fd842783          	lw	a5,-40(s0)
20400aa0:	fff78793          	addi	a5,a5,-1
20400aa4:	fdc42703          	lw	a4,-36(s0)
20400aa8:	00f707b3          	add	a5,a4,a5
20400aac:	00078023          	sb	zero,0(a5)
    printf("%c", '\n');            // Nice printing
20400ab0:	00a00593          	li	a1,10
20400ab4:	204017b7          	lui	a5,0x20401
20400ab8:	01078513          	addi	a0,a5,16 # 20401010 <_etext+0x78>
20400abc:	1a4000ef          	jal	ra,20400c60 <printf>
}
20400ac0:	02c12083          	lw	ra,44(sp)
20400ac4:	02812403          	lw	s0,40(sp)
20400ac8:	03010113          	addi	sp,sp,48
20400acc:	00008067          	ret

20400ad0 <printint>:
#include "UART.h"
#include "math.h"

static char digits[] = "0123456789abcdef";

static void printint(int xx, int base, int sign) {
20400ad0:	fc010113          	addi	sp,sp,-64
20400ad4:	02112e23          	sw	ra,60(sp)
20400ad8:	02812c23          	sw	s0,56(sp)
20400adc:	04010413          	addi	s0,sp,64
20400ae0:	fca42623          	sw	a0,-52(s0)
20400ae4:	fcb42423          	sw	a1,-56(s0)
20400ae8:	fcc42223          	sw	a2,-60(s0)
    char buf[16];
    int i;
    int x;

    if(sign && (sign = xx < 0))
20400aec:	fc442783          	lw	a5,-60(s0)
20400af0:	02078663          	beqz	a5,20400b1c <printint+0x4c>
20400af4:	fcc42783          	lw	a5,-52(s0)
20400af8:	01f7d793          	srli	a5,a5,0x1f
20400afc:	0ff7f793          	andi	a5,a5,255
20400b00:	fcf42223          	sw	a5,-60(s0)
20400b04:	fc442783          	lw	a5,-60(s0)
20400b08:	00078a63          	beqz	a5,20400b1c <printint+0x4c>
        x = -xx;
20400b0c:	fcc42783          	lw	a5,-52(s0)
20400b10:	40f007b3          	neg	a5,a5
20400b14:	fef42423          	sw	a5,-24(s0)
20400b18:	00c0006f          	j	20400b24 <printint+0x54>
    else
        x = xx;
20400b1c:	fcc42783          	lw	a5,-52(s0)
20400b20:	fef42423          	sw	a5,-24(s0)

    i = 0;
20400b24:	fe042623          	sw	zero,-20(s0)
    do {
        buf[i++] = digits[x % base];
20400b28:	fe842703          	lw	a4,-24(s0)
20400b2c:	fc842783          	lw	a5,-56(s0)
20400b30:	02f766b3          	rem	a3,a4,a5
20400b34:	fec42783          	lw	a5,-20(s0)
20400b38:	00178713          	addi	a4,a5,1
20400b3c:	fee42623          	sw	a4,-20(s0)
20400b40:	80001737          	lui	a4,0x80001
20400b44:	01470713          	addi	a4,a4,20 # 80001014 <_edata+0xffffffec>
20400b48:	00e68733          	add	a4,a3,a4
20400b4c:	00074703          	lbu	a4,0(a4)
20400b50:	ff040693          	addi	a3,s0,-16
20400b54:	00f687b3          	add	a5,a3,a5
20400b58:	fee78423          	sb	a4,-24(a5)
    } while((x /= base) != 0);
20400b5c:	fe842703          	lw	a4,-24(s0)
20400b60:	fc842783          	lw	a5,-56(s0)
20400b64:	02f747b3          	div	a5,a4,a5
20400b68:	fef42423          	sw	a5,-24(s0)
20400b6c:	fe842783          	lw	a5,-24(s0)
20400b70:	fa079ce3          	bnez	a5,20400b28 <printint+0x58>

    if(sign)
20400b74:	fc442783          	lw	a5,-60(s0)
20400b78:	02078e63          	beqz	a5,20400bb4 <printint+0xe4>
        buf[i++] = '-';
20400b7c:	fec42783          	lw	a5,-20(s0)
20400b80:	00178713          	addi	a4,a5,1
20400b84:	fee42623          	sw	a4,-20(s0)
20400b88:	ff040713          	addi	a4,s0,-16
20400b8c:	00f707b3          	add	a5,a4,a5
20400b90:	02d00713          	li	a4,45
20400b94:	fee78423          	sb	a4,-24(a5)

    while(--i >= 0)
20400b98:	01c0006f          	j	20400bb4 <printint+0xe4>
        write(buf[i]);
20400b9c:	fec42783          	lw	a5,-20(s0)
20400ba0:	ff040713          	addi	a4,s0,-16
20400ba4:	00f707b3          	add	a5,a4,a5
20400ba8:	fe87c783          	lbu	a5,-24(a5)
20400bac:	00078513          	mv	a0,a5
20400bb0:	d70ff0ef          	jal	ra,20400120 <write>
    while(--i >= 0)
20400bb4:	fec42783          	lw	a5,-20(s0)
20400bb8:	fff78793          	addi	a5,a5,-1
20400bbc:	fef42623          	sw	a5,-20(s0)
20400bc0:	fec42783          	lw	a5,-20(s0)
20400bc4:	fc07dce3          	bgez	a5,20400b9c <printint+0xcc>
}
20400bc8:	00000013          	nop
20400bcc:	03c12083          	lw	ra,60(sp)
20400bd0:	03812403          	lw	s0,56(sp)
20400bd4:	04010113          	addi	sp,sp,64
20400bd8:	00008067          	ret

20400bdc <printptr>:

static void printptr(int x) {
20400bdc:	fd010113          	addi	sp,sp,-48
20400be0:	02112623          	sw	ra,44(sp)
20400be4:	02812423          	sw	s0,40(sp)
20400be8:	03010413          	addi	s0,sp,48
20400bec:	fca42e23          	sw	a0,-36(s0)
    int i;
    write('0');
20400bf0:	03000513          	li	a0,48
20400bf4:	d2cff0ef          	jal	ra,20400120 <write>
    write('x');
20400bf8:	07800513          	li	a0,120
20400bfc:	d24ff0ef          	jal	ra,20400120 <write>
    for (i = 0; i < (sizeof(int) * 2); i++, x <<= 4)
20400c00:	fe042623          	sw	zero,-20(s0)
20400c04:	03c0006f          	j	20400c40 <printptr+0x64>
        write(digits[x >> (sizeof(int) * 8 - 4)]);
20400c08:	fdc42783          	lw	a5,-36(s0)
20400c0c:	41c7d713          	srai	a4,a5,0x1c
20400c10:	800017b7          	lui	a5,0x80001
20400c14:	01478793          	addi	a5,a5,20 # 80001014 <_edata+0xffffffec>
20400c18:	00f707b3          	add	a5,a4,a5
20400c1c:	0007c783          	lbu	a5,0(a5)
20400c20:	00078513          	mv	a0,a5
20400c24:	cfcff0ef          	jal	ra,20400120 <write>
    for (i = 0; i < (sizeof(int) * 2); i++, x <<= 4)
20400c28:	fec42783          	lw	a5,-20(s0)
20400c2c:	00178793          	addi	a5,a5,1
20400c30:	fef42623          	sw	a5,-20(s0)
20400c34:	fdc42783          	lw	a5,-36(s0)
20400c38:	00479793          	slli	a5,a5,0x4
20400c3c:	fcf42e23          	sw	a5,-36(s0)
20400c40:	fec42703          	lw	a4,-20(s0)
20400c44:	00700793          	li	a5,7
20400c48:	fce7f0e3          	bgeu	a5,a4,20400c08 <printptr+0x2c>
}
20400c4c:	00000013          	nop
20400c50:	02c12083          	lw	ra,44(sp)
20400c54:	02812403          	lw	s0,40(sp)
20400c58:	03010113          	addi	sp,sp,48
20400c5c:	00008067          	ret

20400c60 <printf>:

/* printf formats and prints a string */
/* TODO: Replace with svc_print, merge together into one string */
void printf(char *fmt, ...) {
20400c60:	fb010113          	addi	sp,sp,-80
20400c64:	02112623          	sw	ra,44(sp)
20400c68:	02812423          	sw	s0,40(sp)
20400c6c:	03010413          	addi	s0,sp,48
20400c70:	fca42e23          	sw	a0,-36(s0)
20400c74:	00b42223          	sw	a1,4(s0)
20400c78:	00c42423          	sw	a2,8(s0)
20400c7c:	00d42623          	sw	a3,12(s0)
20400c80:	00e42823          	sw	a4,16(s0)
20400c84:	00f42a23          	sw	a5,20(s0)
20400c88:	01042c23          	sw	a6,24(s0)
20400c8c:	01142e23          	sw	a7,28(s0)
    va_list ap;
    int i, c;
    char *s;

    va_start(ap, fmt);
20400c90:	02040793          	addi	a5,s0,32
20400c94:	fe478793          	addi	a5,a5,-28
20400c98:	fef42023          	sw	a5,-32(s0)
    for(i = 0; (c = fmt[i] & 0xff) != 0; i++) {
20400c9c:	fe042623          	sw	zero,-20(s0)
20400ca0:	18c0006f          	j	20400e2c <printf+0x1cc>
        if(c != '%') {
20400ca4:	fe442703          	lw	a4,-28(s0)
20400ca8:	02500793          	li	a5,37
20400cac:	00f70c63          	beq	a4,a5,20400cc4 <printf+0x64>
            write(c);
20400cb0:	fe442783          	lw	a5,-28(s0)
20400cb4:	0ff7f793          	andi	a5,a5,255
20400cb8:	00078513          	mv	a0,a5
20400cbc:	c64ff0ef          	jal	ra,20400120 <write>
            continue;
20400cc0:	1600006f          	j	20400e20 <printf+0x1c0>
        }
        c = fmt[++i] & 0xff;
20400cc4:	fec42783          	lw	a5,-20(s0)
20400cc8:	00178793          	addi	a5,a5,1
20400ccc:	fef42623          	sw	a5,-20(s0)
20400cd0:	fec42783          	lw	a5,-20(s0)
20400cd4:	fdc42703          	lw	a4,-36(s0)
20400cd8:	00f707b3          	add	a5,a4,a5
20400cdc:	0007c783          	lbu	a5,0(a5)
20400ce0:	fef42223          	sw	a5,-28(s0)
        if(c == 0)
20400ce4:	fe442783          	lw	a5,-28(s0)
20400ce8:	16078263          	beqz	a5,20400e4c <printf+0x1ec>
20400cec:	fe442703          	lw	a4,-28(s0)
20400cf0:	07000793          	li	a5,112
20400cf4:	08f70863          	beq	a4,a5,20400d84 <printf+0x124>
20400cf8:	fe442703          	lw	a4,-28(s0)
20400cfc:	07000793          	li	a5,112
20400d00:	02e7c063          	blt	a5,a4,20400d20 <printf+0xc0>
20400d04:	fe442703          	lw	a4,-28(s0)
20400d08:	02500793          	li	a5,37
20400d0c:	0ef70663          	beq	a4,a5,20400df8 <printf+0x198>
20400d10:	fe442703          	lw	a4,-28(s0)
20400d14:	06400793          	li	a5,100
20400d18:	02f70263          	beq	a4,a5,20400d3c <printf+0xdc>
20400d1c:	0e80006f          	j	20400e04 <printf+0x1a4>
20400d20:	fe442703          	lw	a4,-28(s0)
20400d24:	07300793          	li	a5,115
20400d28:	06f70c63          	beq	a4,a5,20400da0 <printf+0x140>
20400d2c:	fe442703          	lw	a4,-28(s0)
20400d30:	07800793          	li	a5,120
20400d34:	02f70663          	beq	a4,a5,20400d60 <printf+0x100>
20400d38:	0cc0006f          	j	20400e04 <printf+0x1a4>
            break;
        switch(c) {
            case 'd':
                printint(va_arg(ap, int), 10, 1);
20400d3c:	fe042783          	lw	a5,-32(s0)
20400d40:	00478713          	addi	a4,a5,4
20400d44:	fee42023          	sw	a4,-32(s0)
20400d48:	0007a783          	lw	a5,0(a5)
20400d4c:	00100613          	li	a2,1
20400d50:	00a00593          	li	a1,10
20400d54:	00078513          	mv	a0,a5
20400d58:	d79ff0ef          	jal	ra,20400ad0 <printint>
                break;
20400d5c:	0c40006f          	j	20400e20 <printf+0x1c0>
            case 'x':
                printint(va_arg(ap, int), 16, 1);
20400d60:	fe042783          	lw	a5,-32(s0)
20400d64:	00478713          	addi	a4,a5,4
20400d68:	fee42023          	sw	a4,-32(s0)
20400d6c:	0007a783          	lw	a5,0(a5)
20400d70:	00100613          	li	a2,1
20400d74:	01000593          	li	a1,16
20400d78:	00078513          	mv	a0,a5
20400d7c:	d55ff0ef          	jal	ra,20400ad0 <printint>
                break;
20400d80:	0a00006f          	j	20400e20 <printf+0x1c0>
            case 'p':
                printptr(va_arg(ap, int));
20400d84:	fe042783          	lw	a5,-32(s0)
20400d88:	00478713          	addi	a4,a5,4
20400d8c:	fee42023          	sw	a4,-32(s0)
20400d90:	0007a783          	lw	a5,0(a5)
20400d94:	00078513          	mv	a0,a5
20400d98:	e45ff0ef          	jal	ra,20400bdc <printptr>
                break;
20400d9c:	0840006f          	j	20400e20 <printf+0x1c0>
            case 's':
                if((s = va_arg(ap, char*)) == 0)
20400da0:	fe042783          	lw	a5,-32(s0)
20400da4:	00478713          	addi	a4,a5,4
20400da8:	fee42023          	sw	a4,-32(s0)
20400dac:	0007a783          	lw	a5,0(a5)
20400db0:	fef42423          	sw	a5,-24(s0)
20400db4:	fe842783          	lw	a5,-24(s0)
20400db8:	02079863          	bnez	a5,20400de8 <printf+0x188>
                    s = "(null)";
20400dbc:	204017b7          	lui	a5,0x20401
20400dc0:	01478793          	addi	a5,a5,20 # 20401014 <_etext+0x7c>
20400dc4:	fef42423          	sw	a5,-24(s0)
                for(; *s; s++)
20400dc8:	0200006f          	j	20400de8 <printf+0x188>
                    write(*s);
20400dcc:	fe842783          	lw	a5,-24(s0)
20400dd0:	0007c783          	lbu	a5,0(a5)
20400dd4:	00078513          	mv	a0,a5
20400dd8:	b48ff0ef          	jal	ra,20400120 <write>
                for(; *s; s++)
20400ddc:	fe842783          	lw	a5,-24(s0)
20400de0:	00178793          	addi	a5,a5,1
20400de4:	fef42423          	sw	a5,-24(s0)
20400de8:	fe842783          	lw	a5,-24(s0)
20400dec:	0007c783          	lbu	a5,0(a5)
20400df0:	fc079ee3          	bnez	a5,20400dcc <printf+0x16c>
                break;
20400df4:	02c0006f          	j	20400e20 <printf+0x1c0>
            case '%':
                write('%');
20400df8:	02500513          	li	a0,37
20400dfc:	b24ff0ef          	jal	ra,20400120 <write>
                break;
20400e00:	0200006f          	j	20400e20 <printf+0x1c0>
            default:
                // Print unknown % sequence to draw attention.
                write('%');
20400e04:	02500513          	li	a0,37
20400e08:	b18ff0ef          	jal	ra,20400120 <write>
                write(c);
20400e0c:	fe442783          	lw	a5,-28(s0)
20400e10:	0ff7f793          	andi	a5,a5,255
20400e14:	00078513          	mv	a0,a5
20400e18:	b08ff0ef          	jal	ra,20400120 <write>
                break;
20400e1c:	00000013          	nop
    for(i = 0; (c = fmt[i] & 0xff) != 0; i++) {
20400e20:	fec42783          	lw	a5,-20(s0)
20400e24:	00178793          	addi	a5,a5,1
20400e28:	fef42623          	sw	a5,-20(s0)
20400e2c:	fec42783          	lw	a5,-20(s0)
20400e30:	fdc42703          	lw	a4,-36(s0)
20400e34:	00f707b3          	add	a5,a4,a5
20400e38:	0007c783          	lbu	a5,0(a5)
20400e3c:	fef42223          	sw	a5,-28(s0)
20400e40:	fe442783          	lw	a5,-28(s0)
20400e44:	e60790e3          	bnez	a5,20400ca4 <printf+0x44>
        }
    }
}
20400e48:	0080006f          	j	20400e50 <printf+0x1f0>
            break;
20400e4c:	00000013          	nop
}
20400e50:	00000013          	nop
20400e54:	02c12083          	lw	ra,44(sp)
20400e58:	02812403          	lw	s0,40(sp)
20400e5c:	05010113          	addi	sp,sp,80
20400e60:	00008067          	ret

20400e64 <svc_print>:

/* Use an svc call to print a char* */
void svc_print(char *c, int size) {
20400e64:	fe010113          	addi	sp,sp,-32
20400e68:	00812e23          	sw	s0,28(sp)
20400e6c:	02010413          	addi	s0,sp,32
20400e70:	fea42623          	sw	a0,-20(s0)
20400e74:	feb42423          	sw	a1,-24(s0)
    /*asm volatile ("MOV R0, %0": : "r" (c));*/
    /*asm volatile ("MOV R1, %0": : "r" (size));*/
    /*asm volatile ("PUSH {LR}");*/
    /*asm volatile ("svc 0");*/
    /*asm volatile ("POP {LR}");*/
}
20400e78:	00000013          	nop
20400e7c:	01c12403          	lw	s0,28(sp)
20400e80:	02010113          	addi	sp,sp,32
20400e84:	00008067          	ret

20400e88 <add_int>:

/* Add an int value to the print */
void add_int(unsigned int s, char *f) {
20400e88:	fe010113          	addi	sp,sp,-32
20400e8c:	00112e23          	sw	ra,28(sp)
20400e90:	00812c23          	sw	s0,24(sp)
20400e94:	02010413          	addi	s0,sp,32
20400e98:	fea42623          	sw	a0,-20(s0)
20400e9c:	feb42423          	sw	a1,-24(s0)
    if (s < 10) {
20400ea0:	fec42703          	lw	a4,-20(s0)
20400ea4:	00900793          	li	a5,9
20400ea8:	02e7e463          	bltu	a5,a4,20400ed0 <add_int+0x48>
        strcatc(f, s + '0', 100);
20400eac:	fec42783          	lw	a5,-20(s0)
20400eb0:	0ff7f793          	andi	a5,a5,255
20400eb4:	03078793          	addi	a5,a5,48
20400eb8:	0ff7f793          	andi	a5,a5,255
20400ebc:	06400613          	li	a2,100
20400ec0:	00078593          	mv	a1,a5
20400ec4:	fe842503          	lw	a0,-24(s0)
20400ec8:	92dff0ef          	jal	ra,204007f4 <strcatc>
    } else {
        add_int(s / 10, f);
        add_int(s % 10, f);
    }
}
20400ecc:	0340006f          	j	20400f00 <add_int+0x78>
        add_int(s / 10, f);
20400ed0:	fec42703          	lw	a4,-20(s0)
20400ed4:	00a00793          	li	a5,10
20400ed8:	02f757b3          	divu	a5,a4,a5
20400edc:	fe842583          	lw	a1,-24(s0)
20400ee0:	00078513          	mv	a0,a5
20400ee4:	fa5ff0ef          	jal	ra,20400e88 <add_int>
        add_int(s % 10, f);
20400ee8:	fec42703          	lw	a4,-20(s0)
20400eec:	00a00793          	li	a5,10
20400ef0:	02f777b3          	remu	a5,a4,a5
20400ef4:	fe842583          	lw	a1,-24(s0)
20400ef8:	00078513          	mv	a0,a5
20400efc:	f8dff0ef          	jal	ra,20400e88 <add_int>
}
20400f00:	00000013          	nop
20400f04:	01c12083          	lw	ra,28(sp)
20400f08:	01812403          	lw	s0,24(sp)
20400f0c:	02010113          	addi	sp,sp,32
20400f10:	00008067          	ret

20400f14 <add_hex>:

/* Add a hex value to the print */
void add_hex(unsigned int s, char *f) {
20400f14:	fe010113          	addi	sp,sp,-32
20400f18:	00112e23          	sw	ra,28(sp)
20400f1c:	00812c23          	sw	s0,24(sp)
20400f20:	02010413          	addi	s0,sp,32
20400f24:	fea42623          	sw	a0,-20(s0)
20400f28:	feb42423          	sw	a1,-24(s0)
    if (s < 16) {
20400f2c:	fec42703          	lw	a4,-20(s0)
20400f30:	00f00793          	li	a5,15
20400f34:	02e7e463          	bltu	a5,a4,20400f5c <add_hex+0x48>
        strcatc(f, digit_to_hex(s), 100);
20400f38:	fec42783          	lw	a5,-20(s0)
20400f3c:	00078513          	mv	a0,a5
20400f40:	dbcff0ef          	jal	ra,204004fc <digit_to_hex>
20400f44:	00050793          	mv	a5,a0
20400f48:	06400613          	li	a2,100
20400f4c:	00078593          	mv	a1,a5
20400f50:	fe842503          	lw	a0,-24(s0)
20400f54:	8a1ff0ef          	jal	ra,204007f4 <strcatc>
    } else {
        add_hex(s / 16, f);
        add_hex(s % 16, f);
    }
}
20400f58:	02c0006f          	j	20400f84 <add_hex+0x70>
        add_hex(s / 16, f);
20400f5c:	fec42783          	lw	a5,-20(s0)
20400f60:	0047d793          	srli	a5,a5,0x4
20400f64:	fe842583          	lw	a1,-24(s0)
20400f68:	00078513          	mv	a0,a5
20400f6c:	fa9ff0ef          	jal	ra,20400f14 <add_hex>
        add_hex(s % 16, f);
20400f70:	fec42783          	lw	a5,-20(s0)
20400f74:	00f7f793          	andi	a5,a5,15
20400f78:	fe842583          	lw	a1,-24(s0)
20400f7c:	00078513          	mv	a0,a5
20400f80:	f95ff0ef          	jal	ra,20400f14 <add_hex>
}
20400f84:	00000013          	nop
20400f88:	01c12083          	lw	ra,28(sp)
20400f8c:	01812403          	lw	s0,24(sp)
20400f90:	02010113          	addi	sp,sp,32
20400f94:	00008067          	ret

Disassembly of section .rodata:

20400f98 <_srodata>:
20400f98:	6e61                	lui	t3,0x18
20400f9a:	7264                	flw	fs1,100(a2)
20400f9c:	7765                	lui	a4,0xffff9
20400f9e:	0000                	unimp
20400fa0:	6548                	flw	fa0,12(a0)
20400fa2:	6c6c                	flw	fa1,92(s0)
20400fa4:	7325206f          	j	204536d6 <_erodata+0x526ba>
20400fa8:	202c                	fld	fa1,64(s0)
20400faa:	7469                	lui	s0,0xffffa
20400fac:	67207327          	0x67207327
20400fb0:	20646f6f          	jal	t5,204471b6 <_erodata+0x4619a>
20400fb4:	6f74                	flw	fa3,92(a4)
20400fb6:	6d20                	flw	fs0,88(a0)
20400fb8:	6565                	lui	a0,0x19
20400fba:	2074                	fld	fa3,192(s0)
20400fbc:	6f79                	lui	t5,0x1e
20400fbe:	2175                	jal	2040146a <_erodata+0x44e>
20400fc0:	0000                	unimp
20400fc2:	0000                	unimp
20400fc4:	74616857          	0x74616857
20400fc8:	6420                	flw	fs0,72(s0)
20400fca:	6469                	lui	s0,0x1a
20400fcc:	7920                	flw	fs0,112(a0)
20400fce:	7320756f          	jal	a0,20408700 <_erodata+0x76e4>
20400fd2:	6565                	lui	a0,0x19
20400fd4:	6120                	flw	fs0,64(a0)
20400fd6:	2074                	fld	fa3,192(s0)
20400fd8:	6874                	flw	fa3,84(s0)
20400fda:	2065                	jal	20401082 <_erodata+0x66>
20400fdc:	6f7a                	flw	ft10,156(sp)
20400fde:	000a3f6f          	jal	t5,204a3fde <_erodata+0xa2fc2>
20400fe2:	0000                	unimp
20400fe4:	6f59                	lui	t5,0x16
20400fe6:	2075                	jal	20401092 <_erodata+0x76>
20400fe8:	746e6577          	0x746e6577
20400fec:	7420                	flw	fs0,104(s0)
20400fee:	6874206f          	j	20443e74 <_erodata+0x42e58>
20400ff2:	2065                	jal	2040109a <_erodata+0x7e>
20400ff4:	6f7a                	flw	ft10,156(sp)
20400ff6:	6e61206f          	j	204136dc <_erodata+0x126c0>
20400ffa:	2064                	fld	fs1,192(s0)
20400ffc:	20656573          	csrrsi	a0,0x206,10
20401000:	2061                	jal	20401088 <_erodata+0x6c>
20401002:	7325                	lui	t1,0xfffe9
20401004:	0a2e                	slli	s4,s4,0xb
20401006:	0000                	unimp
20401008:	6e28                	flw	fa0,88(a2)
2040100a:	6c75                	lui	s8,0x1d
2040100c:	296c                	fld	fa1,208(a0)
2040100e:	0000                	unimp
20401010:	6325                	lui	t1,0x9
20401012:	0000                	unimp
20401014:	6e28                	flw	fa0,88(a2)
20401016:	6c75                	lui	s8,0x1d
20401018:	296c                	fld	fa1,208(a0)
	...

Disassembly of section .stack:

80000000 <_sstack>:
	...

Disassembly of section .data:

80001000 <_sdata>:
80001000:	3130                	fld	fa2,96(a0)
80001002:	3332                	fld	ft6,296(sp)
80001004:	3534                	fld	fa3,104(a0)
80001006:	3736                	fld	fa4,360(sp)
80001008:	3938                	fld	fa4,112(a0)
8000100a:	6261                	lui	tp,0x18
8000100c:	66656463          	bltu	a0,t1,80001674 <_edata+0x64c>
80001010:	0000                	unimp
	...

80001014 <digits>:
static char digits[] = "0123456789abcdef";
80001014:	3130                	fld	fa2,96(a0)
80001016:	3332                	fld	ft6,296(sp)
80001018:	3534                	fld	fa3,104(a0)
8000101a:	3736                	fld	fa4,360(sp)
8000101c:	3938                	fld	fa4,112(a0)
8000101e:	6261                	lui	tp,0x18
80001020:	66656463          	bltu	a0,t1,80001688 <_edata+0x660>
80001024:	0000                	unimp
	...

Disassembly of section .riscv.attributes:

00000000 <.riscv.attributes>:
   0:	1e41                	addi	t3,t3,-16
   2:	0000                	unimp
   4:	7200                	flw	fs0,32(a2)
   6:	7369                	lui	t1,0xffffa
   8:	01007663          	bgeu	zero,a6,14 <_stack_size-0xfec>
   c:	0014                	0x14
   e:	0000                	unimp
  10:	7205                	lui	tp,0xfffe1
  12:	3376                	fld	ft6,376(sp)
  14:	6932                	flw	fs2,12(sp)
  16:	7032                	flw	ft0,44(sp)
  18:	5f30                	lw	a2,120(a4)
  1a:	326d                	jal	fffff9c4 <_edata+0x7fffe99c>
  1c:	3070                	fld	fa2,224(s0)
	...

Disassembly of section .comment:

00000000 <.comment>:
   0:	3a434347          	fmsub.d	ft6,ft6,ft4,ft7,rmm
   4:	2820                	fld	fs0,80(s0)
   6:	69466953          	0x69466953
   a:	6576                	flw	fa0,92(sp)
   c:	4720                	lw	s0,72(a4)
   e:	38204343          	fmadd.s	ft6,ft0,ft2,ft7,rmm
  12:	322e                	fld	ft4,232(sp)
  14:	302e                	fld	ft0,232(sp)
  16:	322d                	jal	fffff940 <_edata+0x7fffe918>
  18:	3130                	fld	fa2,96(a0)
  1a:	2e39                	jal	338 <_stack_size-0xcc8>
  1c:	3530                	fld	fa2,104(a0)
  1e:	332e                	fld	ft6,232(sp)
  20:	2029                	jal	2a <_stack_size-0xfd6>
  22:	2e38                	fld	fa4,88(a2)
  24:	2e32                	fld	ft8,264(sp)
  26:	0030                	addi	a2,sp,8

Disassembly of section .debug_line:

00000000 <.debug_line>:
   0:	00a6                	slli	ra,ra,0x9
   2:	0000                	unimp
   4:	00200003          	lb	zero,2(zero) # 2 <_stack_size-0xffe>
   8:	0000                	unimp
   a:	0101                	addi	sp,sp,0
   c:	000d0efb          	0xd0efb
  10:	0101                	addi	sp,sp,0
  12:	0101                	addi	sp,sp,0
  14:	0000                	unimp
  16:	0100                	addi	s0,sp,128
  18:	0000                	unimp
  1a:	0001                	nop
  1c:	72617473          	csrrci	s0,0x726,2
  20:	7574                	flw	fa3,108(a0)
  22:	2e70                	fld	fa2,216(a2)
  24:	00000073          	ecall
  28:	0000                	unimp
  2a:	0500                	addi	s0,sp,640
  2c:	0002                	c.slli64	zero
  2e:	4000                	lw	s0,0(s0)
  30:	1720                	addi	s0,sp,936
  32:	08090103          	lb	sp,128(s2)
  36:	0100                	addi	s0,sp,128
  38:	04090103          	lb	sp,64(s2)
  3c:	0100                	addi	s0,sp,128
  3e:	04090203          	lb	tp,64(s2)
  42:	0100                	addi	s0,sp,128
  44:	04090603          	lb	a2,64(s2)
  48:	0100                	addi	s0,sp,128
  4a:	08090103          	lb	sp,128(s2)
  4e:	0100                	addi	s0,sp,128
  50:	08090103          	lb	sp,128(s2)
  54:	0100                	addi	s0,sp,128
  56:	08090103          	lb	sp,128(s2)
  5a:	0100                	addi	s0,sp,128
  5c:	04090203          	lb	tp,64(s2)
  60:	0100                	addi	s0,sp,128
  62:	04090103          	lb	sp,64(s2)
  66:	0100                	addi	s0,sp,128
  68:	04090103          	lb	sp,64(s2)
  6c:	0100                	addi	s0,sp,128
  6e:	04090103          	lb	sp,64(s2)
  72:	0100                	addi	s0,sp,128
  74:	04090103          	lb	sp,64(s2)
  78:	0100                	addi	s0,sp,128
  7a:	04090203          	lb	tp,64(s2)
  7e:	0100                	addi	s0,sp,128
  80:	08090103          	lb	sp,128(s2)
  84:	0100                	addi	s0,sp,128
  86:	08090103          	lb	sp,128(s2)
  8a:	0100                	addi	s0,sp,128
  8c:	04090203          	lb	tp,64(s2)
  90:	0100                	addi	s0,sp,128
  92:	04090103          	lb	sp,64(s2)
  96:	0100                	addi	s0,sp,128
  98:	04090103          	lb	sp,64(s2)
  9c:	0100                	addi	s0,sp,128
  9e:	04090203          	lb	tp,64(s2)
  a2:	0100                	addi	s0,sp,128
  a4:	0409                	addi	s0,s0,2
  a6:	0000                	unimp
  a8:	0101                	addi	sp,sp,0
  aa:	005d                	c.nop	23
  ac:	0000                	unimp
  ae:	001d0003          	lb	zero,1(s10)
  b2:	0000                	unimp
  b4:	0101                	addi	sp,sp,0
  b6:	000d0efb          	0xd0efb
  ba:	0101                	addi	sp,sp,0
  bc:	0101                	addi	sp,sp,0
  be:	0000                	unimp
  c0:	0100                	addi	s0,sp,128
  c2:	0000                	unimp
  c4:	0001                	nop
  c6:	616d                	addi	sp,sp,240
  c8:	6e69                	lui	t3,0x1a
  ca:	632e                	flw	ft6,200(sp)
  cc:	0000                	unimp
  ce:	0000                	unimp
  d0:	0500                	addi	s0,sp,640
  d2:	000d                	c.nop	3
  d4:	0205                	addi	tp,tp,1
  d6:	0068                	addi	a0,sp,12
  d8:	2040                	fld	fs0,128(s0)
  da:	030b0517          	auipc	a0,0x30b0
  de:	0901                	addi	s2,s2,0
  e0:	0010                	0x10
  e2:	0501                	addi	a0,a0,0
  e4:	0305                	addi	t1,t1,1
  e6:	0901                	addi	s2,s2,0
  e8:	000c                	0xc
  ea:	0301                	addi	t1,t1,0
  ec:	00100903          	lb	s2,1(zero) # 1 <_stack_size-0xfff>
  f0:	0301                	addi	t1,t1,0
  f2:	0901                	addi	s2,s2,0
  f4:	000c                	0xc
  f6:	0301                	addi	t1,t1,0
  f8:	0902                	c.slli64	s2
  fa:	0010                	0x10
  fc:	0501                	addi	a0,a0,0
  fe:	0301                	addi	t1,t1,0
 100:	0901                	addi	s2,s2,0
 102:	0014                	0x14
 104:	0901                	addi	s2,s2,0
 106:	0014                	0x14
 108:	0100                	addi	s0,sp,128
 10a:	c401                	beqz	s0,112 <_stack_size-0xeee>
 10c:	03000003          	lb	zero,48(zero) # 30 <_stack_size-0xfd0>
 110:	9600                	0x9600
 112:	0000                	unimp
 114:	0100                	addi	s0,sp,128
 116:	fb01                	bnez	a4,26 <_stack_size-0xfda>
 118:	0d0e                	slli	s10,s10,0x3
 11a:	0100                	addi	s0,sp,128
 11c:	0101                	addi	sp,sp,0
 11e:	0001                	nop
 120:	0000                	unimp
 122:	0001                	nop
 124:	0100                	addi	s0,sp,128
 126:	6573552f          	0x6573552f
 12a:	7372                	flw	ft6,60(sp)
 12c:	646e612f          	0x646e612f
 130:	6572                	flw	fa0,28(sp)
 132:	65687377          	0x65687377
 136:	2f6e                	fld	ft10,216(sp)
 138:	6f44                	flw	fs1,28(a4)
 13a:	656d7563          	bgeu	s10,s6,784 <_stack_size-0x87c>
 13e:	746e                	flw	fs0,248(sp)
 140:	72702f73          	csrr	t5,0x727
 144:	6d69                	lui	s10,0x1a
 146:	7365                	lui	t1,0xffff9
 148:	3032                	fld	ft0,296(sp)
 14a:	3931                	jal	fffffd66 <_edata+0x7fffed3e>
 14c:	7369722f          	0x7369722f
 150:	34367663          	bgeu	a2,gp,49c <_stack_size-0xb64>
 154:	742d                	lui	s0,0xfffeb
 156:	636c6f6f          	jal	t5,c678c <_stack_size+0xc578c>
 15a:	6168                	flw	fa0,68(a0)
 15c:	6e69                	lui	t3,0x1a
 15e:	62696c2f          	0x62696c2f
 162:	6363672f          	0x6363672f
 166:	7369722f          	0x7369722f
 16a:	34367663          	bgeu	a2,gp,4b6 <_stack_size-0xb4a>
 16e:	752d                	lui	a0,0xfffeb
 170:	6b6e                	flw	fs6,216(sp)
 172:	6f6e                	flw	ft10,216(sp)
 174:	652d6e77          	0x652d6e77
 178:	666c                	flw	fa1,76(a2)
 17a:	322e382f          	0x322e382f
 17e:	302e                	fld	ft0,232(sp)
 180:	636e692f          	0x636e692f
 184:	756c                	flw	fa1,108(a0)
 186:	6564                	flw	fs1,76(a0)
 188:	0000                	unimp
 18a:	4155                	li	sp,21
 18c:	5452                	lw	s0,52(sp)
 18e:	632e                	flw	ft6,200(sp)
 190:	0000                	unimp
 192:	0000                	unimp
 194:	61647473          	csrrci	s0,0x616,8
 198:	6772                	flw	fa4,28(sp)
 19a:	682e                	flw	fa6,200(sp)
 19c:	0100                	addi	s0,sp,128
 19e:	0000                	unimp
 1a0:	4155                	li	sp,21
 1a2:	5452                	lw	s0,52(sp)
 1a4:	682e                	flw	fa6,200(sp)
 1a6:	0000                	unimp
 1a8:	0000                	unimp
 1aa:	0500                	addi	s0,sp,640
 1ac:	000d                	c.nop	3
 1ae:	0205                	addi	tp,tp,1
 1b0:	00d8                	addi	a4,sp,68
 1b2:	2040                	fld	fs0,128(s0)
 1b4:	03110517          	auipc	a0,0x3110
 1b8:	0901                	addi	s2,s2,0
 1ba:	000c                	0xc
 1bc:	0501                	addi	a0,a0,0
 1be:	0309                	addi	t1,t1,2
 1c0:	0900                	addi	s0,sp,144
 1c2:	0008                	0x8
 1c4:	0501                	addi	a0,a0,0
 1c6:	0901030b          	0x901030b
 1ca:	0004                	0x4
 1cc:	0501                	addi	a0,a0,0
 1ce:	0311                	addi	t1,t1,4
 1d0:	0902                	c.slli64	s2
 1d2:	0004                	0x4
 1d4:	0501                	addi	a0,a0,0
 1d6:	0900030b          	0x900030b
 1da:	0008                	0x8
 1dc:	0301                	addi	t1,t1,0
 1de:	097e                	slli	s2,s2,0x1f
 1e0:	0004                	0x4
 1e2:	0501                	addi	a0,a0,0
 1e4:	030e                	slli	t1,t1,0x3
 1e6:	0904                	addi	s1,sp,144
 1e8:	0008                	0x8
 1ea:	0501                	addi	a0,a0,0
 1ec:	0301                	addi	t1,t1,0
 1ee:	0901                	addi	s2,s2,0
 1f0:	0008                	0x8
 1f2:	0501                	addi	a0,a0,0
 1f4:	0314                	addi	a3,sp,384
 1f6:	0902                	c.slli64	s2
 1f8:	0010                	0x10
 1fa:	0501                	addi	a0,a0,0
 1fc:	0901030b          	0x901030b
 200:	0014                	0x14
 202:	0501                	addi	a0,a0,0
 204:	0012                	c.slli	zero,0x4
 206:	0402                	c.slli64	s0
 208:	0301                	addi	t1,t1,0
 20a:	0900                	addi	s0,sp,144
 20c:	0004                	0x4
 20e:	0501                	addi	a0,a0,0
 210:	0402001b          	0x402001b
 214:	0301                	addi	t1,t1,0
 216:	0900                	addi	s0,sp,144
 218:	0008                	0x8
 21a:	0501                	addi	a0,a0,0
 21c:	0022                	c.slli	zero,0x8
 21e:	0402                	c.slli64	s0
 220:	0301                	addi	t1,t1,0
 222:	0900                	addi	s0,sp,144
 224:	0004                	0x4
 226:	0501                	addi	a0,a0,0
 228:	0402000b          	0x402000b
 22c:	0301                	addi	t1,t1,0
 22e:	0900                	addi	s0,sp,144
 230:	0004                	0x4
 232:	0501                	addi	a0,a0,0
 234:	0309                	addi	t1,t1,2
 236:	00040903          	lb	s2,0(s0) # fffeb000 <_edata+0x7ffe9fd8>
 23a:	0501                	addi	a0,a0,0
 23c:	0312                	slli	t1,t1,0x4
 23e:	0900                	addi	s0,sp,144
 240:	0004                	0x4
 242:	0501                	addi	a0,a0,0
 244:	0301                	addi	t1,t1,0
 246:	0901                	addi	s2,s2,0
 248:	0008                	0x8
 24a:	0501                	addi	a0,a0,0
 24c:	0332                	slli	t1,t1,0xc
 24e:	0904                	addi	s1,sp,144
 250:	0010                	0x10
 252:	0501                	addi	a0,a0,0
 254:	09050307          	0x9050307
 258:	001c                	0x1c
 25a:	0501                	addi	a0,a0,0
 25c:	0402001b          	0x402001b
 260:	0301                	addi	t1,t1,0
 262:	0900                	addi	s0,sp,144
 264:	0008                	0x8
 266:	0501                	addi	a0,a0,0
 268:	0016                	c.slli	zero,0x5
 26a:	0402                	c.slli64	s0
 26c:	0301                	addi	t1,t1,0
 26e:	0900                	addi	s0,sp,144
 270:	000c                	0xc
 272:	0501                	addi	a0,a0,0
 274:	000d                	c.nop	3
 276:	0402                	c.slli64	s0
 278:	0301                	addi	t1,t1,0
 27a:	0900                	addi	s0,sp,144
 27c:	0004                	0x4
 27e:	0501                	addi	a0,a0,0
 280:	0901030b          	0x901030b
 284:	0008                	0x8
 286:	0301                	addi	t1,t1,0
 288:	0902                	c.slli64	s2
 28a:	0010                	0x10
 28c:	0501                	addi	a0,a0,0
 28e:	09020307          	0x9020307
 292:	0008                	0x8
 294:	0501                	addi	a0,a0,0
 296:	001d                	c.nop	7
 298:	0402                	c.slli64	s0
 29a:	0301                	addi	t1,t1,0
 29c:	0902                	c.slli64	s2
 29e:	0004                	0x4
 2a0:	0501                	addi	a0,a0,0
 2a2:	000e                	c.slli	zero,0x3
 2a4:	0402                	c.slli64	s0
 2a6:	0301                	addi	t1,t1,0
 2a8:	0900                	addi	s0,sp,144
 2aa:	000c                	0xc
 2ac:	0501                	addi	a0,a0,0
 2ae:	001a                	c.slli	zero,0x6
 2b0:	0402                	c.slli64	s0
 2b2:	0301                	addi	t1,t1,0
 2b4:	0900                	addi	s0,sp,144
 2b6:	000c                	0xc
 2b8:	0501                	addi	a0,a0,0
 2ba:	0012                	c.slli	zero,0x4
 2bc:	0402                	c.slli64	s0
 2be:	0301                	addi	t1,t1,0
 2c0:	0900                	addi	s0,sp,144
 2c2:	0010                	0x10
 2c4:	0501                	addi	a0,a0,0
 2c6:	0010                	0x10
 2c8:	0402                	c.slli64	s0
 2ca:	0301                	addi	t1,t1,0
 2cc:	0901                	addi	s2,s2,0
 2ce:	000c                	0xc
 2d0:	0501                	addi	a0,a0,0
 2d2:	0005                	c.nop	1
 2d4:	0402                	c.slli64	s0
 2d6:	0301                	addi	t1,t1,0
 2d8:	0900                	addi	s0,sp,144
 2da:	0010                	0x10
 2dc:	0501                	addi	a0,a0,0
 2de:	09020307          	0x9020307
 2e2:	0008                	0x8
 2e4:	0501                	addi	a0,a0,0
 2e6:	030e                	slli	t1,t1,0x3
 2e8:	0901                	addi	s2,s2,0
 2ea:	0008                	0x8
 2ec:	0501                	addi	a0,a0,0
 2ee:	0312                	slli	t1,t1,0x4
 2f0:	0900                	addi	s0,sp,144
 2f2:	000c                	0xc
 2f4:	0501                	addi	a0,a0,0
 2f6:	030a                	slli	t1,t1,0x2
 2f8:	0902                	c.slli64	s2
 2fa:	0010                	0x10
 2fc:	0501                	addi	a0,a0,0
 2fe:	0309                	addi	t1,t1,2
 300:	0901                	addi	s2,s2,0
 302:	0004                	0x4
 304:	0501                	addi	a0,a0,0
 306:	030a                	slli	t1,t1,0x2
 308:	097f                	0x97f
 30a:	0018                	0x18
 30c:	0501                	addi	a0,a0,0
 30e:	0301                	addi	t1,t1,0
 310:	0902                	c.slli64	s2
 312:	0014                	0x14
 314:	0501                	addi	a0,a0,0
 316:	031d                	addi	t1,t1,7
 318:	0902                	c.slli64	s2
 31a:	0014                	0x14
 31c:	0501                	addi	a0,a0,0
 31e:	0305                	addi	t1,t1,1
 320:	0902                	c.slli64	s2
 322:	0014                	0x14
 324:	0301                	addi	t1,t1,0
 326:	0901                	addi	s2,s2,0
 328:	0008                	0x8
 32a:	0501                	addi	a0,a0,0
 32c:	030c                	addi	a1,sp,384
 32e:	0901                	addi	s2,s2,0
 330:	0008                	0x8
 332:	0501                	addi	a0,a0,0
 334:	0305                	addi	t1,t1,1
 336:	0900                	addi	s0,sp,144
 338:	0004                	0x4
 33a:	0501                	addi	a0,a0,0
 33c:	0018                	0x18
 33e:	0402                	c.slli64	s0
 340:	09010303          	lb	t1,144(sp)
 344:	0004                	0x4
 346:	0501                	addi	a0,a0,0
 348:	0009                	c.nop	2
 34a:	0402                	c.slli64	s0
 34c:	09000303          	lb	t1,144(zero) # 90 <_stack_size-0xf70>
 350:	0008                	0x8
 352:	0501                	addi	a0,a0,0
 354:	0029                	c.nop	10
 356:	0402                	c.slli64	s0
 358:	097f0303          	lb	t1,151(t5) # 16097 <_stack_size+0x15097>
 35c:	0018                	0x18
 35e:	0501                	addi	a0,a0,0
 360:	0402002f          	0x402002f
 364:	09000303          	lb	t1,144(zero) # 90 <_stack_size-0xf70>
 368:	000c                	0xc
 36a:	0501                	addi	a0,a0,0
 36c:	04020013          	addi	zero,tp,64 # fffe1040 <_edata+0x7ffe0018>
 370:	0301                	addi	t1,t1,0
 372:	0900                	addi	s0,sp,144
 374:	000c                	0xc
 376:	0501                	addi	a0,a0,0
 378:	0005                	c.nop	1
 37a:	0402                	c.slli64	s0
 37c:	0301                	addi	t1,t1,0
 37e:	0900                	addi	s0,sp,144
 380:	0004                	0x4
 382:	0501                	addi	a0,a0,0
 384:	0301                	addi	t1,t1,0
 386:	0902                	c.slli64	s2
 388:	0008                	0x8
 38a:	0501                	addi	a0,a0,0
 38c:	0322                	slli	t1,t1,0x8
 38e:	0902                	c.slli64	s2
 390:	0014                	0x14
 392:	0501                	addi	a0,a0,0
 394:	0305                	addi	t1,t1,1
 396:	0905                	addi	s2,s2,1
 398:	0030                	addi	a2,sp,8
 39a:	0501                	addi	a0,a0,0
 39c:	0901030b          	0x901030b
 3a0:	000c                	0xc
 3a2:	0501                	addi	a0,a0,0
 3a4:	0305                	addi	t1,t1,1
 3a6:	0900                	addi	s0,sp,144
 3a8:	0004                	0x4
 3aa:	0501                	addi	a0,a0,0
 3ac:	0901030b          	0x901030b
 3b0:	0004                	0x4
 3b2:	0501                	addi	a0,a0,0
 3b4:	030d                	addi	t1,t1,3
 3b6:	0901                	addi	s2,s2,0
 3b8:	000c                	0xc
 3ba:	0301                	addi	t1,t1,0
 3bc:	0901                	addi	s2,s2,0
 3be:	0010                	0x10
 3c0:	0501                	addi	a0,a0,0
 3c2:	0902030b          	0x902030b
 3c6:	0004                	0x4
 3c8:	0501                	addi	a0,a0,0
 3ca:	0311                	addi	t1,t1,4
 3cc:	0900                	addi	s0,sp,144
 3ce:	000c                	0xc
 3d0:	0501                	addi	a0,a0,0
 3d2:	0310                	addi	a2,sp,384
 3d4:	0900                	addi	s0,sp,144
 3d6:	0004                	0x4
 3d8:	0501                	addi	a0,a0,0
 3da:	0900030b          	0x900030b
 3de:	000c                	0xc
 3e0:	0301                	addi	t1,t1,0
 3e2:	0901                	addi	s2,s2,0
 3e4:	0004                	0x4
 3e6:	0501                	addi	a0,a0,0
 3e8:	0311                	addi	t1,t1,4
 3ea:	0904                	addi	s1,sp,144
 3ec:	0058                	addi	a4,sp,4
 3ee:	0301                	addi	t1,t1,0
 3f0:	0901                	addi	s2,s2,0
 3f2:	0020                	addi	s0,sp,8
 3f4:	0301                	addi	t1,t1,0
 3f6:	0902                	c.slli64	s2
 3f8:	0004                	0x4
 3fa:	0301                	addi	t1,t1,0
 3fc:	0901                	addi	s2,s2,0
 3fe:	0020                	addi	s0,sp,8
 400:	0301                	addi	t1,t1,0
 402:	0902                	c.slli64	s2
 404:	0004                	0x4
 406:	0301                	addi	t1,t1,0
 408:	0901                	addi	s2,s2,0
 40a:	0018                	0x18
 40c:	0501                	addi	a0,a0,0
 40e:	09020317          	auipc	t1,0x9020
 412:	0004                	0x4
 414:	0501                	addi	a0,a0,0
 416:	09000313          	li	t1,144
 41a:	0014                	0x14
 41c:	0501                	addi	a0,a0,0
 41e:	09010317          	auipc	t1,0x9010
 422:	0008                	0x8
 424:	0501                	addi	a0,a0,0
 426:	0311                	addi	t1,t1,4
 428:	0901                	addi	s2,s2,0
 42a:	000c                	0xc
 42c:	0501                	addi	a0,a0,0
 42e:	0015                	c.nop	5
 430:	0402                	c.slli64	s0
 432:	0302                	c.slli64	t1
 434:	0901                	addi	s2,s2,0
 436:	0004                	0x4
 438:	0501                	addi	a0,a0,0
 43a:	001c                	0x1c
 43c:	0402                	c.slli64	s0
 43e:	0302                	c.slli64	t1
 440:	097f                	0x97f
 442:	0010                	0x10
 444:	0501                	addi	a0,a0,0
 446:	04020017          	auipc	zero,0x4020
 44a:	0301                	addi	t1,t1,0
 44c:	0900                	addi	s0,sp,144
 44e:	000c                	0xc
 450:	0501                	addi	a0,a0,0
 452:	0011                	c.nop	4
 454:	0402                	c.slli64	s0
 456:	0301                	addi	t1,t1,0
 458:	0900                	addi	s0,sp,144
 45a:	0008                	0x8
 45c:	0301                	addi	t1,t1,0
 45e:	0902                	c.slli64	s2
 460:	0004                	0x4
 462:	0301                	addi	t1,t1,0
 464:	0902                	c.slli64	s2
 466:	0004                	0x4
 468:	0301                	addi	t1,t1,0
 46a:	0901                	addi	s2,s2,0
 46c:	0008                	0x8
 46e:	0301                	addi	t1,t1,0
 470:	00040903          	lb	s2,0(s0)
 474:	0301                	addi	t1,t1,0
 476:	0901                	addi	s2,s2,0
 478:	0008                	0x8
 47a:	0301                	addi	t1,t1,0
 47c:	0901                	addi	s2,s2,0
 47e:	0010                	0x10
 480:	0501                	addi	a0,a0,0
 482:	0402002b          	0x402002b
 486:	0302                	c.slli64	t1
 488:	0961                	addi	s2,s2,24
 48a:	0004                	0x4
 48c:	0501                	addi	a0,a0,0
 48e:	0018                	0x18
 490:	0402                	c.slli64	s0
 492:	0301                	addi	t1,t1,0
 494:	0900                	addi	s0,sp,144
 496:	000c                	0xc
 498:	0501                	addi	a0,a0,0
 49a:	04020013          	addi	zero,tp,64 # 40 <_stack_size-0xfc0>
 49e:	0301                	addi	t1,t1,0
 4a0:	0900                	addi	s0,sp,144
 4a2:	0010                	0x10
 4a4:	0501                	addi	a0,a0,0
 4a6:	0005                	c.nop	1
 4a8:	0402                	c.slli64	s0
 4aa:	0301                	addi	t1,t1,0
 4ac:	0900                	addi	s0,sp,144
 4ae:	0004                	0x4
 4b0:	0501                	addi	a0,a0,0
 4b2:	0301                	addi	t1,t1,0
 4b4:	0922                	slli	s2,s2,0x8
 4b6:	0008                	0x8
 4b8:	0501                	addi	a0,a0,0
 4ba:	030d                	addi	t1,t1,3
 4bc:	0965                	addi	s2,s2,25
 4be:	0004                	0x4
 4c0:	0501                	addi	a0,a0,0
 4c2:	0001                	nop
 4c4:	0402                	c.slli64	s0
 4c6:	0301                	addi	t1,t1,0
 4c8:	0004091b          	0x4091b
 4cc:	0901                	addi	s2,s2,0
 4ce:	0014                	0x14
 4d0:	0100                	addi	s0,sp,128
 4d2:	b501                	j	2d2 <_stack_size-0xd2e>
 4d4:	0001                	nop
 4d6:	0300                	addi	s0,sp,384
 4d8:	1d00                	addi	s0,sp,688
 4da:	0000                	unimp
 4dc:	0100                	addi	s0,sp,128
 4de:	fb01                	bnez	a4,3ee <_stack_size-0xc12>
 4e0:	0d0e                	slli	s10,s10,0x3
 4e2:	0100                	addi	s0,sp,128
 4e4:	0101                	addi	sp,sp,0
 4e6:	0001                	nop
 4e8:	0000                	unimp
 4ea:	0001                	nop
 4ec:	0100                	addi	s0,sp,128
 4ee:	6d00                	flw	fs0,24(a0)
 4f0:	7461                	lui	s0,0xffff8
 4f2:	2e68                	fld	fa0,216(a2)
 4f4:	00000063          	beqz	zero,4f4 <_stack_size-0xb0c>
 4f8:	0000                	unimp
 4fa:	1a05                	addi	s4,s4,-31
 4fc:	0500                	addi	s0,sp,640
 4fe:	fc02                	fsw	ft0,56(sp)
 500:	4004                	lw	s1,0(s0)
 502:	1520                	addi	s0,sp,680
 504:	0805                	addi	a6,a6,1
 506:	10090103          	lb	sp,256(s2)
 50a:	0100                	addi	s0,sp,128
 50c:	1205                	addi	tp,tp,-31
 50e:	0c090103          	lb	sp,192(s2)
 512:	0100                	addi	s0,sp,128
 514:	1705                	addi	a4,a4,-31
 516:	14090203          	lb	tp,320(s2)
 51a:	0100                	addi	s0,sp,128
 51c:	0105                	addi	sp,sp,1
 51e:	10090203          	lb	tp,256(s2)
 522:	0100                	addi	s0,sp,128
 524:	1a05                	addi	s4,s4,-31
 526:	10090303          	lb	t1,256(s2)
 52a:	0100                	addi	s0,sp,128
 52c:	0805                	addi	a6,a6,1
 52e:	14090103          	lb	sp,320(s2)
 532:	0100                	addi	s0,sp,128
 534:	1205                	addi	tp,tp,-31
 536:	0200                	addi	s0,sp,256
 538:	0104                	addi	s1,sp,128
 53a:	0c090003          	lb	zero,192(s2)
 53e:	0100                	addi	s0,sp,128
 540:	2805                	jal	570 <_stack_size-0xa90>
 542:	0200                	addi	s0,sp,256
 544:	0204                	addi	s1,sp,256
 546:	0c090003          	lb	zero,192(s2)
 54a:	0100                	addi	s0,sp,128
 54c:	0d05                	addi	s10,s10,1
 54e:	0c090103          	lb	sp,192(s2)
 552:	0100                	addi	s0,sp,128
 554:	1705                	addi	a4,a4,-31
 556:	0200                	addi	s0,sp,256
 558:	0104                	addi	s1,sp,128
 55a:	0c090003          	lb	zero,192(s2)
 55e:	0100                	addi	s0,sp,128
 560:	3205                	jal	fffffe80 <_edata+0x7fffee58>
 562:	0200                	addi	s0,sp,256
 564:	0204                	addi	s1,sp,256
 566:	0c090003          	lb	zero,192(s2)
 56a:	0100                	addi	s0,sp,128
 56c:	0d05                	addi	s10,s10,1
 56e:	0c090103          	lb	sp,192(s2)
 572:	0100                	addi	s0,sp,128
 574:	1705                	addi	a4,a4,-31
 576:	0200                	addi	s0,sp,256
 578:	0104                	addi	s1,sp,128
 57a:	0c090003          	lb	zero,192(s2)
 57e:	0100                	addi	s0,sp,128
 580:	3305                	jal	2a0 <_stack_size-0xd60>
 582:	0200                	addi	s0,sp,256
 584:	0204                	addi	s1,sp,256
 586:	0c090003          	lb	zero,192(s2)
 58a:	0100                	addi	s0,sp,128
 58c:	0c05                	addi	s8,s8,1
 58e:	0c090103          	lb	sp,192(s2)
 592:	0100                	addi	s0,sp,128
 594:	0105                	addi	sp,sp,1
 596:	04090103          	lb	sp,64(s2)
 59a:	0100                	addi	s0,sp,128
 59c:	1905                	addi	s2,s2,-31
 59e:	10090303          	lb	t1,256(s2)
 5a2:	0100                	addi	s0,sp,128
 5a4:	0905                	addi	s2,s2,1
 5a6:	14090103          	lb	sp,320(s2)
 5aa:	0100                	addi	s0,sp,128
 5ac:	0b05                	addi	s6,s6,1
 5ae:	04090103          	lb	sp,64(s2)
 5b2:	0100                	addi	s0,sp,128
 5b4:	1305                	addi	t1,t1,-31
 5b6:	04090103          	lb	sp,64(s2)
 5ba:	0100                	addi	s0,sp,128
 5bc:	1105                	addi	sp,sp,-31
 5be:	0c090003          	lb	zero,192(s2)
 5c2:	0100                	addi	s0,sp,128
 5c4:	0d05                	addi	s10,s10,1
 5c6:	04090003          	lb	zero,64(s2)
 5ca:	0100                	addi	s0,sp,128
 5cc:	04090203          	lb	tp,64(s2)
 5d0:	0100                	addi	s0,sp,128
 5d2:	1405                	addi	s0,s0,-31
 5d4:	14090303          	lb	t1,320(s2)
 5d8:	0100                	addi	s0,sp,128
 5da:	1f05                	addi	t5,t5,-31
 5dc:	08090003          	lb	zero,128(s2)
 5e0:	0100                	addi	s0,sp,128
 5e2:	0d05                	addi	s10,s10,1
 5e4:	08090003          	lb	zero,128(s2)
 5e8:	0100                	addi	s0,sp,128
 5ea:	0c05                	addi	s8,s8,1
 5ec:	08097a03          	0x8097a03
 5f0:	0100                	addi	s0,sp,128
 5f2:	0b05                	addi	s6,s6,1
 5f4:	08090003          	lb	zero,128(s2)
 5f8:	0100                	addi	s0,sp,128
 5fa:	0c05                	addi	s8,s8,1
 5fc:	04090803          	lb	a6,64(s2)
 600:	0100                	addi	s0,sp,128
 602:	0105                	addi	sp,sp,1
 604:	04090103          	lb	sp,64(s2)
 608:	0100                	addi	s0,sp,128
 60a:	2205                	jal	72a <_stack_size-0x8d6>
 60c:	14090303          	lb	t1,320(s2)
 610:	0100                	addi	s0,sp,128
 612:	0e05                	addi	t3,t3,1
 614:	1c090103          	lb	sp,448(s2)
 618:	0100                	addi	s0,sp,128
 61a:	0505                	addi	a0,a0,1
 61c:	08090003          	lb	zero,128(s2)
 620:	0100                	addi	s0,sp,128
 622:	0d05                	addi	s10,s10,1
 624:	0200                	addi	s0,sp,256
 626:	0304                	addi	s1,sp,384
 628:	04090103          	lb	sp,64(s2)
 62c:	0100                	addi	s0,sp,128
 62e:	0a05                	addi	s4,s4,1
 630:	0200                	addi	s0,sp,256
 632:	0304                	addi	s1,sp,384
 634:	0c090103          	lb	sp,192(s2)
 638:	0100                	addi	s0,sp,128
 63a:	1005                	c.nop	-31
 63c:	0200                	addi	s0,sp,256
 63e:	0304                	addi	s1,sp,384
 640:	0c090003          	lb	zero,192(s2)
 644:	0100                	addi	s0,sp,128
 646:	0e05                	addi	t3,t3,1
 648:	0200                	addi	s0,sp,256
 64a:	0304                	addi	s1,sp,384
 64c:	0c090003          	lb	zero,192(s2)
 650:	0100                	addi	s0,sp,128
 652:	0b05                	addi	s6,s6,1
 654:	0200                	addi	s0,sp,256
 656:	0304                	addi	s1,sp,384
 658:	04090103          	lb	sp,64(s2)
 65c:	0100                	addi	s0,sp,128
 65e:	1e05                	addi	t3,t3,-31
 660:	0200                	addi	s0,sp,256
 662:	0304                	addi	s1,sp,384
 664:	0c097d03          	0xc097d03
 668:	0100                	addi	s0,sp,128
 66a:	0505                	addi	a0,a0,1
 66c:	0200                	addi	s0,sp,256
 66e:	0104                	addi	s1,sp,128
 670:	0c090003          	lb	zero,192(s2)
 674:	0100                	addi	s0,sp,128
 676:	0c05                	addi	s8,s8,1
 678:	08090603          	lb	a2,128(s2)
 67c:	0100                	addi	s0,sp,128
 67e:	0105                	addi	sp,sp,1
 680:	04090103          	lb	sp,64(s2)
 684:	0100                	addi	s0,sp,128
 686:	1809                	addi	a6,a6,-30
 688:	0000                	unimp
 68a:	0101                	addi	sp,sp,0
 68c:	000002c3          	fmadd.s	ft5,ft0,ft0,ft0,rne
 690:	001f0003          	lb	zero,1(t5)
 694:	0000                	unimp
 696:	0101                	addi	sp,sp,0
 698:	000d0efb          	0xd0efb
 69c:	0101                	addi	sp,sp,0
 69e:	0101                	addi	sp,sp,0
 6a0:	0000                	unimp
 6a2:	0100                	addi	s0,sp,128
 6a4:	0000                	unimp
 6a6:	0001                	nop
 6a8:	69727473          	csrrci	s0,0x697,4
 6ac:	676e                	flw	fa4,216(sp)
 6ae:	632e                	flw	ft6,200(sp)
 6b0:	0000                	unimp
 6b2:	0000                	unimp
 6b4:	0500                	addi	s0,sp,640
 6b6:	0205001b          	0x205001b
 6ba:	06ec                	addi	a1,sp,844
 6bc:	2040                	fld	fs0,128(s0)
 6be:	0515                	addi	a0,a0,5
 6c0:	0903030b          	0x903030b
 6c4:	0010                	0x10
 6c6:	0501                	addi	a0,a0,0
 6c8:	0305                	addi	t1,t1,1
 6ca:	0900                	addi	s0,sp,144
 6cc:	0004                	0x4
 6ce:	0501                	addi	a0,a0,0
 6d0:	001c                	0x1c
 6d2:	0402                	c.slli64	s0
 6d4:	09000303          	lb	t1,144(zero) # 90 <_stack_size-0xf70>
 6d8:	0004                	0x4
 6da:	0501                	addi	a0,a0,0
 6dc:	0011                	c.nop	4
 6de:	0402                	c.slli64	s0
 6e0:	0301                	addi	t1,t1,0
 6e2:	0900                	addi	s0,sp,144
 6e4:	000c                	0xc
 6e6:	0501                	addi	a0,a0,0
 6e8:	0005                	c.nop	1
 6ea:	0402                	c.slli64	s0
 6ec:	0301                	addi	t1,t1,0
 6ee:	0900                	addi	s0,sp,144
 6f0:	0010                	0x10
 6f2:	0501                	addi	a0,a0,0
 6f4:	030c                	addi	a1,sp,384
 6f6:	0902                	c.slli64	s2
 6f8:	0004                	0x4
 6fa:	0501                	addi	a0,a0,0
 6fc:	0301                	addi	t1,t1,0
 6fe:	0901                	addi	s2,s2,0
 700:	0004                	0x4
 702:	0501                	addi	a0,a0,0
 704:	0335                	addi	t1,t1,13
 706:	00100903          	lb	s2,1(zero) # 1 <_stack_size-0xfff>
 70a:	0501                	addi	a0,a0,0
 70c:	0309                	addi	t1,t1,2
 70e:	0902                	c.slli64	s2
 710:	0020                	addi	s0,sp,8
 712:	0501                	addi	a0,a0,0
 714:	0318                	addi	a4,sp,384
 716:	0900                	addi	s0,sp,144
 718:	000c                	0xc
 71a:	0501                	addi	a0,a0,0
 71c:	0316                	slli	t1,t1,0x5
 71e:	0900                	addi	s0,sp,144
 720:	000c                	0xc
 722:	0501                	addi	a0,a0,0
 724:	0308                	addi	a0,sp,384
 726:	0900                	addi	s0,sp,144
 728:	0004                	0x4
 72a:	0501                	addi	a0,a0,0
 72c:	0035                	c.nop	13
 72e:	0402                	c.slli64	s0
 730:	0301                	addi	t1,t1,0
 732:	0900                	addi	s0,sp,144
 734:	0008                	0x8
 736:	0501                	addi	a0,a0,0
 738:	0318                	addi	a4,sp,384
 73a:	0902                	c.slli64	s2
 73c:	0008                	0x8
 73e:	0501                	addi	a0,a0,0
 740:	0900030b          	0x900030b
 744:	0010                	0x10
 746:	0301                	addi	t1,t1,0
 748:	0902                	c.slli64	s2
 74a:	000c                	0xc
 74c:	0501                	addi	a0,a0,0
 74e:	0316                	slli	t1,t1,0x5
 750:	0901                	addi	s2,s2,0
 752:	0004                	0x4
 754:	0501                	addi	a0,a0,0
 756:	030d                	addi	t1,t1,3
 758:	0900                	addi	s0,sp,144
 75a:	000c                	0xc
 75c:	0501                	addi	a0,a0,0
 75e:	0312                	slli	t1,t1,0x4
 760:	0900                	addi	s0,sp,144
 762:	000c                	0xc
 764:	0501                	addi	a0,a0,0
 766:	0310                	addi	a2,sp,384
 768:	0900                	addi	s0,sp,144
 76a:	0004                	0x4
 76c:	0501                	addi	a0,a0,0
 76e:	030c                	addi	a1,sp,384
 770:	097f                	0x97f
 772:	0004                	0x4
 774:	0501                	addi	a0,a0,0
 776:	0900030b          	0x900030b
 77a:	0008                	0x8
 77c:	0501                	addi	a0,a0,0
 77e:	030a                	slli	t1,t1,0x2
 780:	00040903          	lb	s2,0(s0) # ffff8000 <_edata+0x7fff6fd8>
 784:	0501                	addi	a0,a0,0
 786:	030c                	addi	a1,sp,384
 788:	0902                	c.slli64	s2
 78a:	0008                	0x8
 78c:	0501                	addi	a0,a0,0
 78e:	0301                	addi	t1,t1,0
 790:	0901                	addi	s2,s2,0
 792:	0004                	0x4
 794:	0501                	addi	a0,a0,0
 796:	0903032f          	0x903032f
 79a:	0018                	0x18
 79c:	0501                	addi	a0,a0,0
 79e:	0309                	addi	t1,t1,2
 7a0:	0902                	c.slli64	s2
 7a2:	0020                	addi	s0,sp,8
 7a4:	0501                	addi	a0,a0,0
 7a6:	0316                	slli	t1,t1,0x5
 7a8:	0900                	addi	s0,sp,144
 7aa:	000c                	0xc
 7ac:	0501                	addi	a0,a0,0
 7ae:	0321                	addi	t1,t1,8
 7b0:	0900                	addi	s0,sp,144
 7b2:	0004                	0x4
 7b4:	0501                	addi	a0,a0,0
 7b6:	0308                	addi	a0,sp,384
 7b8:	0900                	addi	s0,sp,144
 7ba:	0008                	0x8
 7bc:	0501                	addi	a0,a0,0
 7be:	002c                	addi	a1,sp,8
 7c0:	0402                	c.slli64	s0
 7c2:	0301                	addi	t1,t1,0
 7c4:	0900                	addi	s0,sp,144
 7c6:	0004                	0x4
 7c8:	0501                	addi	a0,a0,0
 7ca:	0316                	slli	t1,t1,0x5
 7cc:	00080903          	lb	s2,0(a6)
 7d0:	0501                	addi	a0,a0,0
 7d2:	0900030b          	0x900030b
 7d6:	0010                	0x10
 7d8:	0501                	addi	a0,a0,0
 7da:	09010307          	0x9010307
 7de:	000c                	0xc
 7e0:	0501                	addi	a0,a0,0
 7e2:	030a                	slli	t1,t1,0x2
 7e4:	0900                	addi	s0,sp,144
 7e6:	000c                	0xc
 7e8:	0501                	addi	a0,a0,0
 7ea:	0308                	addi	a0,sp,384
 7ec:	0901                	addi	s2,s2,0
 7ee:	0008                	0x8
 7f0:	0501                	addi	a0,a0,0
 7f2:	030c                	addi	a1,sp,384
 7f4:	0902                	c.slli64	s2
 7f6:	0008                	0x8
 7f8:	0501                	addi	a0,a0,0
 7fa:	0301                	addi	t1,t1,0
 7fc:	0901                	addi	s2,s2,0
 7fe:	0004                	0x4
 800:	0501                	addi	a0,a0,0
 802:	0903033f 05010014 	0x50100140903033f
 80a:	0308                	addi	a0,sp,384
 80c:	0902                	c.slli64	s2
 80e:	0020                	addi	s0,sp,8
 810:	0501                	addi	a0,a0,0
 812:	0402001b          	0x402001b
 816:	0301                	addi	t1,t1,0
 818:	0900                	addi	s0,sp,144
 81a:	0008                	0x8
 81c:	0501                	addi	a0,a0,0
 81e:	0309                	addi	t1,t1,2
 820:	0901                	addi	s2,s2,0
 822:	0008                	0x8
 824:	0501                	addi	a0,a0,0
 826:	031c                	addi	a5,sp,384
 828:	0900                	addi	s0,sp,144
 82a:	000c                	0xc
 82c:	0501                	addi	a0,a0,0
 82e:	0308                	addi	a0,sp,384
 830:	0900                	addi	s0,sp,144
 832:	0008                	0x8
 834:	0501                	addi	a0,a0,0
 836:	04020027          	0x4020027
 83a:	0301                	addi	t1,t1,0
 83c:	0900                	addi	s0,sp,144
 83e:	0004                	0x4
 840:	0501                	addi	a0,a0,0
 842:	0903030b          	0x903030b
 846:	0008                	0x8
 848:	0301                	addi	t1,t1,0
 84a:	0901                	addi	s2,s2,0
 84c:	0008                	0x8
 84e:	0501                	addi	a0,a0,0
 850:	09010317          	auipc	t1,0x9010
 854:	0004                	0x4
 856:	0501                	addi	a0,a0,0
 858:	030e                	slli	t1,t1,0x3
 85a:	0900                	addi	s0,sp,144
 85c:	000c                	0xc
 85e:	0501                	addi	a0,a0,0
 860:	09000313          	li	t1,144
 864:	000c                	0xc
 866:	0501                	addi	a0,a0,0
 868:	0311                	addi	t1,t1,4
 86a:	0900                	addi	s0,sp,144
 86c:	0004                	0x4
 86e:	0501                	addi	a0,a0,0
 870:	030c                	addi	a1,sp,384
 872:	097f                	0x97f
 874:	0004                	0x4
 876:	0501                	addi	a0,a0,0
 878:	0900030b          	0x900030b
 87c:	0008                	0x8
 87e:	0501                	addi	a0,a0,0
 880:	04020017          	auipc	zero,0x4020
 884:	0301                	addi	t1,t1,0
 886:	0900                	addi	s0,sp,144
 888:	0004                	0x4
 88a:	0501                	addi	a0,a0,0
 88c:	0011                	c.nop	4
 88e:	0402                	c.slli64	s0
 890:	0301                	addi	t1,t1,0
 892:	0900                	addi	s0,sp,144
 894:	000c                	0xc
 896:	0501                	addi	a0,a0,0
 898:	0903030b          	0x903030b
 89c:	0004                	0x4
 89e:	0501                	addi	a0,a0,0
 8a0:	030c                	addi	a1,sp,384
 8a2:	0902                	c.slli64	s2
 8a4:	0008                	0x8
 8a6:	0501                	addi	a0,a0,0
 8a8:	0301                	addi	t1,t1,0
 8aa:	0901                	addi	s2,s2,0
 8ac:	0004                	0x4
 8ae:	0501                	addi	a0,a0,0
 8b0:	032c                	addi	a1,sp,392
 8b2:	00140903          	lb	s2,1(s0)
 8b6:	0501                	addi	a0,a0,0
 8b8:	030a                	slli	t1,t1,0x2
 8ba:	0901                	addi	s2,s2,0
 8bc:	0014                	0x14
 8be:	0501                	addi	a0,a0,0
 8c0:	030c                	addi	a1,sp,384
 8c2:	0901                	addi	s2,s2,0
 8c4:	0004                	0x4
 8c6:	0501                	addi	a0,a0,0
 8c8:	0312                	slli	t1,t1,0x4
 8ca:	0900                	addi	s0,sp,144
 8cc:	0008                	0x8
 8ce:	0501                	addi	a0,a0,0
 8d0:	0900030b          	0x900030b
 8d4:	0008                	0x8
 8d6:	0501                	addi	a0,a0,0
 8d8:	001e                	c.slli	zero,0x7
 8da:	0402                	c.slli64	s0
 8dc:	0301                	addi	t1,t1,0
 8de:	0900                	addi	s0,sp,144
 8e0:	0004                	0x4
 8e2:	0501                	addi	a0,a0,0
 8e4:	030c                	addi	a1,sp,384
 8e6:	0901                	addi	s2,s2,0
 8e8:	0008                	0x8
 8ea:	0501                	addi	a0,a0,0
 8ec:	0312                	slli	t1,t1,0x4
 8ee:	0900                	addi	s0,sp,144
 8f0:	0008                	0x8
 8f2:	0501                	addi	a0,a0,0
 8f4:	0900030b          	0x900030b
 8f8:	0008                	0x8
 8fa:	0501                	addi	a0,a0,0
 8fc:	001e                	c.slli	zero,0x7
 8fe:	0402                	c.slli64	s0
 900:	0301                	addi	t1,t1,0
 902:	0900                	addi	s0,sp,144
 904:	0004                	0x4
 906:	0501                	addi	a0,a0,0
 908:	0901030b          	0x901030b
 90c:	0008                	0x8
 90e:	0301                	addi	t1,t1,0
 910:	0901                	addi	s2,s2,0
 912:	000c                	0xc
 914:	0501                	addi	a0,a0,0
 916:	030c                	addi	a1,sp,384
 918:	097c                	addi	a5,sp,156
 91a:	000c                	0xc
 91c:	0501                	addi	a0,a0,0
 91e:	030a                	slli	t1,t1,0x2
 920:	0900                	addi	s0,sp,144
 922:	0008                	0x8
 924:	0501                	addi	a0,a0,0
 926:	0402001b          	0x402001b
 92a:	0301                	addi	t1,t1,0
 92c:	0900                	addi	s0,sp,144
 92e:	0004                	0x4
 930:	0501                	addi	a0,a0,0
 932:	04020017          	auipc	zero,0x4020
 936:	0301                	addi	t1,t1,0
 938:	0900                	addi	s0,sp,144
 93a:	0008                	0x8
 93c:	0501                	addi	a0,a0,0
 93e:	030c                	addi	a1,sp,384
 940:	0906                	slli	s2,s2,0x1
 942:	0004                	0x4
 944:	0501                	addi	a0,a0,0
 946:	0301                	addi	t1,t1,0
 948:	0901                	addi	s2,s2,0
 94a:	0004                	0x4
 94c:	0901                	addi	s2,s2,0
 94e:	0010                	0x10
 950:	0100                	addi	s0,sp,128
 952:	d201                	beqz	a2,852 <_stack_size-0x7ae>
 954:	0000                	unimp
 956:	0300                	addi	s0,sp,384
 958:	1e00                	addi	s0,sp,816
 95a:	0000                	unimp
 95c:	0100                	addi	s0,sp,128
 95e:	fb01                	bnez	a4,86e <_stack_size-0x792>
 960:	0d0e                	slli	s10,s10,0x3
 962:	0100                	addi	s0,sp,128
 964:	0101                	addi	sp,sp,0
 966:	0001                	nop
 968:	0000                	unimp
 96a:	0001                	nop
 96c:	0100                	addi	s0,sp,128
 96e:	7300                	flw	fs0,32(a4)
 970:	666e6163          	bltu	t3,t1,fd2 <_stack_size-0x2e>
 974:	632e                	flw	ft6,200(sp)
 976:	0000                	unimp
 978:	0000                	unimp
 97a:	0500                	addi	s0,sp,640
 97c:	0018                	0x18
 97e:	0205                	addi	tp,tp,1
 980:	09d4                	addi	a3,sp,212
 982:	2040                	fld	fs0,128(s0)
 984:	0515                	addi	a0,a0,5
 986:	0301                	addi	t1,t1,0
 988:	0905                	addi	s2,s2,1
 98a:	0010                	0x10
 98c:	0501                	addi	a0,a0,0
 98e:	0322                	slli	t1,t1,0x8
 990:	0902                	c.slli64	s2
 992:	0010                	0x10
 994:	0501                	addi	a0,a0,0
 996:	030e                	slli	t1,t1,0x3
 998:	0901                	addi	s2,s2,0
 99a:	0018                	0x18
 99c:	0501                	addi	a0,a0,0
 99e:	0305                	addi	t1,t1,1
 9a0:	0900                	addi	s0,sp,144
 9a2:	0004                	0x4
 9a4:	0501                	addi	a0,a0,0
 9a6:	0309                	addi	t1,t1,2
 9a8:	0901                	addi	s2,s2,0
 9aa:	0004                	0x4
 9ac:	0501                	addi	a0,a0,0
 9ae:	0319                	addi	t1,t1,6
 9b0:	0901                	addi	s2,s2,0
 9b2:	0014                	0x14
 9b4:	0501                	addi	a0,a0,0
 9b6:	0309                	addi	t1,t1,2
 9b8:	0900                	addi	s0,sp,144
 9ba:	0010                	0x10
 9bc:	0501                	addi	a0,a0,0
 9be:	0310                	addi	a2,sp,384
 9c0:	00100903          	lb	s2,1(zero) # 1 <_stack_size-0xfff>
 9c4:	0501                	addi	a0,a0,0
 9c6:	030c                	addi	a1,sp,384
 9c8:	0900                	addi	s0,sp,144
 9ca:	0010                	0x10
 9cc:	0501                	addi	a0,a0,0
 9ce:	0310                	addi	a2,sp,384
 9d0:	0901                	addi	s2,s2,0
 9d2:	0008                	0x8
 9d4:	0501                	addi	a0,a0,0
 9d6:	0314                	addi	a3,sp,384
 9d8:	0900                	addi	s0,sp,144
 9da:	000c                	0xc
 9dc:	0501                	addi	a0,a0,0
 9de:	030d                	addi	t1,t1,3
 9e0:	0901                	addi	s2,s2,0
 9e2:	0004                	0x4
 9e4:	0301                	addi	t1,t1,0
 9e6:	0901                	addi	s2,s2,0
 9e8:	0010                	0x10
 9ea:	0501                	addi	a0,a0,0
 9ec:	0021                	c.nop	8
 9ee:	0402                	c.slli64	s0
 9f0:	0302                	c.slli64	t1
 9f2:	0978                	addi	a4,sp,156
 9f4:	0004                	0x4
 9f6:	0501                	addi	a0,a0,0
 9f8:	0005                	c.nop	1
 9fa:	0402                	c.slli64	s0
 9fc:	0301                	addi	t1,t1,0
 9fe:	0900                	addi	s0,sp,144
 a00:	000c                	0xc
 a02:	0501                	addi	a0,a0,0
 a04:	0308                	addi	a0,sp,384
 a06:	000c090b          	0xc090b
 a0a:	0501                	addi	a0,a0,0
 a0c:	0312                	slli	t1,t1,0x4
 a0e:	0900                	addi	s0,sp,144
 a10:	0010                	0x10
 a12:	0501                	addi	a0,a0,0
 a14:	0305                	addi	t1,t1,1
 a16:	0901                	addi	s2,s2,0
 a18:	0004                	0x4
 a1a:	0501                	addi	a0,a0,0
 a1c:	0301                	addi	t1,t1,0
 a1e:	0901                	addi	s2,s2,0
 a20:	0010                	0x10
 a22:	0901                	addi	s2,s2,0
 a24:	0010                	0x10
 a26:	0100                	addi	s0,sp,128
 a28:	9a01                	andi	a2,a2,-32
 a2a:	03000003          	lb	zero,48(zero) # 30 <_stack_size-0xfd0>
 a2e:	8e00                	0x8e00
 a30:	0000                	unimp
 a32:	0100                	addi	s0,sp,128
 a34:	fb01                	bnez	a4,944 <_stack_size-0x6bc>
 a36:	0d0e                	slli	s10,s10,0x3
 a38:	0100                	addi	s0,sp,128
 a3a:	0101                	addi	sp,sp,0
 a3c:	0001                	nop
 a3e:	0000                	unimp
 a40:	0001                	nop
 a42:	0100                	addi	s0,sp,128
 a44:	6573552f          	0x6573552f
 a48:	7372                	flw	ft6,60(sp)
 a4a:	646e612f          	0x646e612f
 a4e:	6572                	flw	fa0,28(sp)
 a50:	65687377          	0x65687377
 a54:	2f6e                	fld	ft10,216(sp)
 a56:	6f44                	flw	fs1,28(a4)
 a58:	656d7563          	bgeu	s10,s6,10a2 <_stack_size+0xa2>
 a5c:	746e                	flw	fs0,248(sp)
 a5e:	72702f73          	csrr	t5,0x727
 a62:	6d69                	lui	s10,0x1a
 a64:	7365                	lui	t1,0xffff9
 a66:	3032                	fld	ft0,296(sp)
 a68:	3931                	jal	684 <_stack_size-0x97c>
 a6a:	7369722f          	0x7369722f
 a6e:	34367663          	bgeu	a2,gp,dba <_stack_size-0x246>
 a72:	742d                	lui	s0,0xfffeb
 a74:	636c6f6f          	jal	t5,c70aa <_stack_size+0xc60aa>
 a78:	6168                	flw	fa0,68(a0)
 a7a:	6e69                	lui	t3,0x1a
 a7c:	62696c2f          	0x62696c2f
 a80:	6363672f          	0x6363672f
 a84:	7369722f          	0x7369722f
 a88:	34367663          	bgeu	a2,gp,dd4 <_stack_size-0x22c>
 a8c:	752d                	lui	a0,0xfffeb
 a8e:	6b6e                	flw	fs6,216(sp)
 a90:	6f6e                	flw	ft10,216(sp)
 a92:	652d6e77          	0x652d6e77
 a96:	666c                	flw	fa1,76(a2)
 a98:	322e382f          	0x322e382f
 a9c:	302e                	fld	ft0,232(sp)
 a9e:	636e692f          	0x636e692f
 aa2:	756c                	flw	fa1,108(a0)
 aa4:	6564                	flw	fs1,76(a0)
 aa6:	0000                	unimp
 aa8:	7270                	flw	fa2,100(a2)
 aaa:	6e69                	lui	t3,0x1a
 aac:	6674                	flw	fa3,76(a2)
 aae:	632e                	flw	ft6,200(sp)
 ab0:	0000                	unimp
 ab2:	0000                	unimp
 ab4:	61647473          	csrrci	s0,0x616,8
 ab8:	6772                	flw	fa4,28(sp)
 aba:	682e                	flw	fa6,200(sp)
 abc:	0100                	addi	s0,sp,128
 abe:	0000                	unimp
 ac0:	0500                	addi	s0,sp,640
 ac2:	0032                	c.slli	zero,0xc
 ac4:	0205                	addi	tp,tp,1
 ac6:	0ad0                	addi	a2,sp,340
 ac8:	2040                	fld	fs0,128(s0)
 aca:	051a                	slli	a0,a0,0x6
 acc:	09050307          	0x9050307
 ad0:	001c                	0x1c
 ad2:	0501                	addi	a0,a0,0
 ad4:	0402001b          	0x402001b
 ad8:	0301                	addi	t1,t1,0
 ada:	0900                	addi	s0,sp,144
 adc:	0008                	0x8
 ade:	0501                	addi	a0,a0,0
 ae0:	0016                	c.slli	zero,0x5
 ae2:	0402                	c.slli64	s0
 ae4:	0301                	addi	t1,t1,0
 ae6:	0900                	addi	s0,sp,144
 ae8:	000c                	0xc
 aea:	0501                	addi	a0,a0,0
 aec:	000d                	c.nop	3
 aee:	0402                	c.slli64	s0
 af0:	0301                	addi	t1,t1,0
 af2:	0900                	addi	s0,sp,144
 af4:	0004                	0x4
 af6:	0501                	addi	a0,a0,0
 af8:	0901030b          	0x901030b
 afc:	0008                	0x8
 afe:	0301                	addi	t1,t1,0
 b00:	0902                	c.slli64	s2
 b02:	0010                	0x10
 b04:	0501                	addi	a0,a0,0
 b06:	09020307          	0x9020307
 b0a:	0008                	0x8
 b0c:	0501                	addi	a0,a0,0
 b0e:	001d                	c.nop	7
 b10:	0402                	c.slli64	s0
 b12:	0301                	addi	t1,t1,0
 b14:	0902                	c.slli64	s2
 b16:	0004                	0x4
 b18:	0501                	addi	a0,a0,0
 b1a:	000e                	c.slli	zero,0x3
 b1c:	0402                	c.slli64	s0
 b1e:	0301                	addi	t1,t1,0
 b20:	0900                	addi	s0,sp,144
 b22:	000c                	0xc
 b24:	0501                	addi	a0,a0,0
 b26:	001a                	c.slli	zero,0x6
 b28:	0402                	c.slli64	s0
 b2a:	0301                	addi	t1,t1,0
 b2c:	0900                	addi	s0,sp,144
 b2e:	000c                	0xc
 b30:	0501                	addi	a0,a0,0
 b32:	0012                	c.slli	zero,0x4
 b34:	0402                	c.slli64	s0
 b36:	0301                	addi	t1,t1,0
 b38:	0900                	addi	s0,sp,144
 b3a:	0010                	0x10
 b3c:	0501                	addi	a0,a0,0
 b3e:	0010                	0x10
 b40:	0402                	c.slli64	s0
 b42:	0301                	addi	t1,t1,0
 b44:	0901                	addi	s2,s2,0
 b46:	000c                	0xc
 b48:	0501                	addi	a0,a0,0
 b4a:	0005                	c.nop	1
 b4c:	0402                	c.slli64	s0
 b4e:	0301                	addi	t1,t1,0
 b50:	0900                	addi	s0,sp,144
 b52:	0010                	0x10
 b54:	0501                	addi	a0,a0,0
 b56:	09020307          	0x9020307
 b5a:	0008                	0x8
 b5c:	0501                	addi	a0,a0,0
 b5e:	030e                	slli	t1,t1,0x3
 b60:	0901                	addi	s2,s2,0
 b62:	0008                	0x8
 b64:	0501                	addi	a0,a0,0
 b66:	0312                	slli	t1,t1,0x4
 b68:	0900                	addi	s0,sp,144
 b6a:	000c                	0xc
 b6c:	0501                	addi	a0,a0,0
 b6e:	030a                	slli	t1,t1,0x2
 b70:	0902                	c.slli64	s2
 b72:	0010                	0x10
 b74:	0501                	addi	a0,a0,0
 b76:	0309                	addi	t1,t1,2
 b78:	0901                	addi	s2,s2,0
 b7a:	0004                	0x4
 b7c:	0501                	addi	a0,a0,0
 b7e:	030a                	slli	t1,t1,0x2
 b80:	097f                	0x97f
 b82:	0018                	0x18
 b84:	0501                	addi	a0,a0,0
 b86:	0301                	addi	t1,t1,0
 b88:	0902                	c.slli64	s2
 b8a:	0014                	0x14
 b8c:	0501                	addi	a0,a0,0
 b8e:	031d                	addi	t1,t1,7
 b90:	0902                	c.slli64	s2
 b92:	0014                	0x14
 b94:	0501                	addi	a0,a0,0
 b96:	0305                	addi	t1,t1,1
 b98:	0902                	c.slli64	s2
 b9a:	0014                	0x14
 b9c:	0301                	addi	t1,t1,0
 b9e:	0901                	addi	s2,s2,0
 ba0:	0008                	0x8
 ba2:	0501                	addi	a0,a0,0
 ba4:	030c                	addi	a1,sp,384
 ba6:	0901                	addi	s2,s2,0
 ba8:	0008                	0x8
 baa:	0501                	addi	a0,a0,0
 bac:	0305                	addi	t1,t1,1
 bae:	0900                	addi	s0,sp,144
 bb0:	0004                	0x4
 bb2:	0501                	addi	a0,a0,0
 bb4:	0018                	0x18
 bb6:	0402                	c.slli64	s0
 bb8:	09010303          	lb	t1,144(sp)
 bbc:	0004                	0x4
 bbe:	0501                	addi	a0,a0,0
 bc0:	0009                	c.nop	2
 bc2:	0402                	c.slli64	s0
 bc4:	09000303          	lb	t1,144(zero) # 90 <_stack_size-0xf70>
 bc8:	0008                	0x8
 bca:	0501                	addi	a0,a0,0
 bcc:	0029                	c.nop	10
 bce:	0402                	c.slli64	s0
 bd0:	097f0303          	lb	t1,151(t5)
 bd4:	0018                	0x18
 bd6:	0501                	addi	a0,a0,0
 bd8:	0402002f          	0x402002f
 bdc:	09000303          	lb	t1,144(zero) # 90 <_stack_size-0xf70>
 be0:	000c                	0xc
 be2:	0501                	addi	a0,a0,0
 be4:	04020013          	addi	zero,tp,64 # 40 <_stack_size-0xfc0>
 be8:	0301                	addi	t1,t1,0
 bea:	0900                	addi	s0,sp,144
 bec:	000c                	0xc
 bee:	0501                	addi	a0,a0,0
 bf0:	0005                	c.nop	1
 bf2:	0402                	c.slli64	s0
 bf4:	0301                	addi	t1,t1,0
 bf6:	0900                	addi	s0,sp,144
 bf8:	0004                	0x4
 bfa:	0501                	addi	a0,a0,0
 bfc:	0301                	addi	t1,t1,0
 bfe:	0902                	c.slli64	s2
 c00:	0008                	0x8
 c02:	0501                	addi	a0,a0,0
 c04:	031d                	addi	t1,t1,7
 c06:	0904                	addi	s1,sp,144
 c08:	0014                	0x14
 c0a:	0501                	addi	a0,a0,0
 c0c:	0305                	addi	t1,t1,1
 c0e:	0905                	addi	s2,s2,1
 c10:	0030                	addi	a2,sp,8
 c12:	0501                	addi	a0,a0,0
 c14:	0901030b          	0x901030b
 c18:	000c                	0xc
 c1a:	0501                	addi	a0,a0,0
 c1c:	0305                	addi	t1,t1,1
 c1e:	0900                	addi	s0,sp,144
 c20:	0004                	0x4
 c22:	0501                	addi	a0,a0,0
 c24:	0901030b          	0x901030b
 c28:	0004                	0x4
 c2a:	0501                	addi	a0,a0,0
 c2c:	030d                	addi	t1,t1,3
 c2e:	0901                	addi	s2,s2,0
 c30:	000c                	0xc
 c32:	0301                	addi	t1,t1,0
 c34:	0901                	addi	s2,s2,0
 c36:	0010                	0x10
 c38:	0501                	addi	a0,a0,0
 c3a:	0902030b          	0x902030b
 c3e:	0004                	0x4
 c40:	0501                	addi	a0,a0,0
 c42:	0311                	addi	t1,t1,4
 c44:	0900                	addi	s0,sp,144
 c46:	000c                	0xc
 c48:	0501                	addi	a0,a0,0
 c4a:	0310                	addi	a2,sp,384
 c4c:	0900                	addi	s0,sp,144
 c4e:	0004                	0x4
 c50:	0501                	addi	a0,a0,0
 c52:	0900030b          	0x900030b
 c56:	000c                	0xc
 c58:	0301                	addi	t1,t1,0
 c5a:	0901                	addi	s2,s2,0
 c5c:	0004                	0x4
 c5e:	0501                	addi	a0,a0,0
 c60:	0311                	addi	t1,t1,4
 c62:	0904                	addi	s1,sp,144
 c64:	0058                	addi	a4,sp,4
 c66:	0301                	addi	t1,t1,0
 c68:	0901                	addi	s2,s2,0
 c6a:	0020                	addi	s0,sp,8
 c6c:	0301                	addi	t1,t1,0
 c6e:	0902                	c.slli64	s2
 c70:	0004                	0x4
 c72:	0301                	addi	t1,t1,0
 c74:	0901                	addi	s2,s2,0
 c76:	0020                	addi	s0,sp,8
 c78:	0301                	addi	t1,t1,0
 c7a:	0902                	c.slli64	s2
 c7c:	0004                	0x4
 c7e:	0301                	addi	t1,t1,0
 c80:	0901                	addi	s2,s2,0
 c82:	0018                	0x18
 c84:	0501                	addi	a0,a0,0
 c86:	09020317          	auipc	t1,0x9020
 c8a:	0004                	0x4
 c8c:	0501                	addi	a0,a0,0
 c8e:	09000313          	li	t1,144
 c92:	0014                	0x14
 c94:	0501                	addi	a0,a0,0
 c96:	09010317          	auipc	t1,0x9010
 c9a:	0008                	0x8
 c9c:	0501                	addi	a0,a0,0
 c9e:	0311                	addi	t1,t1,4
 ca0:	0901                	addi	s2,s2,0
 ca2:	000c                	0xc
 ca4:	0501                	addi	a0,a0,0
 ca6:	0015                	c.nop	5
 ca8:	0402                	c.slli64	s0
 caa:	0302                	c.slli64	t1
 cac:	0901                	addi	s2,s2,0
 cae:	0004                	0x4
 cb0:	0501                	addi	a0,a0,0
 cb2:	001c                	0x1c
 cb4:	0402                	c.slli64	s0
 cb6:	0302                	c.slli64	t1
 cb8:	097f                	0x97f
 cba:	0010                	0x10
 cbc:	0501                	addi	a0,a0,0
 cbe:	04020017          	auipc	zero,0x4020
 cc2:	0301                	addi	t1,t1,0
 cc4:	0900                	addi	s0,sp,144
 cc6:	000c                	0xc
 cc8:	0501                	addi	a0,a0,0
 cca:	0011                	c.nop	4
 ccc:	0402                	c.slli64	s0
 cce:	0301                	addi	t1,t1,0
 cd0:	0900                	addi	s0,sp,144
 cd2:	0008                	0x8
 cd4:	0301                	addi	t1,t1,0
 cd6:	0902                	c.slli64	s2
 cd8:	0004                	0x4
 cda:	0301                	addi	t1,t1,0
 cdc:	0902                	c.slli64	s2
 cde:	0004                	0x4
 ce0:	0301                	addi	t1,t1,0
 ce2:	0901                	addi	s2,s2,0
 ce4:	0008                	0x8
 ce6:	0301                	addi	t1,t1,0
 ce8:	00040903          	lb	s2,0(s0) # fffeb000 <_edata+0x7ffe9fd8>
 cec:	0301                	addi	t1,t1,0
 cee:	0901                	addi	s2,s2,0
 cf0:	0008                	0x8
 cf2:	0301                	addi	t1,t1,0
 cf4:	0901                	addi	s2,s2,0
 cf6:	0010                	0x10
 cf8:	0501                	addi	a0,a0,0
 cfa:	0402002b          	0x402002b
 cfe:	0302                	c.slli64	t1
 d00:	0961                	addi	s2,s2,24
 d02:	0004                	0x4
 d04:	0501                	addi	a0,a0,0
 d06:	0018                	0x18
 d08:	0402                	c.slli64	s0
 d0a:	0301                	addi	t1,t1,0
 d0c:	0900                	addi	s0,sp,144
 d0e:	000c                	0xc
 d10:	0501                	addi	a0,a0,0
 d12:	04020013          	addi	zero,tp,64 # 40 <_stack_size-0xfc0>
 d16:	0301                	addi	t1,t1,0
 d18:	0900                	addi	s0,sp,144
 d1a:	0010                	0x10
 d1c:	0501                	addi	a0,a0,0
 d1e:	0005                	c.nop	1
 d20:	0402                	c.slli64	s0
 d22:	0301                	addi	t1,t1,0
 d24:	0900                	addi	s0,sp,144
 d26:	0004                	0x4
 d28:	0501                	addi	a0,a0,0
 d2a:	0301                	addi	t1,t1,0
 d2c:	0922                	slli	s2,s2,0x8
 d2e:	0008                	0x8
 d30:	0501                	addi	a0,a0,0
 d32:	030d                	addi	t1,t1,3
 d34:	0965                	addi	s2,s2,25
 d36:	0004                	0x4
 d38:	0501                	addi	a0,a0,0
 d3a:	0001                	nop
 d3c:	0402                	c.slli64	s0
 d3e:	0301                	addi	t1,t1,0
 d40:	0004091b          	0x4091b
 d44:	0501                	addi	a0,a0,0
 d46:	09030323          	sb	a6,134(t1) # 9010d1c <_stack_size+0x900fd1c>
 d4a:	0014                	0x14
 d4c:	0501                	addi	a0,a0,0
 d4e:	0301                	addi	t1,t1,0
 d50:	0906                	slli	s2,s2,0x1
 d52:	0014                	0x14
 d54:	0501                	addi	a0,a0,0
 d56:	09030327          	0x9030327
 d5a:	0010                	0x10
 d5c:	0501                	addi	a0,a0,0
 d5e:	0308                	addi	a0,sp,384
 d60:	0901                	addi	s2,s2,0
 d62:	0018                	0x18
 d64:	0501                	addi	a0,a0,0
 d66:	0309                	addi	t1,t1,2
 d68:	0901                	addi	s2,s2,0
 d6a:	000c                	0xc
 d6c:	0501                	addi	a0,a0,0
 d6e:	0301                	addi	t1,t1,0
 d70:	0905                	addi	s2,s2,1
 d72:	0020                	addi	s0,sp,8
 d74:	0501                	addi	a0,a0,0
 d76:	0309                	addi	t1,t1,2
 d78:	097d                	addi	s2,s2,31
 d7a:	0004                	0x4
 d7c:	0301                	addi	t1,t1,0
 d7e:	0901                	addi	s2,s2,0
 d80:	0018                	0x18
 d82:	0501                	addi	a0,a0,0
 d84:	0301                	addi	t1,t1,0
 d86:	0902                	c.slli64	s2
 d88:	0018                	0x18
 d8a:	0501                	addi	a0,a0,0
 d8c:	09030327          	0x9030327
 d90:	0014                	0x14
 d92:	0501                	addi	a0,a0,0
 d94:	0308                	addi	a0,sp,384
 d96:	0901                	addi	s2,s2,0
 d98:	0018                	0x18
 d9a:	0501                	addi	a0,a0,0
 d9c:	0309                	addi	t1,t1,2
 d9e:	0901                	addi	s2,s2,0
 da0:	000c                	0xc
 da2:	0501                	addi	a0,a0,0
 da4:	0301                	addi	t1,t1,0
 da6:	0905                	addi	s2,s2,1
 da8:	0020                	addi	s0,sp,8
 daa:	0501                	addi	a0,a0,0
 dac:	0309                	addi	t1,t1,2
 dae:	097d                	addi	s2,s2,31
 db0:	0004                	0x4
 db2:	0301                	addi	t1,t1,0
 db4:	0901                	addi	s2,s2,0
 db6:	0014                	0x14
 db8:	0501                	addi	a0,a0,0
 dba:	0301                	addi	t1,t1,0
 dbc:	0902                	c.slli64	s2
 dbe:	0014                	0x14
 dc0:	0901                	addi	s2,s2,0
 dc2:	0014                	0x14
 dc4:	0100                	addi	s0,sp,128
 dc6:	01              	Address 0x0000000000000dc6 is out of bounds.


Disassembly of section .debug_info:

00000000 <.debug_info>:
   0:	0022                	c.slli	zero,0x8
   2:	0000                	unimp
   4:	0002                	c.slli64	zero
   6:	0000                	unimp
   8:	0000                	unimp
   a:	0104                	addi	s1,sp,128
   c:	0000                	unimp
   e:	0000                	unimp
  10:	0000                	unimp
  12:	2040                	fld	fs0,128(s0)
  14:	0068                	addi	a0,sp,12
  16:	2040                	fld	fs0,128(s0)
  18:	0000                	unimp
  1a:	0000                	unimp
  1c:	000a                	c.slli	zero,0x2
  1e:	0000                	unimp
  20:	003d                	c.nop	15
  22:	0000                	unimp
  24:	8001                	c.srli64	s0
  26:	0090                	addi	a2,sp,64
  28:	0000                	unimp
  2a:	0004                	0x4
  2c:	0014                	0x14
  2e:	0000                	unimp
  30:	0104                	addi	s1,sp,128
  32:	0079                	c.nop	30
  34:	0000                	unimp
  36:	660c                	flw	fa1,8(a2)
  38:	0000                	unimp
  3a:	0a00                	addi	s0,sp,272
  3c:	0000                	unimp
  3e:	6800                	flw	fs0,16(s0)
  40:	4000                	lw	s0,0(s0)
  42:	7020                	flw	fs0,96(s0)
  44:	0000                	unimp
  46:	aa00                	fsd	fs0,16(a2)
  48:	0000                	unimp
  4a:	0200                	addi	s0,sp,256
  4c:	0704                	addi	s1,sp,896
  4e:	0049                	c.nop	18
  50:	0000                	unimp
  52:	00007403          	0x7403
  56:	0100                	addi	s0,sp,128
  58:	0606                	slli	a2,a2,0x1
  5a:	0068                	addi	a0,sp,12
  5c:	2040                	fld	fs0,128(s0)
  5e:	0070                	addi	a2,sp,12
  60:	0000                	unimp
  62:	9c01                	0x9c01
  64:	0000006f          	j	64 <_stack_size-0xf9c>
  68:	5604                	lw	s1,40(a2)
  6a:	0000                	unimp
  6c:	0100                	addi	s0,sp,128
  6e:	006f0b07          	0x6f0b07
  72:	0000                	unimp
  74:	9102                	jalr	sp
  76:	046c                	addi	a1,sp,524
  78:	006d                	c.nop	27
  7a:	0000                	unimp
  7c:	0a01                	addi	s4,s4,0
  7e:	7c0a                	flw	fs8,160(sp)
  80:	0000                	unimp
  82:	0200                	addi	s0,sp,256
  84:	5891                	li	a7,-28
  86:	5b05                	li	s6,-31
  88:	0000                	unimp
  8a:	0100                	addi	s0,sp,128
  8c:	050c                	addi	a1,sp,640
  8e:	008c                	addi	a1,sp,64
  90:	0000                	unimp
  92:	0006                	c.slli	zero,0x1
  94:	0700                	addi	s0,sp,896
  96:	7504                	flw	fs1,40(a0)
  98:	0000                	unimp
  9a:	0200                	addi	s0,sp,256
  9c:	0801                	addi	a6,a6,0
  9e:	0061                	c.nop	24
  a0:	0000                	unimp
  a2:	7508                	flw	fa0,40(a0)
  a4:	0000                	unimp
  a6:	8c00                	0x8c00
  a8:	0000                	unimp
  aa:	0900                	addi	s0,sp,144
  ac:	0025                	c.nop	9
  ae:	0000                	unimp
  b0:	040a0013          	addi	zero,s4,64
  b4:	6905                	lui	s2,0x1
  b6:	746e                	flw	fs0,248(sp)
  b8:	0000                	unimp
  ba:	0000023b          	0x23b
  be:	0004                	0x4
  c0:	009c                	addi	a5,sp,64
  c2:	0000                	unimp
  c4:	0104                	addi	s1,sp,128
  c6:	0079                	c.nop	30
  c8:	0000                	unimp
  ca:	ff0c                	fsw	fa1,56(a4)
  cc:	0000                	unimp
  ce:	0a00                	addi	s0,sp,272
  d0:	0000                	unimp
  d2:	d800                	sw	s0,48(s0)
  d4:	4000                	lw	s0,0(s0)
  d6:	2420                	fld	fs0,72(s0)
  d8:	0004                	0x4
  da:	0b00                	addi	s0,sp,400
  dc:	0001                	nop
  de:	0200                	addi	s0,sp,256
  e0:	0000011b          	0x11b
  e4:	2802                	fld	fa6,0(sp)
  e6:	0000311b          	0x311b
  ea:	0300                	addi	s0,sp,384
  ec:	c304                	sw	s1,0(a4)
  ee:	0000                	unimp
  f0:	0200                	addi	s0,sp,256
  f2:	0122                	slli	sp,sp,0x8
  f4:	0000                	unimp
  f6:	6302                	flw	ft6,0(sp)
  f8:	2518                	fld	fa4,8(a0)
  fa:	0000                	unimp
  fc:	0400                	addi	s0,sp,512
  fe:	0130                	addi	a2,sp,136
 100:	0000                	unimp
 102:	031c                	addi	a5,sp,384
 104:	0804                	addi	s1,sp,16
 106:	00aa                	slli	ra,ra,0xa
 108:	0000                	unimp
 10a:	0605                	addi	a2,a2,1
 10c:	0001                	nop
 10e:	0300                	addi	s0,sp,384
 110:	1b06                	slli	s6,s6,0x21
 112:	00b1                	addi	ra,ra,12
 114:	0000                	unimp
 116:	0500                	addi	s0,sp,640
 118:	0114                	addi	a3,sp,128
 11a:	0000                	unimp
 11c:	b11b0703          	lb	a4,-1263(s6)
 120:	0000                	unimp
 122:	0400                	addi	s0,sp,512
 124:	de05                	beqz	a2,5c <_stack_size-0xfa4>
 126:	0000                	unimp
 128:	0300                	addi	s0,sp,384
 12a:	1b08                	addi	a0,sp,432
 12c:	00b1                	addi	ra,ra,12
 12e:	0000                	unimp
 130:	0508                	addi	a0,sp,640
 132:	000000f3          	0xf3
 136:	b11b0903          	lb	s2,-1263(s6)
 13a:	0000                	unimp
 13c:	0c00                	addi	s0,sp,528
 13e:	6906                	flw	fs2,64(sp)
 140:	0065                	c.nop	25
 142:	b11b0a03          	lb	s4,-1263(s6)
 146:	0000                	unimp
 148:	1000                	addi	s0,sp,32
 14a:	6906                	flw	fs2,64(sp)
 14c:	0070                	addi	a2,sp,12
 14e:	b11b0b03          	lb	s6,-1263(s6)
 152:	0000                	unimp
 154:	1400                	addi	s0,sp,544
 156:	6406                	flw	fs0,64(sp)
 158:	7669                	lui	a2,0xffffa
 15a:	0300                	addi	s0,sp,384
 15c:	1b0c                	addi	a1,sp,432
 15e:	00b1                	addi	ra,ra,12
 160:	0000                	unimp
 162:	0018                	0x18
 164:	49070407          	0x49070407
 168:	0000                	unimp
 16a:	0800                	addi	s0,sp,16
 16c:	00aa                	slli	ra,ra,0xa
 16e:	0000                	unimp
 170:	c609                	beqz	a2,17a <_stack_size-0xe86>
 172:	0000                	unimp
 174:	c600                	sw	s0,8(a2)
 176:	0000                	unimp
 178:	0a00                	addi	s0,sp,272
 17a:	00aa                	slli	ra,ra,0xa
 17c:	0000                	unimp
 17e:	0010                	0x10
 180:	61080107          	0x61080107
 184:	0000                	unimp
 186:	0b00                	addi	s0,sp,400
 188:	010d                	addi	sp,sp,3
 18a:	0000                	unimp
 18c:	1601                	addi	a2,a2,-32
 18e:	b60d                	j	fffffcb0 <_edata+0x7fffec88>
 190:	0000                	unimp
 192:	0500                	addi	s0,sp,640
 194:	00100003          	lb	zero,1(zero) # 1 <_stack_size-0xfff>
 198:	0c80                	addi	s0,sp,592
 19a:	000000b7          	lui	ra,0x0
 19e:	3601                	jal	fffffc9e <_edata+0x7fffec76>
 1a0:	f806                	fsw	ft1,48(sp)
 1a2:	4002                	0x4002
 1a4:	0420                	addi	s0,sp,520
 1a6:	0002                	c.slli64	zero
 1a8:	0100                	addi	s0,sp,128
 1aa:	3c9c                	fld	fa5,56(s1)
 1ac:	0001                	nop
 1ae:	0d00                	addi	s0,sp,656
 1b0:	6d66                	flw	fs10,88(sp)
 1b2:	0074                	addi	a3,sp,12
 1b4:	3601                	jal	fffffcb4 <_edata+0x7fffec8c>
 1b6:	3c18                	fld	fa4,56(s0)
 1b8:	0001                	nop
 1ba:	0300                	addi	s0,sp,384
 1bc:	bc91                	j	fffffc10 <_edata+0x7fffebe8>
 1be:	0e7f                	0xe7f
 1c0:	0070610f          	0x70610f
 1c4:	3701                	jal	c4 <_stack_size-0xf3c>
 1c6:	370d                	jal	e8 <_stack_size-0xf18>
 1c8:	0000                	unimp
 1ca:	0200                	addi	s0,sp,256
 1cc:	4091                	li	ra,4
 1ce:	0100690f          	0x100690f
 1d2:	0938                	addi	a4,sp,152
 1d4:	0142                	slli	sp,sp,0x10
 1d6:	0000                	unimp
 1d8:	9102                	jalr	sp
 1da:	0f4c                	addi	a1,sp,916
 1dc:	38010063          	beqz	sp,55c <_stack_size-0xaa4>
 1e0:	420c                	lw	a1,0(a2)
 1e2:	0001                	nop
 1e4:	0200                	addi	s0,sp,256
 1e6:	4491                	li	s1,4
 1e8:	0100730f          	0x100730f
 1ec:	0b39                	addi	s6,s6,14
 1ee:	013c                	addi	a5,sp,136
 1f0:	0000                	unimp
 1f2:	9102                	jalr	sp
 1f4:	0048                	addi	a0,sp,4
 1f6:	0410                	addi	a2,sp,512
 1f8:	00c6                	slli	ra,ra,0x11
 1fa:	0000                	unimp
 1fc:	0411                	addi	s0,s0,4
 1fe:	6905                	lui	s2,0x1
 200:	746e                	flw	fs0,248(sp)
 202:	1200                	addi	s0,sp,288
 204:	00d5                	addi	ra,ra,21
 206:	0000                	unimp
 208:	2e01                	jal	518 <_stack_size-0xae8>
 20a:	740d                	lui	s0,0xfffe3
 20c:	4002                	0x4002
 20e:	8420                	0x8420
 210:	0000                	unimp
 212:	0100                	addi	s0,sp,128
 214:	7a9c                	flw	fa5,48(a3)
 216:	0001                	nop
 218:	0d00                	addi	s0,sp,656
 21a:	0078                	addi	a4,sp,12
 21c:	2e01                	jal	52c <_stack_size-0xad4>
 21e:	421a                	lw	tp,132(sp)
 220:	0001                	nop
 222:	0200                	addi	s0,sp,256
 224:	5c91                	li	s9,-28
 226:	0100690f          	0x100690f
 22a:	0142092f          	0x142092f
 22e:	0000                	unimp
 230:	9102                	jalr	sp
 232:	006c                	addi	a1,sp,12
 234:	ea12                	fsw	ft4,20(sp)
 236:	0000                	unimp
 238:	0100                	addi	s0,sp,128
 23a:	0d18                	addi	a4,sp,656
 23c:	0168                	addi	a0,sp,140
 23e:	2040                	fld	fs0,128(s0)
 240:	010c                	addi	a1,sp,128
 242:	0000                	unimp
 244:	9c01                	0x9c01
 246:	01e6                	slli	gp,gp,0x19
 248:	0000                	unimp
 24a:	780d                	lui	a6,0xfffe3
 24c:	0078                	addi	a4,sp,12
 24e:	1801                	addi	a6,a6,-32
 250:	421a                	lw	tp,132(sp)
 252:	0001                	nop
 254:	0200                	addi	s0,sp,256
 256:	4c91                	li	s9,4
 258:	0000e513          	ori	a0,ra,0
 25c:	0100                	addi	s0,sp,128
 25e:	2218                	fld	fa4,0(a2)
 260:	0142                	slli	sp,sp,0x10
 262:	0000                	unimp
 264:	9102                	jalr	sp
 266:	1348                	addi	a0,sp,420
 268:	00fa                	slli	ra,ra,0x1e
 26a:	0000                	unimp
 26c:	1801                	addi	a6,a6,-32
 26e:	422c                	lw	a1,64(a2)
 270:	0001                	nop
 272:	0200                	addi	s0,sp,256
 274:	4491                	li	s1,4
 276:	6675620f          	0x6675620f
 27a:	0100                	addi	s0,sp,128
 27c:	0a19                	addi	s4,s4,6
 27e:	01e6                	slli	gp,gp,0x19
 280:	0000                	unimp
 282:	9102                	jalr	sp
 284:	0f58                	addi	a4,sp,916
 286:	0069                	c.nop	26
 288:	1a01                	addi	s4,s4,-32
 28a:	4209                	li	tp,2
 28c:	0001                	nop
 28e:	0200                	addi	s0,sp,256
 290:	6c91                	lui	s9,0x4
 292:	0100780f          	0x100780f
 296:	0142091b          	0x142091b
 29a:	0000                	unimp
 29c:	9102                	jalr	sp
 29e:	0068                	addi	a0,sp,12
 2a0:	c609                	beqz	a2,2aa <_stack_size-0xd56>
 2a2:	0000                	unimp
 2a4:	f600                	fsw	fs0,40(a2)
 2a6:	0001                	nop
 2a8:	0a00                	addi	s0,sp,272
 2aa:	00aa                	slli	ra,ra,0xa
 2ac:	0000                	unimp
 2ae:	2a14000f          	0x2a14000f
 2b2:	0001                	nop
 2b4:	0100                	addi	s0,sp,128
 2b6:	0120060f          	0x120060f
 2ba:	2040                	fld	fs0,128(s0)
 2bc:	0048                	addi	a0,sp,4
 2be:	0000                	unimp
 2c0:	9c01                	0x9c01
 2c2:	021a                	slli	tp,tp,0x6
 2c4:	0000                	unimp
 2c6:	630d                	lui	t1,0x3
 2c8:	0100                	addi	s0,sp,128
 2ca:	00c6110f          	0xc6110f
 2ce:	0000                	unimp
 2d0:	9102                	jalr	sp
 2d2:	b015006f          	j	fff50dd2 <_edata+0x7ff4fdaa>
 2d6:	0001                	nop
 2d8:	0100                	addi	s0,sp,128
 2da:	0606                	slli	a2,a2,0x1
 2dc:	00c6                	slli	ra,ra,0x11
 2de:	0000                	unimp
 2e0:	00d8                	addi	a4,sp,68
 2e2:	2040                	fld	fs0,128(s0)
 2e4:	0048                	addi	a0,sp,4
 2e6:	0000                	unimp
 2e8:	9c01                	0x9c01
 2ea:	0100720f          	0x100720f
 2ee:	01420907          	0x1420907
 2f2:	0000                	unimp
 2f4:	9102                	jalr	sp
 2f6:	006c                	addi	a1,sp,12
 2f8:	3300                	fld	fs0,32(a4)
 2fa:	0001                	nop
 2fc:	0400                	addi	s0,sp,512
 2fe:	e800                	fsw	fs0,16(s0)
 300:	0001                	nop
 302:	0400                	addi	s0,sp,512
 304:	7901                	lui	s2,0xfffe0
 306:	0000                	unimp
 308:	0c00                	addi	s0,sp,528
 30a:	0135                	addi	sp,sp,13
 30c:	0000                	unimp
 30e:	000a                	c.slli	zero,0x2
 310:	0000                	unimp
 312:	04fc                	addi	a5,sp,588
 314:	2040                	fld	fs0,128(s0)
 316:	01f0                	addi	a2,sp,204
 318:	0000                	unimp
 31a:	000004d3          	fadd.s	fs1,ft0,ft0,rne
 31e:	4902                	lw	s2,0(sp)
 320:	0001                	nop
 322:	0100                	addi	s0,sp,128
 324:	00880723          	sb	s0,14(a6) # fffe300e <_edata+0x7ffe1fe6>
 328:	0000                	unimp
 32a:	0660                	addi	s0,sp,780
 32c:	2040                	fld	fs0,128(s0)
 32e:	008c                	addi	a1,sp,64
 330:	0000                	unimp
 332:	9c01                	0x9c01
 334:	0088                	addi	a0,sp,64
 336:	0000                	unimp
 338:	01007803          	0x1007803
 33c:	00951623          	sh	s1,12(a0) # fffeb00c <_edata+0x7ffe9fe4>
 340:	0000                	unimp
 342:	9102                	jalr	sp
 344:	035c                	addi	a5,sp,388
 346:	23010073          	0x23010073
 34a:	881f 0000 0200      	0x2000000881f
 350:	5891                	li	a7,-28
 352:	7c04                	flw	fs1,56(s0)
 354:	4006                	0x4006
 356:	5420                	lw	s0,104(s0)
 358:	0000                	unimp
 35a:	0500                	addi	s0,sp,640
 35c:	0069                	c.nop	26
 35e:	2401                	jal	55e <_stack_size-0xaa2>
 360:	950e                	add	a0,a0,gp
 362:	0000                	unimp
 364:	0200                	addi	s0,sp,256
 366:	6c91                	lui	s9,0x4
 368:	8804                	0x8804
 36a:	4006                	0x4006
 36c:	3420                	fld	fs0,104(s0)
 36e:	0000                	unimp
 370:	0500                	addi	s0,sp,640
 372:	0064                	addi	s1,sp,12
 374:	2501                	jal	974 <_stack_size-0x68c>
 376:	950d                	srai	a0,a0,0x23
 378:	0000                	unimp
 37a:	0200                	addi	s0,sp,256
 37c:	6891                	lui	a7,0x4
 37e:	0000                	unimp
 380:	0600                	addi	s0,sp,768
 382:	8e04                	0x8e04
 384:	0000                	unimp
 386:	0700                	addi	s0,sp,896
 388:	0801                	addi	a6,a6,0
 38a:	0061                	c.nop	24
 38c:	0000                	unimp
 38e:	0408                	addi	a0,sp,512
 390:	6905                	lui	s2,0x1
 392:	746e                	flw	fs0,248(sp)
 394:	0200                	addi	s0,sp,256
 396:	0154                	addi	a3,sp,132
 398:	0000                	unimp
 39a:	1501                	addi	a0,a0,-32
 39c:	9505                	srai	a0,a0,0x21
 39e:	0000                	unimp
 3a0:	e000                	fsw	fs0,0(s0)
 3a2:	4005                	c.li	zero,1
 3a4:	8020                	0x8020
 3a6:	0000                	unimp
 3a8:	0100                	addi	s0,sp,128
 3aa:	ea9c                	fsw	fa5,16(a3)
 3ac:	0000                	unimp
 3ae:	0300                	addi	s0,sp,384
 3b0:	15010073          	0x15010073
 3b4:	8816                	mv	a6,t0
 3b6:	0000                	unimp
 3b8:	0200                	addi	s0,sp,256
 3ba:	5c91                	li	s9,-28
 3bc:	7605                	lui	a2,0xfffe1
 3be:	6c61                	lui	s8,0x18
 3c0:	0100                	addi	s0,sp,128
 3c2:	0916                	slli	s2,s2,0x5
 3c4:	0095                	addi	ra,ra,5
 3c6:	0000                	unimp
 3c8:	9102                	jalr	sp
 3ca:	046c                	addi	a1,sp,524
 3cc:	05fc                	addi	a5,sp,716
 3ce:	2040                	fld	fs0,128(s0)
 3d0:	0040                	addi	s0,sp,4
 3d2:	0000                	unimp
 3d4:	6305                	lui	t1,0x1
 3d6:	0100                	addi	s0,sp,128
 3d8:	0d18                	addi	a4,sp,656
 3da:	0095                	addi	ra,ra,5
 3dc:	0000                	unimp
 3de:	9102                	jalr	sp
 3e0:	0068                	addi	a0,sp,12
 3e2:	0900                	addi	s0,sp,144
 3e4:	015f 0000 0d01      	0xd010000015f
 3ea:	9505                	srai	a0,a0,0x21
 3ec:	0000                	unimp
 3ee:	4c00                	lw	s0,24(s0)
 3f0:	4005                	c.li	zero,1
 3f2:	9420                	0x9420
 3f4:	0000                	unimp
 3f6:	0100                	addi	s0,sp,128
 3f8:	129c                	addi	a5,sp,352
 3fa:	0001                	nop
 3fc:	0300                	addi	s0,sp,384
 3fe:	0d010063          	beq	sp,a6,4be <_stack_size-0xb42>
 402:	00008e17          	auipc	t3,0x8
 406:	0200                	addi	s0,sp,256
 408:	6f91                	lui	t6,0x4
 40a:	0a00                	addi	s0,sp,272
 40c:	013c                	addi	a5,sp,136
 40e:	0000                	unimp
 410:	0401                	addi	s0,s0,0
 412:	8e06                	mv	t3,ra
 414:	0000                	unimp
 416:	fc00                	fsw	fs0,56(s0)
 418:	4004                	lw	s1,0(s0)
 41a:	5020                	lw	s0,96(s0)
 41c:	0000                	unimp
 41e:	0100                	addi	s0,sp,128
 420:	039c                	addi	a5,sp,448
 422:	0078                	addi	a4,sp,12
 424:	0401                	addi	s0,s0,0
 426:	00009517          	auipc	a0,0x9
 42a:	0200                	addi	s0,sp,256
 42c:	6c91                	lui	s9,0x4
 42e:	0000                	unimp
 430:	000001bb          	0x1bb
 434:	0004                	0x4
 436:	029e                	slli	t0,t0,0x7
 438:	0000                	unimp
 43a:	0104                	addi	s1,sp,128
 43c:	0079                	c.nop	30
 43e:	0000                	unimp
 440:	710c                	flw	fa1,32(a0)
 442:	0001                	nop
 444:	0a00                	addi	s0,sp,272
 446:	0000                	unimp
 448:	ec00                	fsw	fs0,24(s0)
 44a:	4006                	0x4006
 44c:	e820                	fsw	fs0,80(s0)
 44e:	0002                	c.slli64	zero
 450:	8c00                	0x8c00
 452:	0006                	c.slli	zero,0x1
 454:	0200                	addi	s0,sp,256
 456:	019d                	addi	gp,gp,7
 458:	0000                	unimp
 45a:	3901                	jal	6a <_stack_size-0xf96>
 45c:	5c05                	li	s8,-31
 45e:	0000                	unimp
 460:	4000                	lw	s0,0(s0)
 462:	4009                	c.li	zero,2
 464:	9420                	0x9420
 466:	0000                	unimp
 468:	0100                	addi	s0,sp,128
 46a:	5c9c                	lw	a5,56(s1)
 46c:	0000                	unimp
 46e:	0300                	addi	s0,sp,384
 470:	01003173          	csrrc	sp,0x10,zero
 474:	1839                	addi	a6,a6,-18
 476:	00000063          	beqz	zero,476 <_stack_size-0xb8a>
 47a:	9102                	jalr	sp
 47c:	036c                	addi	a1,sp,396
 47e:	01003273          	csrrc	tp,0x10,zero
 482:	2839                	jal	4a0 <_stack_size-0xb60>
 484:	00000063          	beqz	zero,484 <_stack_size-0xb7c>
 488:	9102                	jalr	sp
 48a:	0068                	addi	a0,sp,12
 48c:	0404                	addi	s1,sp,512
 48e:	6905                	lui	s2,0x1
 490:	746e                	flw	fs0,248(sp)
 492:	0500                	addi	s0,sp,640
 494:	7004                	flw	fs1,32(s0)
 496:	0000                	unimp
 498:	0600                	addi	s0,sp,768
 49a:	0801                	addi	a6,a6,0
 49c:	0061                	c.nop	24
 49e:	0000                	unimp
 4a0:	00006907          	0x6907
 4a4:	0800                	addi	s0,sp,16
 4a6:	0195                	addi	gp,gp,5
 4a8:	0000                	unimp
 4aa:	2901                	jal	8ba <_stack_size-0x746>
 4ac:	0000db07          	0xdb07
 4b0:	8800                	0x8800
 4b2:	4008                	lw	a0,0(s0)
 4b4:	b820                	fsd	fs0,112(s0)
 4b6:	0000                	unimp
 4b8:	0100                	addi	s0,sp,128
 4ba:	db9c                	sw	a5,48(a5)
 4bc:	0000                	unimp
 4be:	0900                	addi	s0,sp,144
 4c0:	0181                	addi	gp,gp,0
 4c2:	0000                	unimp
 4c4:	2901                	jal	8d4 <_stack_size-0x72c>
 4c6:	db15                	beqz	a4,3fa <_stack_size-0xc06>
 4c8:	0000                	unimp
 4ca:	0200                	addi	s0,sp,256
 4cc:	5c91                	li	s9,-28
 4ce:	63727303          	0x63727303
 4d2:	0100                	addi	s0,sp,128
 4d4:	2729                	jal	bde <_stack_size-0x422>
 4d6:	00000063          	beqz	zero,4d6 <_stack_size-0xb2a>
 4da:	9102                	jalr	sp
 4dc:	0358                	addi	a4,sp,388
 4de:	756e                	flw	fa0,248(sp)
 4e0:	006d                	c.nop	27
 4e2:	2901                	jal	8f2 <_stack_size-0x70e>
 4e4:	5c30                	lw	a2,120(s0)
 4e6:	0000                	unimp
 4e8:	0200                	addi	s0,sp,256
 4ea:	5491                	li	s1,-28
 4ec:	6c09                	lui	s8,0x2
 4ee:	0001                	nop
 4f0:	0100                	addi	s0,sp,128
 4f2:	3929                	jal	10c <_stack_size-0xef4>
 4f4:	005c                	addi	a5,sp,4
 4f6:	0000                	unimp
 4f8:	9102                	jalr	sp
 4fa:	0a50                	addi	a2,sp,276
 4fc:	7470                	flw	fa2,108(s0)
 4fe:	0072                	c.slli	zero,0x1c
 500:	2f01                	jal	c10 <_stack_size-0x3f0>
 502:	0000db0b          	0xdb0b
 506:	0200                	addi	s0,sp,256
 508:	6c91                	lui	s9,0x4
 50a:	0500                	addi	s0,sp,640
 50c:	6904                	flw	fs1,16(a0)
 50e:	0000                	unimp
 510:	0800                	addi	s0,sp,16
 512:	018d                	addi	gp,gp,3
 514:	0000                	unimp
 516:	1c01                	addi	s8,s8,-32
 518:	0000db07          	0xdb07
 51c:	f400                	fsw	fs0,40(s0)
 51e:	94204007          	flq	ft0,-1726(zero) # fffff942 <_edata+0x7fffe91a>
 522:	0000                	unimp
 524:	0100                	addi	s0,sp,128
 526:	369c                	fld	fa5,40(a3)
 528:	0001                	nop
 52a:	0900                	addi	s0,sp,144
 52c:	0181                	addi	gp,gp,0
 52e:	0000                	unimp
 530:	1c01                	addi	s8,s8,-32
 532:	db15                	beqz	a4,466 <_stack_size-0xb9a>
 534:	0000                	unimp
 536:	0200                	addi	s0,sp,256
 538:	5c91                	li	s9,-28
 53a:	63727303          	0x63727303
 53e:	0100                	addi	s0,sp,128
 540:	201c                	fld	fa5,0(s0)
 542:	0069                	c.nop	26
 544:	0000                	unimp
 546:	9102                	jalr	sp
 548:	016c095b          	0x16c095b
 54c:	0000                	unimp
 54e:	1c01                	addi	s8,s8,-32
 550:	5c29                	li	s8,-22
 552:	0000                	unimp
 554:	0200                	addi	s0,sp,256
 556:	5491                	li	s1,-28
 558:	700a                	flw	ft0,160(sp)
 55a:	0100                	addi	s0,sp,128
 55c:	0b21                	addi	s6,s6,8
 55e:	000000db          	0xdb
 562:	9102                	jalr	sp
 564:	006c                	addi	a1,sp,12
 566:	7a08                	flw	fa0,48(a2)
 568:	0001                	nop
 56a:	0100                	addi	s0,sp,128
 56c:	070d                	addi	a4,a4,3
 56e:	000000db          	0xdb
 572:	0738                	addi	a4,sp,904
 574:	2040                	fld	fs0,128(s0)
 576:	00bc                	addi	a5,sp,72
 578:	0000                	unimp
 57a:	9c01                	0x9c01
 57c:	018d                	addi	gp,gp,3
 57e:	0000                	unimp
 580:	8109                	srli	a0,a0,0x2
 582:	0001                	nop
 584:	0100                	addi	s0,sp,128
 586:	140d                	addi	s0,s0,-29
 588:	000000db          	0xdb
 58c:	9102                	jalr	sp
 58e:	035c                	addi	a5,sp,388
 590:	00637273          	csrrci	tp,0x6,6
 594:	0d01                	addi	s10,s10,0
 596:	6326                	flw	ft6,72(sp)
 598:	0000                	unimp
 59a:	0200                	addi	s0,sp,256
 59c:	5891                	li	a7,-28
 59e:	6c09                	lui	s8,0x2
 5a0:	0001                	nop
 5a2:	0100                	addi	s0,sp,128
 5a4:	2f0d                	jal	cd6 <_stack_size-0x32a>
 5a6:	005c                	addi	a5,sp,4
 5a8:	0000                	unimp
 5aa:	9102                	jalr	sp
 5ac:	0a54                	addi	a3,sp,276
 5ae:	7470                	flw	fa2,108(s0)
 5b0:	0072                	c.slli	zero,0x1c
 5b2:	1101                	addi	sp,sp,-32
 5b4:	0000db0b          	0xdb0b
 5b8:	0200                	addi	s0,sp,256
 5ba:	6c91                	lui	s9,0x4
 5bc:	0b00                	addi	s0,sp,400
 5be:	0186                	slli	gp,gp,0x1
 5c0:	0000                	unimp
 5c2:	0401                	addi	s0,s0,0
 5c4:	5c05                	li	s8,-31
 5c6:	0000                	unimp
 5c8:	ec00                	fsw	fs0,24(s0)
 5ca:	4006                	0x4006
 5cc:	4c20                	lw	s0,88(s0)
 5ce:	0000                	unimp
 5d0:	0100                	addi	s0,sp,128
 5d2:	039c                	addi	a5,sp,448
 5d4:	04010073          	0x4010073
 5d8:	6318                	flw	fa4,0(a4)
 5da:	0000                	unimp
 5dc:	0200                	addi	s0,sp,256
 5de:	5c91                	li	s9,-28
 5e0:	6e0a                	flw	ft8,128(sp)
 5e2:	0100                	addi	s0,sp,128
 5e4:	0905                	addi	s2,s2,1
 5e6:	005c                	addi	a5,sp,4
 5e8:	0000                	unimp
 5ea:	9102                	jalr	sp
 5ec:	006c                	addi	a1,sp,12
 5ee:	a200                	fsd	fs0,0(a2)
 5f0:	0000                	unimp
 5f2:	0400                	addi	s0,sp,512
 5f4:	6300                	flw	fs0,0(a4)
 5f6:	04000003          	lb	zero,64(zero) # 40 <_stack_size-0xfc0>
 5fa:	7901                	lui	s2,0xfffe0
 5fc:	0000                	unimp
 5fe:	0c00                	addi	s0,sp,528
 600:	01a4                	addi	s1,sp,200
 602:	0000                	unimp
 604:	000a                	c.slli	zero,0x2
 606:	0000                	unimp
 608:	09d4                	addi	a3,sp,212
 60a:	2040                	fld	fs0,128(s0)
 60c:	00fc                	addi	a5,sp,76
 60e:	0000                	unimp
 610:	00000953          	fadd.s	fs2,ft0,ft0,rne
 614:	5b02                	lw	s6,32(sp)
 616:	0000                	unimp
 618:	0100                	addi	s0,sp,128
 61a:	09f4060b          	0x9f4060b
 61e:	2040                	fld	fs0,128(s0)
 620:	00dc                	addi	a5,sp,68
 622:	0000                	unimp
 624:	9c01                	0x9c01
 626:	0071                	c.nop	28
 628:	0000                	unimp
 62a:	66756203          	0x66756203
 62e:	0100                	addi	s0,sp,128
 630:	0071120b          	0x71120b
 634:	0000                	unimp
 636:	9102                	jalr	sp
 638:	045c                	addi	a5,sp,516
 63a:	01b5                	addi	gp,gp,13
 63c:	0000                	unimp
 63e:	0b01                	addi	s6,s6,0
 640:	00007e1b          	0x7e1b
 644:	0200                	addi	s0,sp,256
 646:	5891                	li	a7,-28
 648:	0c05                	addi	s8,s8,1
 64a:	400a                	0x400a
 64c:	9020                	0x9020
 64e:	0000                	unimp
 650:	0600                	addi	s0,sp,768
 652:	0069                	c.nop	26
 654:	0c01                	addi	s8,s8,0
 656:	7e0e                	flw	ft8,224(sp)
 658:	0000                	unimp
 65a:	0200                	addi	s0,sp,256
 65c:	6c91                	lui	s9,0x4
 65e:	0000                	unimp
 660:	00770407          	0x770407
 664:	0000                	unimp
 666:	0108                	addi	a0,sp,128
 668:	6108                	flw	fa0,0(a0)
 66a:	0000                	unimp
 66c:	0900                	addi	s0,sp,144
 66e:	0504                	addi	s1,sp,640
 670:	6e69                	lui	t3,0x1a
 672:	0074                	addi	a3,sp,12
 674:	ac0a                	fsd	ft2,24(sp)
 676:	0001                	nop
 678:	0100                	addi	s0,sp,128
 67a:	0604                	addi	s1,sp,768
 67c:	09d4                	addi	a3,sp,212
 67e:	2040                	fld	fs0,128(s0)
 680:	0020                	addi	s0,sp,8
 682:	0000                	unimp
 684:	9c01                	0x9c01
 686:	01006303          	0x1006303
 68a:	1504                	addi	s1,sp,672
 68c:	0071                	c.nop	28
 68e:	0000                	unimp
 690:	9102                	jalr	sp
 692:	006c                	addi	a1,sp,12
 694:	1800                	addi	s0,sp,48
 696:	0002                	c.slli64	zero
 698:	0400                	addi	s0,sp,512
 69a:	0800                	addi	s0,sp,16
 69c:	0004                	0x4
 69e:	0400                	addi	s0,sp,512
 6a0:	7901                	lui	s2,0xfffe0
 6a2:	0000                	unimp
 6a4:	0c00                	addi	s0,sp,528
 6a6:	01c5                	addi	gp,gp,17
 6a8:	0000                	unimp
 6aa:	000a                	c.slli	zero,0x2
 6ac:	0000                	unimp
 6ae:	0ad0                	addi	a2,sp,340
 6b0:	2040                	fld	fs0,128(s0)
 6b2:	04c8                	addi	a0,sp,580
 6b4:	0000                	unimp
 6b6:	0a29                	addi	s4,s4,10
 6b8:	0000                	unimp
 6ba:	1b02                	slli	s6,s6,0x20
 6bc:	0001                	nop
 6be:	0200                	addi	s0,sp,256
 6c0:	1b28                	addi	a0,sp,440
 6c2:	0031                	c.nop	12
 6c4:	0000                	unimp
 6c6:	00c30403          	lb	s0,12(t1) # 100c <_stack_size+0xc>
 6ca:	0000                	unimp
 6cc:	2202                	fld	ft4,0(sp)
 6ce:	0001                	nop
 6d0:	0200                	addi	s0,sp,256
 6d2:	00251863          	bne	a0,sp,6e2 <_stack_size-0x91e>
 6d6:	0000                	unimp
 6d8:	0404                	addi	s1,sp,512
 6da:	00004907          	flq	fs2,0(zero) # 0 <_stack_size-0x1000>
 6de:	0500                	addi	s0,sp,640
 6e0:	005a                	c.slli	zero,0x16
 6e2:	0000                	unimp
 6e4:	005a                	c.slli	zero,0x16
 6e6:	0000                	unimp
 6e8:	4306                	lw	t1,64(sp)
 6ea:	0000                	unimp
 6ec:	1000                	addi	s0,sp,32
 6ee:	0400                	addi	s0,sp,512
 6f0:	0801                	addi	a6,a6,0
 6f2:	0061                	c.nop	24
 6f4:	0000                	unimp
 6f6:	00010d07          	0x10d07
 6fa:	0100                	addi	s0,sp,128
 6fc:	004a0d07          	0x4a0d07
 700:	0000                	unimp
 702:	0305                	addi	t1,t1,1
 704:	1014                	addi	a3,sp,32
 706:	8000                	0x8000
 708:	ce08                	sw	a0,24(a2)
 70a:	0001                	nop
 70c:	0100                	addi	s0,sp,128
 70e:	0f140667          	jalr	a2,241(s0) # fffe30f1 <_edata+0x7ffe20c9>
 712:	2040                	fld	fs0,128(s0)
 714:	0084                	addi	s1,sp,64
 716:	0000                	unimp
 718:	9c01                	0x9c01
 71a:	00a4                	addi	s1,sp,72
 71c:	0000                	unimp
 71e:	7309                	lui	t1,0xfffe2
 720:	0100                	addi	s0,sp,128
 722:	00431b67          	0x431b67
 726:	0000                	unimp
 728:	9102                	jalr	sp
 72a:	096c                	addi	a1,sp,156
 72c:	0066                	c.slli	zero,0x19
 72e:	6701                	0x6701
 730:	a424                	fsd	fs1,72(s0)
 732:	0000                	unimp
 734:	0200                	addi	s0,sp,256
 736:	6891                	lui	a7,0x4
 738:	0a00                	addi	s0,sp,272
 73a:	5a04                	lw	s1,48(a2)
 73c:	0000                	unimp
 73e:	0800                	addi	s0,sp,16
 740:	01d6                	slli	gp,gp,0x15
 742:	0000                	unimp
 744:	5d01                	li	s10,-32
 746:	8806                	mv	a6,ra
 748:	400e                	0x400e
 74a:	8c20                	0x8c20
 74c:	0000                	unimp
 74e:	0100                	addi	s0,sp,128
 750:	db9c                	sw	a5,48(a5)
 752:	0000                	unimp
 754:	0900                	addi	s0,sp,144
 756:	5d010073          	0x5d010073
 75a:	0000431b          	0x431b
 75e:	0200                	addi	s0,sp,256
 760:	6c91                	lui	s9,0x4
 762:	6609                	lui	a2,0x2
 764:	0100                	addi	s0,sp,128
 766:	245d                	jal	a0c <_stack_size-0x5f4>
 768:	00a4                	addi	s1,sp,72
 76a:	0000                	unimp
 76c:	9102                	jalr	sp
 76e:	0068                	addi	a0,sp,12
 770:	0001bb0b          	0x1bb0b
 774:	0100                	addi	s0,sp,128
 776:	0654                	addi	a3,sp,772
 778:	0e64                	addi	s1,sp,796
 77a:	2040                	fld	fs0,128(s0)
 77c:	0024                	addi	s1,sp,8
 77e:	0000                	unimp
 780:	9c01                	0x9c01
 782:	010e                	slli	sp,sp,0x3
 784:	0000                	unimp
 786:	6309                	lui	t1,0x2
 788:	0100                	addi	s0,sp,128
 78a:	1654                	addi	a3,sp,804
 78c:	00a4                	addi	s1,sp,72
 78e:	0000                	unimp
 790:	9102                	jalr	sp
 792:	0c6c                	addi	a1,sp,540
 794:	016c                	addi	a1,sp,140
 796:	0000                	unimp
 798:	5401                	li	s0,-32
 79a:	0e1d                	addi	t3,t3,7
 79c:	0001                	nop
 79e:	0200                	addi	s0,sp,256
 7a0:	6891                	lui	a7,0x4
 7a2:	0d00                	addi	s0,sp,656
 7a4:	0504                	addi	s1,sp,640
 7a6:	6e69                	lui	t3,0x1a
 7a8:	0074                	addi	a3,sp,12
 7aa:	bc08                	fsd	fa0,56(s0)
 7ac:	0000                	unimp
 7ae:	0100                	addi	s0,sp,128
 7b0:	0629                	addi	a2,a2,10
 7b2:	0c60                	addi	s0,sp,540
 7b4:	2040                	fld	fs0,128(s0)
 7b6:	0204                	addi	s1,sp,256
 7b8:	0000                	unimp
 7ba:	9c01                	0x9c01
 7bc:	0172                	slli	sp,sp,0x1c
 7be:	0000                	unimp
 7c0:	6609                	lui	a2,0x2
 7c2:	746d                	lui	s0,0xffffb
 7c4:	0100                	addi	s0,sp,128
 7c6:	1329                	addi	t1,t1,-22
 7c8:	00a4                	addi	s1,sp,72
 7ca:	0000                	unimp
 7cc:	7fbc9103          	lh	sp,2043(s9) # 47fb <_stack_size+0x37fb>
 7d0:	0f0e                	slli	t5,t5,0x3
 7d2:	7061                	c.lui	zero,0xffff8
 7d4:	0100                	addi	s0,sp,128
 7d6:	0d2a                	slli	s10,s10,0xa
 7d8:	00000037          	lui	zero,0x0
 7dc:	9102                	jalr	sp
 7de:	0f40                	addi	s0,sp,916
 7e0:	0069                	c.nop	26
 7e2:	2b01                	jal	cf2 <_stack_size-0x30e>
 7e4:	0e09                	addi	t3,t3,2
 7e6:	0001                	nop
 7e8:	0200                	addi	s0,sp,256
 7ea:	4c91                	li	s9,4
 7ec:	0100630f          	0x100630f
 7f0:	010e0c2b          	0x10e0c2b
 7f4:	0000                	unimp
 7f6:	9102                	jalr	sp
 7f8:	0f44                	addi	s1,sp,916
 7fa:	2c010073          	0x2c010073
 7fe:	0000a40b          	0xa40b
 802:	0200                	addi	s0,sp,256
 804:	4891                	li	a7,4
 806:	1000                	addi	s0,sp,32
 808:	00d5                	addi	ra,ra,21
 80a:	0000                	unimp
 80c:	1f01                	addi	t5,t5,-32
 80e:	dc0d                	beqz	s0,748 <_stack_size-0x8b8>
 810:	8420400b          	0x8420400b
 814:	0000                	unimp
 816:	0100                	addi	s0,sp,128
 818:	a39c                	fsd	fa5,0(a5)
 81a:	0001                	nop
 81c:	0900                	addi	s0,sp,144
 81e:	0078                	addi	a4,sp,12
 820:	1f01                	addi	t5,t5,-32
 822:	0e1a                	slli	t3,t3,0x6
 824:	0001                	nop
 826:	0200                	addi	s0,sp,256
 828:	5c91                	li	s9,-28
 82a:	0100690f          	0x100690f
 82e:	0920                	addi	s0,sp,152
 830:	010e                	slli	sp,sp,0x3
 832:	0000                	unimp
 834:	9102                	jalr	sp
 836:	006c                	addi	a1,sp,12
 838:	ea10                	fsw	fa2,16(a2)
 83a:	0000                	unimp
 83c:	0100                	addi	s0,sp,128
 83e:	0d09                	addi	s10,s10,2
 840:	0ad0                	addi	a2,sp,340
 842:	2040                	fld	fs0,128(s0)
 844:	010c                	addi	a1,sp,128
 846:	0000                	unimp
 848:	9c01                	0x9c01
 84a:	0000020f          	0x20f
 84e:	7809                	lui	a6,0xfffe2
 850:	0078                	addi	a4,sp,12
 852:	0901                	addi	s2,s2,0
 854:	0e1a                	slli	t3,t3,0x6
 856:	0001                	nop
 858:	0200                	addi	s0,sp,256
 85a:	4c91                	li	s9,4
 85c:	e50c                	fsw	fa1,8(a0)
 85e:	0000                	unimp
 860:	0100                	addi	s0,sp,128
 862:	2209                	jal	964 <_stack_size-0x69c>
 864:	010e                	slli	sp,sp,0x3
 866:	0000                	unimp
 868:	9102                	jalr	sp
 86a:	0c48                	addi	a0,sp,532
 86c:	00fa                	slli	ra,ra,0x1e
 86e:	0000                	unimp
 870:	0901                	addi	s2,s2,0
 872:	0e2c                	addi	a1,sp,792
 874:	0001                	nop
 876:	0200                	addi	s0,sp,256
 878:	4491                	li	s1,4
 87a:	6675620f          	0x6675620f
 87e:	0100                	addi	s0,sp,128
 880:	0a0a                	slli	s4,s4,0x2
 882:	0000020f          	0x20f
 886:	9102                	jalr	sp
 888:	0f58                	addi	a4,sp,916
 88a:	0069                	c.nop	26
 88c:	0b01                	addi	s6,s6,0
 88e:	0e09                	addi	t3,t3,2
 890:	0001                	nop
 892:	0200                	addi	s0,sp,256
 894:	6c91                	lui	s9,0x4
 896:	0100780f          	0x100780f
 89a:	090c                	addi	a1,sp,144
 89c:	010e                	slli	sp,sp,0x3
 89e:	0000                	unimp
 8a0:	9102                	jalr	sp
 8a2:	0068                	addi	a0,sp,12
 8a4:	5a11                	li	s4,-28
 8a6:	0000                	unimp
 8a8:	0600                	addi	s0,sp,768
 8aa:	00000043          	fmadd.s	ft0,ft0,ft0,ft0,rne
 8ae:	          	fence	unknown,unknown

Disassembly of section .debug_abbrev:

00000000 <.debug_abbrev>:
   0:	1101                	addi	sp,sp,-32
   2:	1000                	addi	s0,sp,32
   4:	1106                	slli	sp,sp,0x21
   6:	1201                	addi	tp,tp,-32
   8:	0301                	addi	t1,t1,0
   a:	1b0e                	slli	s6,s6,0x23
   c:	250e                	fld	fa0,192(sp)
   e:	130e                	slli	t1,t1,0x23
  10:	0005                	c.nop	1
  12:	0000                	unimp
  14:	1101                	addi	sp,sp,-32
  16:	2501                	jal	616 <_stack_size-0x9ea>
  18:	130e                	slli	t1,t1,0x23
  1a:	1b0e030b          	0x1b0e030b
  1e:	110e                	slli	sp,sp,0x23
  20:	1201                	addi	tp,tp,-32
  22:	1006                	c.slli	zero,0x21
  24:	02000017          	auipc	zero,0x2000
  28:	0024                	addi	s1,sp,8
  2a:	0b3e0b0b          	0xb3e0b0b
  2e:	00000e03          	lb	t3,0(zero) # 0 <_stack_size-0x1000>
  32:	3f012e03          	lw	t3,1008(sp)
  36:	0319                	addi	t1,t1,6
  38:	3a0e                	fld	fs4,224(sp)
  3a:	390b3b0b          	0x390b3b0b
  3e:	1201110b          	0x1201110b
  42:	4006                	0x4006
  44:	9618                	0x9618
  46:	1942                	slli	s2,s2,0x30
  48:	1301                	addi	t1,t1,-32
  4a:	0000                	unimp
  4c:	3404                	fld	fs1,40(s0)
  4e:	0300                	addi	s0,sp,384
  50:	3a0e                	fld	fs4,224(sp)
  52:	390b3b0b          	0x390b3b0b
  56:	0213490b          	0x213490b
  5a:	0018                	0x18
  5c:	0500                	addi	s0,sp,640
  5e:	012e                	slli	sp,sp,0xb
  60:	0e03193f 0b3b0b3a 	0xb3b0b3a0e03193f
  68:	0b39                	addi	s6,s6,14
  6a:	1349                	addi	t1,t1,-14
  6c:	193c                	addi	a5,sp,184
  6e:	0000                	unimp
  70:	1806                	slli	a6,a6,0x21
  72:	0000                	unimp
  74:	0700                	addi	s0,sp,896
  76:	0b0b000f          	0xb0b000f
  7a:	1349                	addi	t1,t1,-14
  7c:	0000                	unimp
  7e:	0108                	addi	a0,sp,128
  80:	4901                	li	s2,0
  82:	00130113          	addi	sp,t1,1 # 2001 <_stack_size+0x1001>
  86:	0900                	addi	s0,sp,144
  88:	0021                	c.nop	8
  8a:	1349                	addi	t1,t1,-14
  8c:	00000b2f          	0xb2f
  90:	240a                	fld	fs0,128(sp)
  92:	0b00                	addi	s0,sp,400
  94:	030b3e0b          	0x30b3e0b
  98:	0008                	0x8
  9a:	0000                	unimp
  9c:	1101                	addi	sp,sp,-32
  9e:	2501                	jal	69e <_stack_size-0x962>
  a0:	130e                	slli	t1,t1,0x23
  a2:	1b0e030b          	0x1b0e030b
  a6:	110e                	slli	sp,sp,0x23
  a8:	1201                	addi	tp,tp,-32
  aa:	1006                	c.slli	zero,0x21
  ac:	02000017          	auipc	zero,0x2000
  b0:	0016                	c.slli	zero,0x5
  b2:	0b3a0e03          	lb	t3,179(s4)
  b6:	0b390b3b          	0xb390b3b
  ba:	1349                	addi	t1,t1,-14
  bc:	0000                	unimp
  be:	0b000f03          	lb	t5,176(zero) # b0 <_stack_size-0xf50>
  c2:	000e030b          	0xe030b
  c6:	0400                	addi	s0,sp,512
  c8:	0e030113          	addi	sp,t1,224
  cc:	0b3a0b0b          	0xb3a0b0b
  d0:	0b390b3b          	0xb390b3b
  d4:	1301                	addi	t1,t1,-32
  d6:	0000                	unimp
  d8:	0d05                	addi	s10,s10,1
  da:	0300                	addi	s0,sp,384
  dc:	3a0e                	fld	fs4,224(sp)
  de:	390b3b0b          	0x390b3b0b
  e2:	3813490b          	0x3813490b
  e6:	0600000b          	0x600000b
  ea:	000d                	c.nop	3
  ec:	0b3a0803          	lb	a6,179(s4)
  f0:	0b390b3b          	0xb390b3b
  f4:	1349                	addi	t1,t1,-14
  f6:	0b38                	addi	a4,sp,408
  f8:	0000                	unimp
  fa:	0b002407          	flw	fs0,176(zero) # b0 <_stack_size-0xf50>
  fe:	030b3e0b          	0x30b3e0b
 102:	000e                	c.slli	zero,0x3
 104:	0800                	addi	s0,sp,16
 106:	0035                	c.nop	13
 108:	1349                	addi	t1,t1,-14
 10a:	0000                	unimp
 10c:	0109                	addi	sp,sp,2
 10e:	4901                	li	s2,0
 110:	00130113          	addi	sp,t1,1
 114:	0a00                	addi	s0,sp,272
 116:	0021                	c.nop	8
 118:	1349                	addi	t1,t1,-14
 11a:	00000b2f          	0xb2f
 11e:	0300340b          	0x300340b
 122:	3a0e                	fld	fs4,224(sp)
 124:	390b3b0b          	0x390b3b0b
 128:	0213490b          	0x213490b
 12c:	0018                	0x18
 12e:	0c00                	addi	s0,sp,528
 130:	012e                	slli	sp,sp,0xb
 132:	0e03193f 0b3b0b3a 	0xb3b0b3a0e03193f
 13a:	0b39                	addi	s6,s6,14
 13c:	01111927          	0x1111927
 140:	0612                	slli	a2,a2,0x4
 142:	1840                	addi	s0,sp,52
 144:	4296                	lw	t0,68(sp)
 146:	0119                	addi	sp,sp,6
 148:	0d000013          	li	zero,208
 14c:	0005                	c.nop	1
 14e:	0b3a0803          	lb	a6,179(s4)
 152:	0b390b3b          	0xb390b3b
 156:	1349                	addi	t1,t1,-14
 158:	1802                	slli	a6,a6,0x20
 15a:	0000                	unimp
 15c:	180e                	slli	a6,a6,0x23
 15e:	0000                	unimp
 160:	0f00                	addi	s0,sp,912
 162:	0034                	addi	a3,sp,8
 164:	0b3a0803          	lb	a6,179(s4)
 168:	0b390b3b          	0xb390b3b
 16c:	1349                	addi	t1,t1,-14
 16e:	1802                	slli	a6,a6,0x20
 170:	0000                	unimp
 172:	0f10                	addi	a2,sp,912
 174:	0b00                	addi	s0,sp,400
 176:	0013490b          	0x13490b
 17a:	1100                	addi	s0,sp,160
 17c:	0024                	addi	s1,sp,8
 17e:	0b3e0b0b          	0xb3e0b0b
 182:	00000803          	lb	a6,0(zero) # 0 <_stack_size-0x1000>
 186:	2e12                	fld	ft8,256(sp)
 188:	0301                	addi	t1,t1,0
 18a:	3a0e                	fld	fs4,224(sp)
 18c:	390b3b0b          	0x390b3b0b
 190:	1119270b          	0x1119270b
 194:	1201                	addi	tp,tp,-32
 196:	4006                	0x4006
 198:	9618                	0x9618
 19a:	1942                	slli	s2,s2,0x30
 19c:	1301                	addi	t1,t1,-32
 19e:	0000                	unimp
 1a0:	03000513          	li	a0,48
 1a4:	3a0e                	fld	fs4,224(sp)
 1a6:	390b3b0b          	0x390b3b0b
 1aa:	0213490b          	0x213490b
 1ae:	0018                	0x18
 1b0:	1400                	addi	s0,sp,544
 1b2:	012e                	slli	sp,sp,0xb
 1b4:	0e03193f 0b3b0b3a 	0xb3b0b3a0e03193f
 1bc:	0b39                	addi	s6,s6,14
 1be:	01111927          	0x1111927
 1c2:	0612                	slli	a2,a2,0x4
 1c4:	1840                	addi	s0,sp,52
 1c6:	01194297          	auipc	t0,0x1194
 1ca:	15000013          	li	zero,336
 1ce:	012e                	slli	sp,sp,0xb
 1d0:	0e03193f 0b3b0b3a 	0xb3b0b3a0e03193f
 1d8:	0b39                	addi	s6,s6,14
 1da:	1349                	addi	t1,t1,-14
 1dc:	0111                	addi	sp,sp,4
 1de:	0612                	slli	a2,a2,0x4
 1e0:	1840                	addi	s0,sp,52
 1e2:	00194297          	auipc	t0,0x194
 1e6:	0000                	unimp
 1e8:	1101                	addi	sp,sp,-32
 1ea:	2501                	jal	7ea <_stack_size-0x816>
 1ec:	130e                	slli	t1,t1,0x23
 1ee:	1b0e030b          	0x1b0e030b
 1f2:	110e                	slli	sp,sp,0x23
 1f4:	1201                	addi	tp,tp,-32
 1f6:	1006                	c.slli	zero,0x21
 1f8:	02000017          	auipc	zero,0x2000
 1fc:	012e                	slli	sp,sp,0xb
 1fe:	0e03193f 0b3b0b3a 	0xb3b0b3a0e03193f
 206:	0b39                	addi	s6,s6,14
 208:	13491927          	0x13491927
 20c:	0111                	addi	sp,sp,4
 20e:	0612                	slli	a2,a2,0x4
 210:	1840                	addi	s0,sp,52
 212:	4296                	lw	t0,68(sp)
 214:	0119                	addi	sp,sp,6
 216:	03000013          	li	zero,48
 21a:	0005                	c.nop	1
 21c:	0b3a0803          	lb	a6,179(s4)
 220:	0b390b3b          	0xb390b3b
 224:	1349                	addi	t1,t1,-14
 226:	1802                	slli	a6,a6,0x20
 228:	0000                	unimp
 22a:	0b04                	addi	s1,sp,400
 22c:	1101                	addi	sp,sp,-32
 22e:	1201                	addi	tp,tp,-32
 230:	0006                	c.slli	zero,0x1
 232:	0500                	addi	s0,sp,640
 234:	0034                	addi	a3,sp,8
 236:	0b3a0803          	lb	a6,179(s4)
 23a:	0b390b3b          	0xb390b3b
 23e:	1349                	addi	t1,t1,-14
 240:	1802                	slli	a6,a6,0x20
 242:	0000                	unimp
 244:	0f06                	slli	t5,t5,0x1
 246:	0b00                	addi	s0,sp,400
 248:	0013490b          	0x13490b
 24c:	0700                	addi	s0,sp,896
 24e:	0024                	addi	s1,sp,8
 250:	0b3e0b0b          	0xb3e0b0b
 254:	00000e03          	lb	t3,0(zero) # 0 <_stack_size-0x1000>
 258:	2408                	fld	fa0,8(s0)
 25a:	0b00                	addi	s0,sp,400
 25c:	030b3e0b          	0x30b3e0b
 260:	0008                	0x8
 262:	0900                	addi	s0,sp,144
 264:	012e                	slli	sp,sp,0xb
 266:	0e03193f 0b3b0b3a 	0xb3b0b3a0e03193f
 26e:	0b39                	addi	s6,s6,14
 270:	13491927          	0x13491927
 274:	0111                	addi	sp,sp,4
 276:	0612                	slli	a2,a2,0x4
 278:	1840                	addi	s0,sp,52
 27a:	01194297          	auipc	t0,0x1194
 27e:	0a000013          	li	zero,160
 282:	012e                	slli	sp,sp,0xb
 284:	0e03193f 0b3b0b3a 	0xb3b0b3a0e03193f
 28c:	0b39                	addi	s6,s6,14
 28e:	13491927          	0x13491927
 292:	0111                	addi	sp,sp,4
 294:	0612                	slli	a2,a2,0x4
 296:	1840                	addi	s0,sp,52
 298:	00194297          	auipc	t0,0x194
 29c:	0000                	unimp
 29e:	1101                	addi	sp,sp,-32
 2a0:	2501                	jal	8a0 <_stack_size-0x760>
 2a2:	130e                	slli	t1,t1,0x23
 2a4:	1b0e030b          	0x1b0e030b
 2a8:	110e                	slli	sp,sp,0x23
 2aa:	1201                	addi	tp,tp,-32
 2ac:	1006                	c.slli	zero,0x21
 2ae:	02000017          	auipc	zero,0x2000
 2b2:	012e                	slli	sp,sp,0xb
 2b4:	0e03193f 0b3b0b3a 	0xb3b0b3a0e03193f
 2bc:	0b39                	addi	s6,s6,14
 2be:	13491927          	0x13491927
 2c2:	0111                	addi	sp,sp,4
 2c4:	0612                	slli	a2,a2,0x4
 2c6:	1840                	addi	s0,sp,52
 2c8:	01194297          	auipc	t0,0x1194
 2cc:	03000013          	li	zero,48
 2d0:	0005                	c.nop	1
 2d2:	0b3a0803          	lb	a6,179(s4)
 2d6:	0b390b3b          	0xb390b3b
 2da:	1349                	addi	t1,t1,-14
 2dc:	1802                	slli	a6,a6,0x20
 2de:	0000                	unimp
 2e0:	2404                	fld	fs1,8(s0)
 2e2:	0b00                	addi	s0,sp,400
 2e4:	030b3e0b          	0x30b3e0b
 2e8:	0008                	0x8
 2ea:	0500                	addi	s0,sp,640
 2ec:	0b0b000f          	0xb0b000f
 2f0:	1349                	addi	t1,t1,-14
 2f2:	0000                	unimp
 2f4:	2406                	fld	fs0,64(sp)
 2f6:	0b00                	addi	s0,sp,400
 2f8:	030b3e0b          	0x30b3e0b
 2fc:	000e                	c.slli	zero,0x3
 2fe:	0700                	addi	s0,sp,896
 300:	0026                	c.slli	zero,0x9
 302:	1349                	addi	t1,t1,-14
 304:	0000                	unimp
 306:	2e08                	fld	fa0,24(a2)
 308:	3f01                	jal	218 <_stack_size-0xde8>
 30a:	0319                	addi	t1,t1,6
 30c:	3a0e                	fld	fs4,224(sp)
 30e:	390b3b0b          	0x390b3b0b
 312:	4919270b          	0x4919270b
 316:	12011113          	0x12011113
 31a:	4006                	0x4006
 31c:	9618                	0x9618
 31e:	1942                	slli	s2,s2,0x30
 320:	1301                	addi	t1,t1,-32
 322:	0000                	unimp
 324:	0509                	addi	a0,a0,2
 326:	0300                	addi	s0,sp,384
 328:	3a0e                	fld	fs4,224(sp)
 32a:	390b3b0b          	0x390b3b0b
 32e:	0213490b          	0x213490b
 332:	0018                	0x18
 334:	0a00                	addi	s0,sp,272
 336:	0034                	addi	a3,sp,8
 338:	0b3a0803          	lb	a6,179(s4)
 33c:	0b390b3b          	0xb390b3b
 340:	1349                	addi	t1,t1,-14
 342:	1802                	slli	a6,a6,0x20
 344:	0000                	unimp
 346:	3f012e0b          	0x3f012e0b
 34a:	0319                	addi	t1,t1,6
 34c:	3a0e                	fld	fs4,224(sp)
 34e:	390b3b0b          	0x390b3b0b
 352:	4919270b          	0x4919270b
 356:	12011113          	0x12011113
 35a:	4006                	0x4006
 35c:	9718                	0x9718
 35e:	1942                	slli	s2,s2,0x30
 360:	0000                	unimp
 362:	0100                	addi	s0,sp,128
 364:	0111                	addi	sp,sp,4
 366:	0e25                	addi	t3,t3,9
 368:	0e030b13          	addi	s6,t1,224
 36c:	01110e1b          	0x1110e1b
 370:	0612                	slli	a2,a2,0x4
 372:	1710                	addi	a2,sp,928
 374:	0000                	unimp
 376:	2e02                	fld	ft8,0(sp)
 378:	3f01                	jal	288 <_stack_size-0xd78>
 37a:	0319                	addi	t1,t1,6
 37c:	3a0e                	fld	fs4,224(sp)
 37e:	390b3b0b          	0x390b3b0b
 382:	1119270b          	0x1119270b
 386:	1201                	addi	tp,tp,-32
 388:	4006                	0x4006
 38a:	9618                	0x9618
 38c:	1942                	slli	s2,s2,0x30
 38e:	1301                	addi	t1,t1,-32
 390:	0000                	unimp
 392:	03000503          	lb	a0,48(zero) # 30 <_stack_size-0xfd0>
 396:	3a08                	fld	fa0,48(a2)
 398:	390b3b0b          	0x390b3b0b
 39c:	0213490b          	0x213490b
 3a0:	0018                	0x18
 3a2:	0400                	addi	s0,sp,512
 3a4:	0005                	c.nop	1
 3a6:	0b3a0e03          	lb	t3,179(s4)
 3aa:	0b390b3b          	0xb390b3b
 3ae:	1349                	addi	t1,t1,-14
 3b0:	1802                	slli	a6,a6,0x20
 3b2:	0000                	unimp
 3b4:	0b05                	addi	s6,s6,1
 3b6:	1101                	addi	sp,sp,-32
 3b8:	1201                	addi	tp,tp,-32
 3ba:	0006                	c.slli	zero,0x1
 3bc:	0600                	addi	s0,sp,768
 3be:	0034                	addi	a3,sp,8
 3c0:	0b3a0803          	lb	a6,179(s4)
 3c4:	0b390b3b          	0xb390b3b
 3c8:	1349                	addi	t1,t1,-14
 3ca:	1802                	slli	a6,a6,0x20
 3cc:	0000                	unimp
 3ce:	0b000f07          	0xb000f07
 3d2:	0013490b          	0x13490b
 3d6:	0800                	addi	s0,sp,16
 3d8:	0024                	addi	s1,sp,8
 3da:	0b3e0b0b          	0xb3e0b0b
 3de:	00000e03          	lb	t3,0(zero) # 0 <_stack_size-0x1000>
 3e2:	2409                	jal	5e4 <_stack_size-0xa1c>
 3e4:	0b00                	addi	s0,sp,400
 3e6:	030b3e0b          	0x30b3e0b
 3ea:	0008                	0x8
 3ec:	0a00                	addi	s0,sp,272
 3ee:	012e                	slli	sp,sp,0xb
 3f0:	0e03193f 0b3b0b3a 	0xb3b0b3a0e03193f
 3f8:	0b39                	addi	s6,s6,14
 3fa:	01111927          	0x1111927
 3fe:	0612                	slli	a2,a2,0x4
 400:	1840                	addi	s0,sp,52
 402:	00194297          	auipc	t0,0x194
 406:	0000                	unimp
 408:	1101                	addi	sp,sp,-32
 40a:	2501                	jal	a0a <_stack_size-0x5f6>
 40c:	130e                	slli	t1,t1,0x23
 40e:	1b0e030b          	0x1b0e030b
 412:	110e                	slli	sp,sp,0x23
 414:	1201                	addi	tp,tp,-32
 416:	1006                	c.slli	zero,0x21
 418:	02000017          	auipc	zero,0x2000
 41c:	0016                	c.slli	zero,0x5
 41e:	0b3a0e03          	lb	t3,179(s4)
 422:	0b390b3b          	0xb390b3b
 426:	1349                	addi	t1,t1,-14
 428:	0000                	unimp
 42a:	0b000f03          	lb	t5,176(zero) # b0 <_stack_size-0xf50>
 42e:	000e030b          	0xe030b
 432:	0400                	addi	s0,sp,512
 434:	0024                	addi	s1,sp,8
 436:	0b3e0b0b          	0xb3e0b0b
 43a:	00000e03          	lb	t3,0(zero) # 0 <_stack_size-0x1000>
 43e:	0105                	addi	sp,sp,1
 440:	4901                	li	s2,0
 442:	00130113          	addi	sp,t1,1
 446:	0600                	addi	s0,sp,768
 448:	0021                	c.nop	8
 44a:	1349                	addi	t1,t1,-14
 44c:	00000b2f          	0xb2f
 450:	03003407          	fld	fs0,48(zero) # 30 <_stack_size-0xfd0>
 454:	3a0e                	fld	fs4,224(sp)
 456:	390b3b0b          	0x390b3b0b
 45a:	0213490b          	0x213490b
 45e:	0018                	0x18
 460:	0800                	addi	s0,sp,16
 462:	012e                	slli	sp,sp,0xb
 464:	0e03193f 0b3b0b3a 	0xb3b0b3a0e03193f
 46c:	0b39                	addi	s6,s6,14
 46e:	01111927          	0x1111927
 472:	0612                	slli	a2,a2,0x4
 474:	1840                	addi	s0,sp,52
 476:	4296                	lw	t0,68(sp)
 478:	0119                	addi	sp,sp,6
 47a:	09000013          	li	zero,144
 47e:	0005                	c.nop	1
 480:	0b3a0803          	lb	a6,179(s4)
 484:	0b390b3b          	0xb390b3b
 488:	1349                	addi	t1,t1,-14
 48a:	1802                	slli	a6,a6,0x20
 48c:	0000                	unimp
 48e:	0f0a                	slli	t5,t5,0x2
 490:	0b00                	addi	s0,sp,400
 492:	0013490b          	0x13490b
 496:	0b00                	addi	s0,sp,400
 498:	012e                	slli	sp,sp,0xb
 49a:	0e03193f 0b3b0b3a 	0xb3b0b3a0e03193f
 4a2:	0b39                	addi	s6,s6,14
 4a4:	01111927          	0x1111927
 4a8:	0612                	slli	a2,a2,0x4
 4aa:	1840                	addi	s0,sp,52
 4ac:	01194297          	auipc	t0,0x1194
 4b0:	0c000013          	li	zero,192
 4b4:	0005                	c.nop	1
 4b6:	0b3a0e03          	lb	t3,179(s4)
 4ba:	0b390b3b          	0xb390b3b
 4be:	1349                	addi	t1,t1,-14
 4c0:	1802                	slli	a6,a6,0x20
 4c2:	0000                	unimp
 4c4:	240d                	jal	6e6 <_stack_size-0x91a>
 4c6:	0b00                	addi	s0,sp,400
 4c8:	030b3e0b          	0x30b3e0b
 4cc:	0008                	0x8
 4ce:	0e00                	addi	s0,sp,784
 4d0:	0018                	0x18
 4d2:	0000                	unimp
 4d4:	0300340f          	0x300340f
 4d8:	3a08                	fld	fa0,48(a2)
 4da:	390b3b0b          	0x390b3b0b
 4de:	0213490b          	0x213490b
 4e2:	0018                	0x18
 4e4:	1000                	addi	s0,sp,32
 4e6:	012e                	slli	sp,sp,0xb
 4e8:	0b3a0e03          	lb	t3,179(s4)
 4ec:	0b390b3b          	0xb390b3b
 4f0:	01111927          	0x1111927
 4f4:	0612                	slli	a2,a2,0x4
 4f6:	1840                	addi	s0,sp,52
 4f8:	4296                	lw	t0,68(sp)
 4fa:	0119                	addi	sp,sp,6
 4fc:	11000013          	li	zero,272
 500:	0101                	addi	sp,sp,0
 502:	1349                	addi	t1,t1,-14
 504:	0000                	unimp
	...

Disassembly of section .debug_aranges:

00000000 <.debug_aranges>:
   0:	001c                	0x1c
   2:	0000                	unimp
   4:	0002                	c.slli64	zero
   6:	0000                	unimp
   8:	0000                	unimp
   a:	0004                	0x4
   c:	0000                	unimp
   e:	0000                	unimp
  10:	0000                	unimp
  12:	2040                	fld	fs0,128(s0)
  14:	0068                	addi	a0,sp,12
	...
  1e:	0000                	unimp
  20:	001c                	0x1c
  22:	0000                	unimp
  24:	0002                	c.slli64	zero
  26:	0026                	c.slli	zero,0x9
  28:	0000                	unimp
  2a:	0004                	0x4
  2c:	0000                	unimp
  2e:	0000                	unimp
  30:	0068                	addi	a0,sp,12
  32:	2040                	fld	fs0,128(s0)
  34:	0070                	addi	a2,sp,12
	...
  3e:	0000                	unimp
  40:	001c                	0x1c
  42:	0000                	unimp
  44:	0002                	c.slli64	zero
  46:	00ba                	slli	ra,ra,0xe
  48:	0000                	unimp
  4a:	0004                	0x4
  4c:	0000                	unimp
  4e:	0000                	unimp
  50:	00d8                	addi	a4,sp,68
  52:	2040                	fld	fs0,128(s0)
  54:	0424                	addi	s1,sp,520
	...
  5e:	0000                	unimp
  60:	001c                	0x1c
  62:	0000                	unimp
  64:	0002                	c.slli64	zero
  66:	02f9                	addi	t0,t0,30
  68:	0000                	unimp
  6a:	0004                	0x4
  6c:	0000                	unimp
  6e:	0000                	unimp
  70:	04fc                	addi	a5,sp,588
  72:	2040                	fld	fs0,128(s0)
  74:	01f0                	addi	a2,sp,204
	...
  7e:	0000                	unimp
  80:	001c                	0x1c
  82:	0000                	unimp
  84:	0002                	c.slli64	zero
  86:	0430                	addi	a2,sp,520
  88:	0000                	unimp
  8a:	0004                	0x4
  8c:	0000                	unimp
  8e:	0000                	unimp
  90:	06ec                	addi	a1,sp,844
  92:	2040                	fld	fs0,128(s0)
  94:	02e8                	addi	a0,sp,332
	...
  9e:	0000                	unimp
  a0:	001c                	0x1c
  a2:	0000                	unimp
  a4:	0002                	c.slli64	zero
  a6:	000005ef          	jal	a1,a6 <_stack_size-0xf5a>
  aa:	0004                	0x4
  ac:	0000                	unimp
  ae:	0000                	unimp
  b0:	09d4                	addi	a3,sp,212
  b2:	2040                	fld	fs0,128(s0)
  b4:	00fc                	addi	a5,sp,76
	...
  be:	0000                	unimp
  c0:	001c                	0x1c
  c2:	0000                	unimp
  c4:	0002                	c.slli64	zero
  c6:	0695                	addi	a3,a3,5
  c8:	0000                	unimp
  ca:	0004                	0x4
  cc:	0000                	unimp
  ce:	0000                	unimp
  d0:	0ad0                	addi	a2,sp,340
  d2:	2040                	fld	fs0,128(s0)
  d4:	04c8                	addi	a0,sp,580
	...

Disassembly of section .debug_str:

00000000 <.debug_str>:
   0:	72617473          	csrrci	s0,0x726,2
   4:	7574                	flw	fa3,108(a0)
   6:	2e70                	fld	fa2,216(a2)
   8:	552f0073          	0x552f0073
   c:	73726573          	csrrsi	a0,0x737,4
  10:	646e612f          	0x646e612f
  14:	6572                	flw	fa0,28(sp)
  16:	65687377          	0x65687377
  1a:	2f6e                	fld	ft10,216(sp)
  1c:	6f44                	flw	fs1,28(a4)
  1e:	656d7563          	bgeu	s10,s6,668 <_stack_size-0x998>
  22:	746e                	flw	fs0,248(sp)
  24:	72702f73          	csrr	t5,0x727
  28:	6d69                	lui	s10,0x1a
  2a:	7365                	lui	t1,0xffff9
  2c:	3032                	fld	ft0,296(sp)
  2e:	3931                	jal	fffffc4a <_edata+0x7fffec22>
  30:	67656c2f          	0x67656c2f
  34:	722f534f          	fnmadd.d	ft6,ft10,ft2,fa4,unknown
  38:	7369                	lui	t1,0xffffa
  3a:	47007663          	bgeu	zero,a6,4a6 <_stack_size-0xb5a>
  3e:	554e                	lw	a0,240(sp)
  40:	4120                	lw	s0,64(a0)
  42:	2e322053          	0x2e322053
  46:	75003233          	0x75003233
  4a:	736e                	flw	ft6,248(sp)
  4c:	6769                	lui	a4,0x1a
  4e:	656e                	flw	fa0,216(sp)
  50:	2064                	fld	fs1,192(s0)
  52:	6e69                	lui	t3,0x1a
  54:	0074                	addi	a3,sp,12
  56:	616e                	flw	ft2,216(sp)
  58:	656d                	lui	a0,0x1b
  5a:	7300                	flw	fs0,32(a4)
  5c:	666e6163          	bltu	t3,t1,6be <_stack_size-0x942>
  60:	6300                	flw	fs0,0(a4)
  62:	6168                	flw	fa0,68(a0)
  64:	0072                	c.slli	zero,0x1c
  66:	616d                	addi	sp,sp,240
  68:	6e69                	lui	t3,0x1a
  6a:	632e                	flw	ft6,200(sp)
  6c:	6100                	flw	fs0,0(a0)
  6e:	696e                	flw	fs2,216(sp)
  70:	616d                	addi	sp,sp,240
  72:	006c                	addi	a1,sp,12
  74:	616d                	addi	sp,sp,240
  76:	6e69                	lui	t3,0x1a
  78:	4700                	lw	s0,8(a4)
  7a:	554e                	lw	a0,240(sp)
  7c:	4320                	lw	s0,64(a4)
  7e:	3731                	jal	ffffff8a <_edata+0x7fffef62>
  80:	3820                	fld	fs0,112(s0)
  82:	322e                	fld	ft4,232(sp)
  84:	302e                	fld	ft0,232(sp)
  86:	2d20                	fld	fs0,88(a0)
  88:	616d                	addi	sp,sp,240
  8a:	6372                	flw	ft6,28(sp)
  8c:	3d68                	fld	fa0,248(a0)
  8e:	7672                	flw	fa2,60(sp)
  90:	6d693233          	0x6d693233
  94:	2d20                	fld	fs0,88(a0)
  96:	616d                	addi	sp,sp,240
  98:	6962                	flw	fs2,24(sp)
  9a:	693d                	lui	s2,0xf
  9c:	706c                	flw	fa1,100(s0)
  9e:	2d203233          	0x2d203233
  a2:	4f2d2067          	0x4f2d2067
  a6:	2030                	fld	fa2,64(s0)
  a8:	662d                	lui	a2,0xb
  aa:	7266                	flw	ft4,120(sp)
  ac:	6565                	lui	a0,0x19
  ae:	6e617473          	csrrci	s0,0x6e6,2
  b2:	6964                	flw	fs1,84(a0)
  b4:	676e                	flw	fa4,216(sp)
  b6:	5500                	lw	s0,40(a0)
  b8:	5241                	li	tp,-16
  ba:	5f54                	lw	a3,60(a4)
  bc:	7270                	flw	fa2,100(a2)
  be:	6e69                	lui	t3,0x1a
  c0:	6674                	flw	fa3,76(a2)
  c2:	5f00                	lw	s0,56(a4)
  c4:	625f 6975 746c      	0x746c6975625f
  ca:	6e69                	lui	t3,0x1a
  cc:	765f 5f61 696c      	0x696c5f61765f
  d2:	70007473          	csrrci	s0,0x700,0
  d6:	6972                	flw	fs2,28(sp)
  d8:	746e                	flw	fs0,248(sp)
  da:	7470                	flw	fa2,108(s0)
  dc:	0072                	c.slli	zero,0x1c
  de:	7874                	flw	fa3,116(s0)
  e0:	6c727463          	bgeu	tp,t2,7a8 <_stack_size-0x858>
  e4:	6200                	flw	fs0,0(a2)
  e6:	7361                	lui	t1,0xffff8
  e8:	0065                	c.nop	25
  ea:	7270                	flw	fa2,100(a2)
  ec:	6e69                	lui	t3,0x1a
  ee:	6974                	flw	fa3,84(a0)
  f0:	746e                	flw	fs0,248(sp)
  f2:	7200                	flw	fs0,32(a2)
  f4:	6378                	flw	fa4,68(a4)
  f6:	7274                	flw	fa3,100(a2)
  f8:	006c                	addi	a1,sp,12
  fa:	6e676973          	csrrsi	s2,0x6e6,14
  fe:	5500                	lw	s0,40(a0)
 100:	5241                	li	tp,-16
 102:	2e54                	fld	fa3,152(a2)
 104:	78740063          	beq	s0,t2,884 <_stack_size-0x77c>
 108:	6164                	flw	fs1,68(a0)
 10a:	6174                	flw	fa3,68(a0)
 10c:	6400                	flw	fs0,8(s0)
 10e:	6769                	lui	a4,0x1a
 110:	7469                	lui	s0,0xffffa
 112:	78720073          	0x78720073
 116:	6164                	flw	fs1,68(a0)
 118:	6174                	flw	fa3,68(a0)
 11a:	5f00                	lw	s0,56(a4)
 11c:	675f 756e 5f63      	0x5f63756e675f
 122:	6176                	flw	ft2,92(sp)
 124:	6c5f 7369 0074      	0x7473696c5f
 12a:	74697277          	0x74697277
 12e:	0065                	c.nop	25
 130:	4155                	li	sp,21
 132:	5452                	lw	s0,52(sp)
 134:	6d00                	flw	fs0,24(a0)
 136:	7461                	lui	s0,0xffff8
 138:	2e68                	fld	fa0,216(a2)
 13a:	69640063          	beq	s0,s6,7ba <_stack_size-0x846>
 13e:	5f746967          	0x5f746967
 142:	6f74                	flw	fa3,92(a4)
 144:	685f 7865 6900      	0x69007865685f
 14a:	746e                	flw	fs0,248(sp)
 14c:	745f 5f6f 6568      	0x65685f6f745f
 152:	0078                	addi	a4,sp,12
 154:	6568                	flw	fa0,76(a0)
 156:	5f78                	lw	a4,124(a4)
 158:	6f74                	flw	fa3,92(a4)
 15a:	695f 746e 6800      	0x6800746e695f
 160:	7865                	lui	a6,0xffff9
 162:	745f 5f6f 6964      	0x69645f6f745f
 168:	00746967          	0x746967
 16c:	657a6973          	csrrsi	s2,0x657,20
 170:	7300                	flw	fs0,32(a4)
 172:	7274                	flw	fa3,100(a2)
 174:	6e69                	lui	t3,0x1a
 176:	00632e67          	0x632e67
 17a:	63727473          	csrrci	s0,0x637,4
 17e:	7461                	lui	s0,0xffff8
 180:	6400                	flw	fs0,8(s0)
 182:	7365                	lui	t1,0xffff9
 184:	0074                	addi	a3,sp,12
 186:	6c727473          	csrrci	s0,0x6c7,4
 18a:	6e65                	lui	t3,0x19
 18c:	7300                	flw	fs0,32(a4)
 18e:	7274                	flw	fa3,100(a2)
 190:	63746163          	bltu	s0,s7,7b2 <_stack_size-0x84e>
 194:	7300                	flw	fs0,32(a4)
 196:	7274                	flw	fa3,100(a2)
 198:	636e                	flw	ft6,216(sp)
 19a:	7970                	flw	fa2,116(a0)
 19c:	7300                	flw	fs0,32(a4)
 19e:	7274                	flw	fa3,100(a2)
 1a0:	00706d63          	bltu	zero,t2,1ba <_stack_size-0xe46>
 1a4:	6e616373          	csrrsi	t1,0x6e6,2
 1a8:	2e66                	fld	ft8,88(sp)
 1aa:	76730063          	beq	t1,t2,90a <_stack_size-0x6f6>
 1ae:	65725f63          	bge	tp,s7,80c <_stack_size-0x7f4>
 1b2:	6461                	lui	s0,0x18
 1b4:	6300                	flw	fs0,0(a4)
 1b6:	746e756f          	jal	a0,e78fc <_stack_size+0xe68fc>
 1ba:	7300                	flw	fs0,32(a4)
 1bc:	6376                	flw	ft6,92(sp)
 1be:	705f 6972 746e      	0x746e6972705f
 1c4:	7000                	flw	fs0,32(s0)
 1c6:	6972                	flw	fs2,28(sp)
 1c8:	746e                	flw	fs0,248(sp)
 1ca:	2e66                	fld	ft8,88(sp)
 1cc:	64610063          	beq	sp,t1,80c <_stack_size-0x7f4>
 1d0:	5f64                	lw	s1,124(a4)
 1d2:	6568                	flw	fa0,76(a0)
 1d4:	0078                	addi	a4,sp,12
 1d6:	6461                	lui	s0,0x18
 1d8:	5f64                	lw	s1,124(a4)
 1da:	6e69                	lui	t3,0x1a
 1dc:	0074                	addi	a3,sp,12

Disassembly of section .debug_frame:

00000000 <.debug_frame>:
   0:	000c                	0xc
   2:	0000                	unimp
   4:	ffff                	0xffff
   6:	ffff                	0xffff
   8:	0001                	nop
   a:	7c01                	lui	s8,0xfffe0
   c:	0d01                	addi	s10,s10,0
   e:	0002                	c.slli64	zero
  10:	0020                	addi	s0,sp,8
  12:	0000                	unimp
  14:	0000                	unimp
  16:	0000                	unimp
  18:	0068                	addi	a0,sp,12
  1a:	2040                	fld	fs0,128(s0)
  1c:	0070                	addi	a2,sp,12
  1e:	0000                	unimp
  20:	0e44                	addi	s1,sp,788
  22:	4830                	lw	a2,80(s0)
  24:	0181                	addi	gp,gp,0
  26:	0288                	addi	a0,sp,320
  28:	0c44                	addi	s1,sp,532
  2a:	0008                	0x8
  2c:	5402                	lw	s0,32(sp)
  2e:	44c1                	li	s1,16
  30:	44c8                	lw	a0,12(s1)
  32:	020d                	addi	tp,tp,3
  34:	000c                	0xc
  36:	0000                	unimp
  38:	ffff                	0xffff
  3a:	ffff                	0xffff
  3c:	0001                	nop
  3e:	7c01                	lui	s8,0xfffe0
  40:	0d01                	addi	s10,s10,0
  42:	0002                	c.slli64	zero
  44:	001c                	0x1c
  46:	0000                	unimp
  48:	0034                	addi	a3,sp,8
  4a:	0000                	unimp
  4c:	00d8                	addi	a4,sp,68
  4e:	2040                	fld	fs0,128(s0)
  50:	0048                	addi	a0,sp,4
  52:	0000                	unimp
  54:	0e44                	addi	s1,sp,788
  56:	4420                	lw	s0,72(s0)
  58:	0188                	addi	a0,sp,192
  5a:	0c44                	addi	s1,sp,532
  5c:	0008                	0x8
  5e:	c874                	sw	a3,84(s0)
  60:	0d44                	addi	s1,sp,660
  62:	0002                	c.slli64	zero
  64:	001c                	0x1c
  66:	0000                	unimp
  68:	0034                	addi	a3,sp,8
  6a:	0000                	unimp
  6c:	0120                	addi	s0,sp,136
  6e:	2040                	fld	fs0,128(s0)
  70:	0048                	addi	a0,sp,4
  72:	0000                	unimp
  74:	0e44                	addi	s1,sp,788
  76:	4420                	lw	s0,72(s0)
  78:	0188                	addi	a0,sp,192
  7a:	0c44                	addi	s1,sp,532
  7c:	0008                	0x8
  7e:	c874                	sw	a3,84(s0)
  80:	0d44                	addi	s1,sp,660
  82:	0002                	c.slli64	zero
  84:	0020                	addi	s0,sp,8
  86:	0000                	unimp
  88:	0034                	addi	a3,sp,8
  8a:	0000                	unimp
  8c:	0168                	addi	a0,sp,140
  8e:	2040                	fld	fs0,128(s0)
  90:	010c                	addi	a1,sp,128
  92:	0000                	unimp
  94:	0e44                	addi	s1,sp,788
  96:	4840                	lw	s0,20(s0)
  98:	0181                	addi	gp,gp,0
  9a:	0288                	addi	a0,sp,320
  9c:	0c44                	addi	s1,sp,532
  9e:	0008                	0x8
  a0:	f002                	fsw	ft0,32(sp)
  a2:	44c1                	li	s1,16
  a4:	44c8                	lw	a0,12(s1)
  a6:	020d                	addi	tp,tp,3
  a8:	0020                	addi	s0,sp,8
  aa:	0000                	unimp
  ac:	0034                	addi	a3,sp,8
  ae:	0000                	unimp
  b0:	0274                	addi	a3,sp,268
  b2:	2040                	fld	fs0,128(s0)
  b4:	0084                	addi	s1,sp,64
  b6:	0000                	unimp
  b8:	0e44                	addi	s1,sp,788
  ba:	4830                	lw	a2,80(s0)
  bc:	0181                	addi	gp,gp,0
  be:	0288                	addi	a0,sp,320
  c0:	0c44                	addi	s1,sp,532
  c2:	0008                	0x8
  c4:	6802                	flw	fa6,0(sp)
  c6:	44c1                	li	s1,16
  c8:	44c8                	lw	a0,12(s1)
  ca:	020d                	addi	tp,tp,3
  cc:	0024                	addi	s1,sp,8
  ce:	0000                	unimp
  d0:	0034                	addi	a3,sp,8
  d2:	0000                	unimp
  d4:	02f8                	addi	a4,sp,332
  d6:	2040                	fld	fs0,128(s0)
  d8:	0204                	addi	s1,sp,256
  da:	0000                	unimp
  dc:	0e44                	addi	s1,sp,788
  de:	4850                	lw	a2,20(s0)
  e0:	0981                	addi	s3,s3,0
  e2:	0a88                	addi	a0,sp,336
  e4:	0c44                	addi	s1,sp,532
  e6:	2008                	fld	fa0,0(s0)
  e8:	c101e803          	0xc101e803
  ec:	c844                	sw	s1,20(s0)
  ee:	0c44                	addi	s1,sp,532
  f0:	0002                	c.slli64	zero
  f2:	0000                	unimp
  f4:	000c                	0xc
  f6:	0000                	unimp
  f8:	ffff                	0xffff
  fa:	ffff                	0xffff
  fc:	0001                	nop
  fe:	7c01                	lui	s8,0xfffe0
 100:	0d01                	addi	s10,s10,0
 102:	0002                	c.slli64	zero
 104:	001c                	0x1c
 106:	0000                	unimp
 108:	00f4                	addi	a3,sp,76
 10a:	0000                	unimp
 10c:	04fc                	addi	a5,sp,588
 10e:	2040                	fld	fs0,128(s0)
 110:	0050                	addi	a2,sp,4
 112:	0000                	unimp
 114:	0e44                	addi	s1,sp,788
 116:	4420                	lw	s0,72(s0)
 118:	0188                	addi	a0,sp,192
 11a:	0c44                	addi	s1,sp,532
 11c:	0008                	0x8
 11e:	c87c                	sw	a5,84(s0)
 120:	0d44                	addi	s1,sp,660
 122:	0002                	c.slli64	zero
 124:	001c                	0x1c
 126:	0000                	unimp
 128:	00f4                	addi	a3,sp,76
 12a:	0000                	unimp
 12c:	054c                	addi	a1,sp,644
 12e:	2040                	fld	fs0,128(s0)
 130:	0094                	addi	a3,sp,64
 132:	0000                	unimp
 134:	0e44                	addi	s1,sp,788
 136:	4420                	lw	s0,72(s0)
 138:	0188                	addi	a0,sp,192
 13a:	0c44                	addi	s1,sp,532
 13c:	0008                	0x8
 13e:	8002                	0x8002
 140:	44c8                	lw	a0,12(s1)
 142:	020d                	addi	tp,tp,3
 144:	0020                	addi	s0,sp,8
 146:	0000                	unimp
 148:	00f4                	addi	a3,sp,76
 14a:	0000                	unimp
 14c:	05e0                	addi	s0,sp,716
 14e:	2040                	fld	fs0,128(s0)
 150:	0080                	addi	s0,sp,64
 152:	0000                	unimp
 154:	0e44                	addi	s1,sp,788
 156:	4830                	lw	a2,80(s0)
 158:	0181                	addi	gp,gp,0
 15a:	0288                	addi	a0,sp,320
 15c:	0c44                	addi	s1,sp,532
 15e:	0008                	0x8
 160:	6402                	flw	fs0,0(sp)
 162:	44c1                	li	s1,16
 164:	44c8                	lw	a0,12(s1)
 166:	020d                	addi	tp,tp,3
 168:	0024                	addi	s1,sp,8
 16a:	0000                	unimp
 16c:	00f4                	addi	a3,sp,76
 16e:	0000                	unimp
 170:	0660                	addi	s0,sp,780
 172:	2040                	fld	fs0,128(s0)
 174:	008c                	addi	a1,sp,64
 176:	0000                	unimp
 178:	0e44                	addi	s1,sp,788
 17a:	4c30                	lw	a2,88(s0)
 17c:	0181                	addi	gp,gp,0
 17e:	0288                	addi	a0,sp,320
 180:	0389                	addi	t2,t2,2
 182:	0c44                	addi	s1,sp,532
 184:	0008                	0x8
 186:	6802                	flw	fa6,0(sp)
 188:	44c1                	li	s1,16
 18a:	44c8                	lw	a0,12(s1)
 18c:	44c9                	li	s1,18
 18e:	020d                	addi	tp,tp,3
 190:	000c                	0xc
 192:	0000                	unimp
 194:	ffff                	0xffff
 196:	ffff                	0xffff
 198:	0001                	nop
 19a:	7c01                	lui	s8,0xfffe0
 19c:	0d01                	addi	s10,s10,0
 19e:	0002                	c.slli64	zero
 1a0:	001c                	0x1c
 1a2:	0000                	unimp
 1a4:	0190                	addi	a2,sp,192
 1a6:	0000                	unimp
 1a8:	06ec                	addi	a1,sp,844
 1aa:	2040                	fld	fs0,128(s0)
 1ac:	004c                	addi	a1,sp,4
 1ae:	0000                	unimp
 1b0:	0e44                	addi	s1,sp,788
 1b2:	4430                	lw	a2,72(s0)
 1b4:	0188                	addi	a0,sp,192
 1b6:	0c44                	addi	s1,sp,532
 1b8:	0008                	0x8
 1ba:	c878                	sw	a4,84(s0)
 1bc:	0d44                	addi	s1,sp,660
 1be:	0002                	c.slli64	zero
 1c0:	0024                	addi	s1,sp,8
 1c2:	0000                	unimp
 1c4:	0190                	addi	a2,sp,192
 1c6:	0000                	unimp
 1c8:	0738                	addi	a4,sp,904
 1ca:	2040                	fld	fs0,128(s0)
 1cc:	00bc                	addi	a5,sp,72
 1ce:	0000                	unimp
 1d0:	0e44                	addi	s1,sp,788
 1d2:	4c30                	lw	a2,88(s0)
 1d4:	0181                	addi	gp,gp,0
 1d6:	0288                	addi	a0,sp,320
 1d8:	0389                	addi	t2,t2,2
 1da:	0c44                	addi	s1,sp,532
 1dc:	0008                	0x8
 1de:	9802                	jalr	a6
 1e0:	44c1                	li	s1,16
 1e2:	44c8                	lw	a0,12(s1)
 1e4:	44c9                	li	s1,18
 1e6:	020d                	addi	tp,tp,3
 1e8:	0020                	addi	s0,sp,8
 1ea:	0000                	unimp
 1ec:	0190                	addi	a2,sp,192
 1ee:	0000                	unimp
 1f0:	07f4                	addi	a3,sp,972
 1f2:	2040                	fld	fs0,128(s0)
 1f4:	0094                	addi	a3,sp,64
 1f6:	0000                	unimp
 1f8:	0e44                	addi	s1,sp,788
 1fa:	4830                	lw	a2,80(s0)
 1fc:	0181                	addi	gp,gp,0
 1fe:	0288                	addi	a0,sp,320
 200:	0c44                	addi	s1,sp,532
 202:	0008                	0x8
 204:	7802                	flw	fa6,32(sp)
 206:	44c1                	li	s1,16
 208:	44c8                	lw	a0,12(s1)
 20a:	020d                	addi	tp,tp,3
 20c:	0020                	addi	s0,sp,8
 20e:	0000                	unimp
 210:	0190                	addi	a2,sp,192
 212:	0000                	unimp
 214:	0888                	addi	a0,sp,80
 216:	2040                	fld	fs0,128(s0)
 218:	00b8                	addi	a4,sp,72
 21a:	0000                	unimp
 21c:	0e44                	addi	s1,sp,788
 21e:	4830                	lw	a2,80(s0)
 220:	0181                	addi	gp,gp,0
 222:	0288                	addi	a0,sp,320
 224:	0c44                	addi	s1,sp,532
 226:	0008                	0x8
 228:	9c02                	jalr	s8
 22a:	44c1                	li	s1,16
 22c:	44c8                	lw	a0,12(s1)
 22e:	020d                	addi	tp,tp,3
 230:	001c                	0x1c
 232:	0000                	unimp
 234:	0190                	addi	a2,sp,192
 236:	0000                	unimp
 238:	0940                	addi	s0,sp,148
 23a:	2040                	fld	fs0,128(s0)
 23c:	0094                	addi	a3,sp,64
 23e:	0000                	unimp
 240:	0e44                	addi	s1,sp,788
 242:	4420                	lw	s0,72(s0)
 244:	0188                	addi	a0,sp,192
 246:	0c44                	addi	s1,sp,532
 248:	0008                	0x8
 24a:	8002                	0x8002
 24c:	44c8                	lw	a0,12(s1)
 24e:	020d                	addi	tp,tp,3
 250:	000c                	0xc
 252:	0000                	unimp
 254:	ffff                	0xffff
 256:	ffff                	0xffff
 258:	0001                	nop
 25a:	7c01                	lui	s8,0xfffe0
 25c:	0d01                	addi	s10,s10,0
 25e:	0002                	c.slli64	zero
 260:	001c                	0x1c
 262:	0000                	unimp
 264:	0250                	addi	a2,sp,260
 266:	0000                	unimp
 268:	09d4                	addi	a3,sp,212
 26a:	2040                	fld	fs0,128(s0)
 26c:	0020                	addi	s0,sp,8
 26e:	0000                	unimp
 270:	0e44                	addi	s1,sp,788
 272:	4420                	lw	s0,72(s0)
 274:	0188                	addi	a0,sp,192
 276:	0c44                	addi	s1,sp,532
 278:	0008                	0x8
 27a:	c84c                	sw	a1,20(s0)
 27c:	0d44                	addi	s1,sp,660
 27e:	0002                	c.slli64	zero
 280:	0020                	addi	s0,sp,8
 282:	0000                	unimp
 284:	0250                	addi	a2,sp,260
 286:	0000                	unimp
 288:	09f4                	addi	a3,sp,220
 28a:	2040                	fld	fs0,128(s0)
 28c:	00dc                	addi	a5,sp,68
 28e:	0000                	unimp
 290:	0e44                	addi	s1,sp,788
 292:	4830                	lw	a2,80(s0)
 294:	0181                	addi	gp,gp,0
 296:	0288                	addi	a0,sp,320
 298:	0c44                	addi	s1,sp,532
 29a:	0008                	0x8
 29c:	c002                	sw	zero,0(sp)
 29e:	44c1                	li	s1,16
 2a0:	44c8                	lw	a0,12(s1)
 2a2:	020d                	addi	tp,tp,3
 2a4:	000c                	0xc
 2a6:	0000                	unimp
 2a8:	ffff                	0xffff
 2aa:	ffff                	0xffff
 2ac:	0001                	nop
 2ae:	7c01                	lui	s8,0xfffe0
 2b0:	0d01                	addi	s10,s10,0
 2b2:	0002                	c.slli64	zero
 2b4:	0020                	addi	s0,sp,8
 2b6:	0000                	unimp
 2b8:	02a4                	addi	s1,sp,328
 2ba:	0000                	unimp
 2bc:	0ad0                	addi	a2,sp,340
 2be:	2040                	fld	fs0,128(s0)
 2c0:	010c                	addi	a1,sp,128
 2c2:	0000                	unimp
 2c4:	0e44                	addi	s1,sp,788
 2c6:	4840                	lw	s0,20(s0)
 2c8:	0181                	addi	gp,gp,0
 2ca:	0288                	addi	a0,sp,320
 2cc:	0c44                	addi	s1,sp,532
 2ce:	0008                	0x8
 2d0:	f002                	fsw	ft0,32(sp)
 2d2:	44c1                	li	s1,16
 2d4:	44c8                	lw	a0,12(s1)
 2d6:	020d                	addi	tp,tp,3
 2d8:	0020                	addi	s0,sp,8
 2da:	0000                	unimp
 2dc:	02a4                	addi	s1,sp,328
 2de:	0000                	unimp
 2e0:	0bdc                	addi	a5,sp,468
 2e2:	2040                	fld	fs0,128(s0)
 2e4:	0084                	addi	s1,sp,64
 2e6:	0000                	unimp
 2e8:	0e44                	addi	s1,sp,788
 2ea:	4830                	lw	a2,80(s0)
 2ec:	0181                	addi	gp,gp,0
 2ee:	0288                	addi	a0,sp,320
 2f0:	0c44                	addi	s1,sp,532
 2f2:	0008                	0x8
 2f4:	6802                	flw	fa6,0(sp)
 2f6:	44c1                	li	s1,16
 2f8:	44c8                	lw	a0,12(s1)
 2fa:	020d                	addi	tp,tp,3
 2fc:	0024                	addi	s1,sp,8
 2fe:	0000                	unimp
 300:	02a4                	addi	s1,sp,328
 302:	0000                	unimp
 304:	0c60                	addi	s0,sp,540
 306:	2040                	fld	fs0,128(s0)
 308:	0204                	addi	s1,sp,256
 30a:	0000                	unimp
 30c:	0e44                	addi	s1,sp,788
 30e:	4850                	lw	a2,20(s0)
 310:	0981                	addi	s3,s3,0
 312:	0a88                	addi	a0,sp,336
 314:	0c44                	addi	s1,sp,532
 316:	2008                	fld	fa0,0(s0)
 318:	c101e803          	0xc101e803
 31c:	c844                	sw	s1,20(s0)
 31e:	0c44                	addi	s1,sp,532
 320:	0002                	c.slli64	zero
 322:	0000                	unimp
 324:	001c                	0x1c
 326:	0000                	unimp
 328:	02a4                	addi	s1,sp,328
 32a:	0000                	unimp
 32c:	0e64                	addi	s1,sp,796
 32e:	2040                	fld	fs0,128(s0)
 330:	0024                	addi	s1,sp,8
 332:	0000                	unimp
 334:	0e44                	addi	s1,sp,788
 336:	4420                	lw	s0,72(s0)
 338:	0188                	addi	a0,sp,192
 33a:	0c44                	addi	s1,sp,532
 33c:	0008                	0x8
 33e:	c850                	sw	a2,20(s0)
 340:	0d44                	addi	s1,sp,660
 342:	0002                	c.slli64	zero
 344:	0020                	addi	s0,sp,8
 346:	0000                	unimp
 348:	02a4                	addi	s1,sp,328
 34a:	0000                	unimp
 34c:	0e88                	addi	a0,sp,848
 34e:	2040                	fld	fs0,128(s0)
 350:	008c                	addi	a1,sp,64
 352:	0000                	unimp
 354:	0e44                	addi	s1,sp,788
 356:	4820                	lw	s0,80(s0)
 358:	0181                	addi	gp,gp,0
 35a:	0288                	addi	a0,sp,320
 35c:	0c44                	addi	s1,sp,532
 35e:	0008                	0x8
 360:	7002                	flw	ft0,32(sp)
 362:	44c1                	li	s1,16
 364:	44c8                	lw	a0,12(s1)
 366:	020d                	addi	tp,tp,3
 368:	0020                	addi	s0,sp,8
 36a:	0000                	unimp
 36c:	02a4                	addi	s1,sp,328
 36e:	0000                	unimp
 370:	0f14                	addi	a3,sp,912
 372:	2040                	fld	fs0,128(s0)
 374:	0084                	addi	s1,sp,64
 376:	0000                	unimp
 378:	0e44                	addi	s1,sp,788
 37a:	4820                	lw	s0,80(s0)
 37c:	0181                	addi	gp,gp,0
 37e:	0288                	addi	a0,sp,320
 380:	0c44                	addi	s1,sp,532
 382:	0008                	0x8
 384:	6802                	flw	fa6,0(sp)
 386:	44c1                	li	s1,16
 388:	44c8                	lw	a0,12(s1)
 38a:	020d                	addi	tp,tp,3
